

Microchip MPLAB XC8 Assembler V2.20 build 20200408173844 
                                                                                               Thu Sep  3 10:35:14 2020

Microchip MPLAB XC8 C Compiler v2.20 (Free license) build 20200408173844 Og1 
     1                           	processor	16F1789
     2                           	pagewidth 120
     3                           	opt	flic
     4                           	psect	stringtext1,global,class=STRCODE,delta=2,noexec
     5                           	psect	nvBANK0,global,class=BANK0,space=1,delta=1,noexec
     6                           	psect	nvBANK1,global,class=BANK1,space=1,delta=1,noexec
     7                           	psect	cinit,global,class=CODE,merge=1,delta=2
     8                           	psect	bssBANK0,global,class=BANK0,space=1,delta=1,noexec
     9                           	psect	cstackBANK1,global,class=BANK1,space=1,delta=1,noexec
    10                           	psect	cstackCOMMON,global,class=COMMON,space=1,delta=1,noexec
    11                           	psect	cstackBANK0,global,class=BANK0,space=1,delta=1,noexec
    12                           	psect	maintext,global,class=CODE,merge=1,split=1,delta=2
    13                           	psect	text1,local,class=CODE,merge=1,delta=2
    14                           	psect	text2,local,class=CODE,merge=1,delta=2
    15                           	psect	text3,local,class=CODE,merge=1,delta=2
    16                           	psect	text4,local,class=CODE,merge=1,delta=2
    17                           	psect	text5,local,class=CODE,merge=1,delta=2
    18                           	psect	text6,local,class=CODE,merge=1,delta=2
    19                           	psect	text7,local,class=CODE,merge=1,delta=2
    20                           	psect	text8,local,class=CODE,merge=1,delta=2
    21                           	psect	text9,local,class=CODE,merge=1,delta=2
    22                           	psect	text10,local,class=CODE,merge=1,delta=2
    23                           	psect	text11,local,class=CODE,merge=1,delta=2
    24                           	psect	text12,local,class=CODE,merge=1,delta=2
    25                           	psect	text13,local,class=CODE,merge=1,delta=2
    26                           	psect	text14,local,class=CODE,merge=1,delta=2
    27                           	psect	text15,local,class=CODE,merge=1,delta=2
    28                           	psect	text16,local,class=CODE,merge=1,delta=2
    29                           	psect	text17,local,class=CODE,merge=1,delta=2
    30                           	psect	text18,local,class=CODE,merge=1,delta=2
    31                           	psect	text19,local,class=CODE,merge=1,delta=2
    32                           	psect	text20,local,class=CODE,merge=1,delta=2
    33                           	psect	text21,local,class=CODE,merge=1,delta=2
    34                           	psect	text22,local,class=CODE,merge=1,delta=2
    35                           	psect	text23,local,class=CODE,merge=1,delta=2
    36                           	psect	text24,local,class=CODE,merge=1,delta=2
    37                           	psect	text25,local,class=CODE,merge=1,delta=2
    38                           	psect	config,global,abs,ovrld,class=CONFIG,space=4,delta=2,noexec
    39                           	dabs	1,0x7E,2
    40  0000                     
    41                           ; Version 2.20
    42                           ; Generated 12/02/2020 GMT
    43                           ; 
    44                           ; Copyright © 2020, Microchip Technology Inc. and its subsidiaries ("Microchip")
    45                           ; All rights reserved.
    46                           ; 
    47                           ; This software is developed by Microchip Technology Inc. and its subsidiaries ("Microch
      +                          ip").
    48                           ; 
    49                           ; Redistribution and use in source and binary forms, with or without modification, are
    50                           ; permitted provided that the following conditions are met:
    51                           ; 
    52                           ;     1. Redistributions of source code must retain the above copyright notice, this lis
      +                          t of
    53                           ;        conditions and the following disclaimer.
    54                           ; 
    55                           ;     2. Redistributions in binary form must reproduce the above copyright notice, this 
      +                          list
    56                           ;        of conditions and the following disclaimer in the documentation and/or other
    57                           ;        materials provided with the distribution.
    58                           ; 
    59                           ;     3. Microchip's name may not be used to endorse or promote products derived from th
      +                          is
    60                           ;        software without specific prior written permission.
    61                           ; 
    62                           ; THIS SOFTWARE IS PROVIDED BY MICROCHIP "AS IS" AND ANY EXPRESS OR IMPLIED WARRANTIES,
    63                           ; INCLUDING, BUT NOT LIMITED TO, THE IMPLIED WARRANTIES OF MERCHANTABILITY AND FITNESS F
      +                          OR
    64                           ; PURPOSE ARE DISCLAIMED.  IN NO EVENT SHALL MICROCHIP BE LIABLE FOR ANY DIRECT, INDIREC
      +                          T,
    65                           ; INCIDENTAL, SPECIAL, EXEMPLARY, OR CONSEQUENTIAL DAMAGES (INCLUDING BUT NOT LIMITED TO
    66                           ; PROCUREMENT OF SUBSTITUTE GOODS OR SERVICES; LOSS OF USE, DATA OR PROFITS; OR BUSINESS
    67                           ; INTERRUPTION) HOWSOEVER CAUSED AND ON ANY THEORY OF LIABILITY, WHETHER IN CONTRACT, ST
      +                          RICT
    68                           ; LIABILITY, OR TORT (INCLUDING NEGLIGENCE OR OTHERWISE) ARISING IN ANY WAY OUT OF THE U
      +                          SE OF
    69                           ; THIS SOFTWARE, EVEN IF ADVISED OF THE POSSIBILITY OF SUCH DAMAGE.
    70                           ; 
    71                           ; 
    72                           ; Code-generator required, PIC16F1789 Definitions
    73                           ; 
    74                           ; SFR Addresses
    75  0000                     	;# 
    76  0001                     	;# 
    77  0002                     	;# 
    78  0003                     	;# 
    79  0004                     	;# 
    80  0005                     	;# 
    81  0006                     	;# 
    82  0007                     	;# 
    83  0008                     	;# 
    84  0009                     	;# 
    85  000A                     	;# 
    86  000B                     	;# 
    87  000C                     	;# 
    88  000D                     	;# 
    89  000E                     	;# 
    90  000F                     	;# 
    91  0010                     	;# 
    92  0011                     	;# 
    93  0012                     	;# 
    94  0013                     	;# 
    95  0014                     	;# 
    96  0015                     	;# 
    97  0016                     	;# 
    98  0016                     	;# 
    99  0017                     	;# 
   100  0018                     	;# 
   101  0019                     	;# 
   102  001A                     	;# 
   103  001B                     	;# 
   104  001C                     	;# 
   105  008C                     	;# 
   106  008D                     	;# 
   107  008E                     	;# 
   108  008F                     	;# 
   109  0090                     	;# 
   110  0091                     	;# 
   111  0092                     	;# 
   112  0093                     	;# 
   113  0094                     	;# 
   114  0095                     	;# 
   115  0096                     	;# 
   116  0097                     	;# 
   117  0098                     	;# 
   118  0099                     	;# 
   119  009A                     	;# 
   120  009B                     	;# 
   121  009B                     	;# 
   122  009C                     	;# 
   123  009D                     	;# 
   124  009E                     	;# 
   125  009F                     	;# 
   126  010C                     	;# 
   127  010D                     	;# 
   128  010E                     	;# 
   129  010F                     	;# 
   130  0110                     	;# 
   131  0111                     	;# 
   132  0112                     	;# 
   133  0113                     	;# 
   134  0114                     	;# 
   135  0115                     	;# 
   136  0116                     	;# 
   137  0117                     	;# 
   138  0118                     	;# 
   139  0119                     	;# 
   140  011A                     	;# 
   141  011B                     	;# 
   142  011C                     	;# 
   143  011D                     	;# 
   144  011D                     	;# 
   145  011D                     	;# 
   146  011E                     	;# 
   147  011F                     	;# 
   148  018C                     	;# 
   149  018D                     	;# 
   150  018E                     	;# 
   151  018F                     	;# 
   152  0190                     	;# 
   153  0191                     	;# 
   154  0191                     	;# 
   155  0192                     	;# 
   156  0193                     	;# 
   157  0193                     	;# 
   158  0193                     	;# 
   159  0194                     	;# 
   160  0195                     	;# 
   161  0196                     	;# 
   162  0197                     	;# 
   163  0199                     	;# 
   164  0199                     	;# 
   165  0199                     	;# 
   166  019A                     	;# 
   167  019A                     	;# 
   168  019A                     	;# 
   169  019B                     	;# 
   170  019B                     	;# 
   171  019B                     	;# 
   172  019B                     	;# 
   173  019B                     	;# 
   174  019C                     	;# 
   175  019C                     	;# 
   176  019C                     	;# 
   177  019D                     	;# 
   178  019D                     	;# 
   179  019D                     	;# 
   180  019E                     	;# 
   181  019E                     	;# 
   182  019E                     	;# 
   183  019F                     	;# 
   184  019F                     	;# 
   185  019F                     	;# 
   186  019F                     	;# 
   187  019F                     	;# 
   188  020C                     	;# 
   189  020D                     	;# 
   190  020E                     	;# 
   191  020F                     	;# 
   192  0210                     	;# 
   193  0211                     	;# 
   194  0211                     	;# 
   195  0212                     	;# 
   196  0212                     	;# 
   197  0213                     	;# 
   198  0213                     	;# 
   199  0214                     	;# 
   200  0214                     	;# 
   201  0215                     	;# 
   202  0215                     	;# 
   203  0215                     	;# 
   204  0215                     	;# 
   205  0216                     	;# 
   206  0216                     	;# 
   207  0217                     	;# 
   208  0217                     	;# 
   209  028C                     	;# 
   210  028D                     	;# 
   211  028E                     	;# 
   212  028F                     	;# 
   213  0290                     	;# 
   214  0291                     	;# 
   215  0291                     	;# 
   216  0292                     	;# 
   217  0293                     	;# 
   218  0298                     	;# 
   219  0298                     	;# 
   220  0299                     	;# 
   221  029A                     	;# 
   222  030C                     	;# 
   223  030D                     	;# 
   224  030E                     	;# 
   225  030F                     	;# 
   226  0310                     	;# 
   227  0311                     	;# 
   228  0311                     	;# 
   229  0312                     	;# 
   230  0313                     	;# 
   231  038C                     	;# 
   232  038D                     	;# 
   233  038E                     	;# 
   234  038F                     	;# 
   235  0390                     	;# 
   236  0391                     	;# 
   237  0392                     	;# 
   238  0393                     	;# 
   239  0394                     	;# 
   240  0395                     	;# 
   241  0396                     	;# 
   242  0397                     	;# 
   243  0398                     	;# 
   244  0399                     	;# 
   245  039D                     	;# 
   246  039E                     	;# 
   247  039F                     	;# 
   248  0511                     	;# 
   249  0513                     	;# 
   250  0515                     	;# 
   251  051A                     	;# 
   252  0591                     	;# 
   253  0592                     	;# 
   254  0592                     	;# 
   255  0593                     	;# 
   256  0594                     	;# 
   257  0594                     	;# 
   258  0595                     	;# 
   259  0596                     	;# 
   260  0596                     	;# 
   261  0E91                     	;# 
   262  0E92                     	;# 
   263  0E93                     	;# 
   264  0E94                     	;# 
   265  0E95                     	;# 
   266  0E96                     	;# 
   267  0E97                     	;# 
   268  0E98                     	;# 
   269  0E99                     	;# 
   270  0E9A                     	;# 
   271  0E9B                     	;# 
   272  0E9C                     	;# 
   273  0E9D                     	;# 
   274  0E9E                     	;# 
   275  0E9F                     	;# 
   276  0EA0                     	;# 
   277  0EA1                     	;# 
   278  0EA1                     	;# 
   279  0EA2                     	;# 
   280  0EA3                     	;# 
   281  0EA3                     	;# 
   282  0EA4                     	;# 
   283  0EA5                     	;# 
   284  0EA5                     	;# 
   285  0EA6                     	;# 
   286  0EA7                     	;# 
   287  0EA7                     	;# 
   288  0EA8                     	;# 
   289  0EA9                     	;# 
   290  0EAA                     	;# 
   291  0EAB                     	;# 
   292  0EAC                     	;# 
   293  0EAD                     	;# 
   294  0EAE                     	;# 
   295  0EAF                     	;# 
   296  0EB1                     	;# 
   297  0EB2                     	;# 
   298  0EB3                     	;# 
   299  0EB4                     	;# 
   300  0EB5                     	;# 
   301  0EB6                     	;# 
   302  0EB7                     	;# 
   303  0EB8                     	;# 
   304  0EB9                     	;# 
   305  0EBA                     	;# 
   306  0EBB                     	;# 
   307  0EBC                     	;# 
   308  0EBD                     	;# 
   309  0EBE                     	;# 
   310  0EBF                     	;# 
   311  0EC0                     	;# 
   312  0EC1                     	;# 
   313  0EC1                     	;# 
   314  0EC2                     	;# 
   315  0EC3                     	;# 
   316  0EC3                     	;# 
   317  0EC4                     	;# 
   318  0EC5                     	;# 
   319  0EC5                     	;# 
   320  0EC6                     	;# 
   321  0EC7                     	;# 
   322  0EC7                     	;# 
   323  0EC8                     	;# 
   324  0EC9                     	;# 
   325  0ECA                     	;# 
   326  0ECB                     	;# 
   327  0ECC                     	;# 
   328  0ECD                     	;# 
   329  0ECE                     	;# 
   330  0ECF                     	;# 
   331  0ED1                     	;# 
   332  0ED2                     	;# 
   333  0ED3                     	;# 
   334  0ED4                     	;# 
   335  0ED5                     	;# 
   336  0ED6                     	;# 
   337  0ED7                     	;# 
   338  0ED8                     	;# 
   339  0ED9                     	;# 
   340  0EDA                     	;# 
   341  0EDB                     	;# 
   342  0EDC                     	;# 
   343  0EDD                     	;# 
   344  0EDE                     	;# 
   345  0EDF                     	;# 
   346  0EE0                     	;# 
   347  0EE1                     	;# 
   348  0EE1                     	;# 
   349  0EE2                     	;# 
   350  0EE3                     	;# 
   351  0EE3                     	;# 
   352  0EE4                     	;# 
   353  0EE5                     	;# 
   354  0EE5                     	;# 
   355  0EE6                     	;# 
   356  0EE7                     	;# 
   357  0EE7                     	;# 
   358  0EE8                     	;# 
   359  0EE9                     	;# 
   360  0EEA                     	;# 
   361  0EEB                     	;# 
   362  0EEC                     	;# 
   363  0EED                     	;# 
   364  0EEE                     	;# 
   365  0EEF                     	;# 
   366  0F11                     	;# 
   367  0F12                     	;# 
   368  0F13                     	;# 
   369  0F14                     	;# 
   370  0F15                     	;# 
   371  0F16                     	;# 
   372  0F17                     	;# 
   373  0F18                     	;# 
   374  0F19                     	;# 
   375  0F1A                     	;# 
   376  0F1B                     	;# 
   377  0F1C                     	;# 
   378  0F1D                     	;# 
   379  0F1E                     	;# 
   380  0F1F                     	;# 
   381  0F20                     	;# 
   382  0F21                     	;# 
   383  0F21                     	;# 
   384  0F22                     	;# 
   385  0F23                     	;# 
   386  0F23                     	;# 
   387  0F24                     	;# 
   388  0F25                     	;# 
   389  0F25                     	;# 
   390  0F26                     	;# 
   391  0F27                     	;# 
   392  0F27                     	;# 
   393  0F28                     	;# 
   394  0F29                     	;# 
   395  0F2A                     	;# 
   396  0F2B                     	;# 
   397  0F2C                     	;# 
   398  0F2D                     	;# 
   399  0F2E                     	;# 
   400  0F2F                     	;# 
   401  0FE4                     	;# 
   402  0FE5                     	;# 
   403  0FE6                     	;# 
   404  0FE7                     	;# 
   405  0FE8                     	;# 
   406  0FE9                     	;# 
   407  0FEA                     	;# 
   408  0FEB                     	;# 
   409  0FED                     	;# 
   410  0FEE                     	;# 
   411  0FEF                     	;# 
   412  0000                     	;# 
   413  0001                     	;# 
   414  0002                     	;# 
   415  0003                     	;# 
   416  0004                     	;# 
   417  0005                     	;# 
   418  0006                     	;# 
   419  0007                     	;# 
   420  0008                     	;# 
   421  0009                     	;# 
   422  000A                     	;# 
   423  000B                     	;# 
   424  000C                     	;# 
   425  000D                     	;# 
   426  000E                     	;# 
   427  000F                     	;# 
   428  0010                     	;# 
   429  0011                     	;# 
   430  0012                     	;# 
   431  0013                     	;# 
   432  0014                     	;# 
   433  0015                     	;# 
   434  0016                     	;# 
   435  0016                     	;# 
   436  0017                     	;# 
   437  0018                     	;# 
   438  0019                     	;# 
   439  001A                     	;# 
   440  001B                     	;# 
   441  001C                     	;# 
   442  008C                     	;# 
   443  008D                     	;# 
   444  008E                     	;# 
   445  008F                     	;# 
   446  0090                     	;# 
   447  0091                     	;# 
   448  0092                     	;# 
   449  0093                     	;# 
   450  0094                     	;# 
   451  0095                     	;# 
   452  0096                     	;# 
   453  0097                     	;# 
   454  0098                     	;# 
   455  0099                     	;# 
   456  009A                     	;# 
   457  009B                     	;# 
   458  009B                     	;# 
   459  009C                     	;# 
   460  009D                     	;# 
   461  009E                     	;# 
   462  009F                     	;# 
   463  010C                     	;# 
   464  010D                     	;# 
   465  010E                     	;# 
   466  010F                     	;# 
   467  0110                     	;# 
   468  0111                     	;# 
   469  0112                     	;# 
   470  0113                     	;# 
   471  0114                     	;# 
   472  0115                     	;# 
   473  0116                     	;# 
   474  0117                     	;# 
   475  0118                     	;# 
   476  0119                     	;# 
   477  011A                     	;# 
   478  011B                     	;# 
   479  011C                     	;# 
   480  011D                     	;# 
   481  011D                     	;# 
   482  011D                     	;# 
   483  011E                     	;# 
   484  011F                     	;# 
   485  018C                     	;# 
   486  018D                     	;# 
   487  018E                     	;# 
   488  018F                     	;# 
   489  0190                     	;# 
   490  0191                     	;# 
   491  0191                     	;# 
   492  0192                     	;# 
   493  0193                     	;# 
   494  0193                     	;# 
   495  0193                     	;# 
   496  0194                     	;# 
   497  0195                     	;# 
   498  0196                     	;# 
   499  0197                     	;# 
   500  0199                     	;# 
   501  0199                     	;# 
   502  0199                     	;# 
   503  019A                     	;# 
   504  019A                     	;# 
   505  019A                     	;# 
   506  019B                     	;# 
   507  019B                     	;# 
   508  019B                     	;# 
   509  019B                     	;# 
   510  019B                     	;# 
   511  019C                     	;# 
   512  019C                     	;# 
   513  019C                     	;# 
   514  019D                     	;# 
   515  019D                     	;# 
   516  019D                     	;# 
   517  019E                     	;# 
   518  019E                     	;# 
   519  019E                     	;# 
   520  019F                     	;# 
   521  019F                     	;# 
   522  019F                     	;# 
   523  019F                     	;# 
   524  019F                     	;# 
   525  020C                     	;# 
   526  020D                     	;# 
   527  020E                     	;# 
   528  020F                     	;# 
   529  0210                     	;# 
   530  0211                     	;# 
   531  0211                     	;# 
   532  0212                     	;# 
   533  0212                     	;# 
   534  0213                     	;# 
   535  0213                     	;# 
   536  0214                     	;# 
   537  0214                     	;# 
   538  0215                     	;# 
   539  0215                     	;# 
   540  0215                     	;# 
   541  0215                     	;# 
   542  0216                     	;# 
   543  0216                     	;# 
   544  0217                     	;# 
   545  0217                     	;# 
   546  028C                     	;# 
   547  028D                     	;# 
   548  028E                     	;# 
   549  028F                     	;# 
   550  0290                     	;# 
   551  0291                     	;# 
   552  0291                     	;# 
   553  0292                     	;# 
   554  0293                     	;# 
   555  0298                     	;# 
   556  0298                     	;# 
   557  0299                     	;# 
   558  029A                     	;# 
   559  030C                     	;# 
   560  030D                     	;# 
   561  030E                     	;# 
   562  030F                     	;# 
   563  0310                     	;# 
   564  0311                     	;# 
   565  0311                     	;# 
   566  0312                     	;# 
   567  0313                     	;# 
   568  038C                     	;# 
   569  038D                     	;# 
   570  038E                     	;# 
   571  038F                     	;# 
   572  0390                     	;# 
   573  0391                     	;# 
   574  0392                     	;# 
   575  0393                     	;# 
   576  0394                     	;# 
   577  0395                     	;# 
   578  0396                     	;# 
   579  0397                     	;# 
   580  0398                     	;# 
   581  0399                     	;# 
   582  039D                     	;# 
   583  039E                     	;# 
   584  039F                     	;# 
   585  0511                     	;# 
   586  0513                     	;# 
   587  0515                     	;# 
   588  051A                     	;# 
   589  0591                     	;# 
   590  0592                     	;# 
   591  0592                     	;# 
   592  0593                     	;# 
   593  0594                     	;# 
   594  0594                     	;# 
   595  0595                     	;# 
   596  0596                     	;# 
   597  0596                     	;# 
   598  0E91                     	;# 
   599  0E92                     	;# 
   600  0E93                     	;# 
   601  0E94                     	;# 
   602  0E95                     	;# 
   603  0E96                     	;# 
   604  0E97                     	;# 
   605  0E98                     	;# 
   606  0E99                     	;# 
   607  0E9A                     	;# 
   608  0E9B                     	;# 
   609  0E9C                     	;# 
   610  0E9D                     	;# 
   611  0E9E                     	;# 
   612  0E9F                     	;# 
   613  0EA0                     	;# 
   614  0EA1                     	;# 
   615  0EA1                     	;# 
   616  0EA2                     	;# 
   617  0EA3                     	;# 
   618  0EA3                     	;# 
   619  0EA4                     	;# 
   620  0EA5                     	;# 
   621  0EA5                     	;# 
   622  0EA6                     	;# 
   623  0EA7                     	;# 
   624  0EA7                     	;# 
   625  0EA8                     	;# 
   626  0EA9                     	;# 
   627  0EAA                     	;# 
   628  0EAB                     	;# 
   629  0EAC                     	;# 
   630  0EAD                     	;# 
   631  0EAE                     	;# 
   632  0EAF                     	;# 
   633  0EB1                     	;# 
   634  0EB2                     	;# 
   635  0EB3                     	;# 
   636  0EB4                     	;# 
   637  0EB5                     	;# 
   638  0EB6                     	;# 
   639  0EB7                     	;# 
   640  0EB8                     	;# 
   641  0EB9                     	;# 
   642  0EBA                     	;# 
   643  0EBB                     	;# 
   644  0EBC                     	;# 
   645  0EBD                     	;# 
   646  0EBE                     	;# 
   647  0EBF                     	;# 
   648  0EC0                     	;# 
   649  0EC1                     	;# 
   650  0EC1                     	;# 
   651  0EC2                     	;# 
   652  0EC3                     	;# 
   653  0EC3                     	;# 
   654  0EC4                     	;# 
   655  0EC5                     	;# 
   656  0EC5                     	;# 
   657  0EC6                     	;# 
   658  0EC7                     	;# 
   659  0EC7                     	;# 
   660  0EC8                     	;# 
   661  0EC9                     	;# 
   662  0ECA                     	;# 
   663  0ECB                     	;# 
   664  0ECC                     	;# 
   665  0ECD                     	;# 
   666  0ECE                     	;# 
   667  0ECF                     	;# 
   668  0ED1                     	;# 
   669  0ED2                     	;# 
   670  0ED3                     	;# 
   671  0ED4                     	;# 
   672  0ED5                     	;# 
   673  0ED6                     	;# 
   674  0ED7                     	;# 
   675  0ED8                     	;# 
   676  0ED9                     	;# 
   677  0EDA                     	;# 
   678  0EDB                     	;# 
   679  0EDC                     	;# 
   680  0EDD                     	;# 
   681  0EDE                     	;# 
   682  0EDF                     	;# 
   683  0EE0                     	;# 
   684  0EE1                     	;# 
   685  0EE1                     	;# 
   686  0EE2                     	;# 
   687  0EE3                     	;# 
   688  0EE3                     	;# 
   689  0EE4                     	;# 
   690  0EE5                     	;# 
   691  0EE5                     	;# 
   692  0EE6                     	;# 
   693  0EE7                     	;# 
   694  0EE7                     	;# 
   695  0EE8                     	;# 
   696  0EE9                     	;# 
   697  0EEA                     	;# 
   698  0EEB                     	;# 
   699  0EEC                     	;# 
   700  0EED                     	;# 
   701  0EEE                     	;# 
   702  0EEF                     	;# 
   703  0F11                     	;# 
   704  0F12                     	;# 
   705  0F13                     	;# 
   706  0F14                     	;# 
   707  0F15                     	;# 
   708  0F16                     	;# 
   709  0F17                     	;# 
   710  0F18                     	;# 
   711  0F19                     	;# 
   712  0F1A                     	;# 
   713  0F1B                     	;# 
   714  0F1C                     	;# 
   715  0F1D                     	;# 
   716  0F1E                     	;# 
   717  0F1F                     	;# 
   718  0F20                     	;# 
   719  0F21                     	;# 
   720  0F21                     	;# 
   721  0F22                     	;# 
   722  0F23                     	;# 
   723  0F23                     	;# 
   724  0F24                     	;# 
   725  0F25                     	;# 
   726  0F25                     	;# 
   727  0F26                     	;# 
   728  0F27                     	;# 
   729  0F27                     	;# 
   730  0F28                     	;# 
   731  0F29                     	;# 
   732  0F2A                     	;# 
   733  0F2B                     	;# 
   734  0F2C                     	;# 
   735  0F2D                     	;# 
   736  0F2E                     	;# 
   737  0F2F                     	;# 
   738  0FE4                     	;# 
   739  0FE5                     	;# 
   740  0FE6                     	;# 
   741  0FE7                     	;# 
   742  0FE8                     	;# 
   743  0FE9                     	;# 
   744  0FEA                     	;# 
   745  0FEB                     	;# 
   746  0FED                     	;# 
   747  0FEE                     	;# 
   748  0FEF                     	;# 
   749  0000                     	;# 
   750  0001                     	;# 
   751  0002                     	;# 
   752  0003                     	;# 
   753  0004                     	;# 
   754  0005                     	;# 
   755  0006                     	;# 
   756  0007                     	;# 
   757  0008                     	;# 
   758  0009                     	;# 
   759  000A                     	;# 
   760  000B                     	;# 
   761  000C                     	;# 
   762  000D                     	;# 
   763  000E                     	;# 
   764  000F                     	;# 
   765  0010                     	;# 
   766  0011                     	;# 
   767  0012                     	;# 
   768  0013                     	;# 
   769  0014                     	;# 
   770  0015                     	;# 
   771  0016                     	;# 
   772  0016                     	;# 
   773  0017                     	;# 
   774  0018                     	;# 
   775  0019                     	;# 
   776  001A                     	;# 
   777  001B                     	;# 
   778  001C                     	;# 
   779  008C                     	;# 
   780  008D                     	;# 
   781  008E                     	;# 
   782  008F                     	;# 
   783  0090                     	;# 
   784  0091                     	;# 
   785  0092                     	;# 
   786  0093                     	;# 
   787  0094                     	;# 
   788  0095                     	;# 
   789  0096                     	;# 
   790  0097                     	;# 
   791  0098                     	;# 
   792  0099                     	;# 
   793  009A                     	;# 
   794  009B                     	;# 
   795  009B                     	;# 
   796  009C                     	;# 
   797  009D                     	;# 
   798  009E                     	;# 
   799  009F                     	;# 
   800  010C                     	;# 
   801  010D                     	;# 
   802  010E                     	;# 
   803  010F                     	;# 
   804  0110                     	;# 
   805  0111                     	;# 
   806  0112                     	;# 
   807  0113                     	;# 
   808  0114                     	;# 
   809  0115                     	;# 
   810  0116                     	;# 
   811  0117                     	;# 
   812  0118                     	;# 
   813  0119                     	;# 
   814  011A                     	;# 
   815  011B                     	;# 
   816  011C                     	;# 
   817  011D                     	;# 
   818  011D                     	;# 
   819  011D                     	;# 
   820  011E                     	;# 
   821  011F                     	;# 
   822  018C                     	;# 
   823  018D                     	;# 
   824  018E                     	;# 
   825  018F                     	;# 
   826  0190                     	;# 
   827  0191                     	;# 
   828  0191                     	;# 
   829  0192                     	;# 
   830  0193                     	;# 
   831  0193                     	;# 
   832  0193                     	;# 
   833  0194                     	;# 
   834  0195                     	;# 
   835  0196                     	;# 
   836  0197                     	;# 
   837  0199                     	;# 
   838  0199                     	;# 
   839  0199                     	;# 
   840  019A                     	;# 
   841  019A                     	;# 
   842  019A                     	;# 
   843  019B                     	;# 
   844  019B                     	;# 
   845  019B                     	;# 
   846  019B                     	;# 
   847  019B                     	;# 
   848  019C                     	;# 
   849  019C                     	;# 
   850  019C                     	;# 
   851  019D                     	;# 
   852  019D                     	;# 
   853  019D                     	;# 
   854  019E                     	;# 
   855  019E                     	;# 
   856  019E                     	;# 
   857  019F                     	;# 
   858  019F                     	;# 
   859  019F                     	;# 
   860  019F                     	;# 
   861  019F                     	;# 
   862  020C                     	;# 
   863  020D                     	;# 
   864  020E                     	;# 
   865  020F                     	;# 
   866  0210                     	;# 
   867  0211                     	;# 
   868  0211                     	;# 
   869  0212                     	;# 
   870  0212                     	;# 
   871  0213                     	;# 
   872  0213                     	;# 
   873  0214                     	;# 
   874  0214                     	;# 
   875  0215                     	;# 
   876  0215                     	;# 
   877  0215                     	;# 
   878  0215                     	;# 
   879  0216                     	;# 
   880  0216                     	;# 
   881  0217                     	;# 
   882  0217                     	;# 
   883  028C                     	;# 
   884  028D                     	;# 
   885  028E                     	;# 
   886  028F                     	;# 
   887  0290                     	;# 
   888  0291                     	;# 
   889  0291                     	;# 
   890  0292                     	;# 
   891  0293                     	;# 
   892  0298                     	;# 
   893  0298                     	;# 
   894  0299                     	;# 
   895  029A                     	;# 
   896  030C                     	;# 
   897  030D                     	;# 
   898  030E                     	;# 
   899  030F                     	;# 
   900  0310                     	;# 
   901  0311                     	;# 
   902  0311                     	;# 
   903  0312                     	;# 
   904  0313                     	;# 
   905  038C                     	;# 
   906  038D                     	;# 
   907  038E                     	;# 
   908  038F                     	;# 
   909  0390                     	;# 
   910  0391                     	;# 
   911  0392                     	;# 
   912  0393                     	;# 
   913  0394                     	;# 
   914  0395                     	;# 
   915  0396                     	;# 
   916  0397                     	;# 
   917  0398                     	;# 
   918  0399                     	;# 
   919  039D                     	;# 
   920  039E                     	;# 
   921  039F                     	;# 
   922  0511                     	;# 
   923  0513                     	;# 
   924  0515                     	;# 
   925  051A                     	;# 
   926  0591                     	;# 
   927  0592                     	;# 
   928  0592                     	;# 
   929  0593                     	;# 
   930  0594                     	;# 
   931  0594                     	;# 
   932  0595                     	;# 
   933  0596                     	;# 
   934  0596                     	;# 
   935  0E91                     	;# 
   936  0E92                     	;# 
   937  0E93                     	;# 
   938  0E94                     	;# 
   939  0E95                     	;# 
   940  0E96                     	;# 
   941  0E97                     	;# 
   942  0E98                     	;# 
   943  0E99                     	;# 
   944  0E9A                     	;# 
   945  0E9B                     	;# 
   946  0E9C                     	;# 
   947  0E9D                     	;# 
   948  0E9E                     	;# 
   949  0E9F                     	;# 
   950  0EA0                     	;# 
   951  0EA1                     	;# 
   952  0EA1                     	;# 
   953  0EA2                     	;# 
   954  0EA3                     	;# 
   955  0EA3                     	;# 
   956  0EA4                     	;# 
   957  0EA5                     	;# 
   958  0EA5                     	;# 
   959  0EA6                     	;# 
   960  0EA7                     	;# 
   961  0EA7                     	;# 
   962  0EA8                     	;# 
   963  0EA9                     	;# 
   964  0EAA                     	;# 
   965  0EAB                     	;# 
   966  0EAC                     	;# 
   967  0EAD                     	;# 
   968  0EAE                     	;# 
   969  0EAF                     	;# 
   970  0EB1                     	;# 
   971  0EB2                     	;# 
   972  0EB3                     	;# 
   973  0EB4                     	;# 
   974  0EB5                     	;# 
   975  0EB6                     	;# 
   976  0EB7                     	;# 
   977  0EB8                     	;# 
   978  0EB9                     	;# 
   979  0EBA                     	;# 
   980  0EBB                     	;# 
   981  0EBC                     	;# 
   982  0EBD                     	;# 
   983  0EBE                     	;# 
   984  0EBF                     	;# 
   985  0EC0                     	;# 
   986  0EC1                     	;# 
   987  0EC1                     	;# 
   988  0EC2                     	;# 
   989  0EC3                     	;# 
   990  0EC3                     	;# 
   991  0EC4                     	;# 
   992  0EC5                     	;# 
   993  0EC5                     	;# 
   994  0EC6                     	;# 
   995  0EC7                     	;# 
   996  0EC7                     	;# 
   997  0EC8                     	;# 
   998  0EC9                     	;# 
   999  0ECA                     	;# 
  1000  0ECB                     	;# 
  1001  0ECC                     	;# 
  1002  0ECD                     	;# 
  1003  0ECE                     	;# 
  1004  0ECF                     	;# 
  1005  0ED1                     	;# 
  1006  0ED2                     	;# 
  1007  0ED3                     	;# 
  1008  0ED4                     	;# 
  1009  0ED5                     	;# 
  1010  0ED6                     	;# 
  1011  0ED7                     	;# 
  1012  0ED8                     	;# 
  1013  0ED9                     	;# 
  1014  0EDA                     	;# 
  1015  0EDB                     	;# 
  1016  0EDC                     	;# 
  1017  0EDD                     	;# 
  1018  0EDE                     	;# 
  1019  0EDF                     	;# 
  1020  0EE0                     	;# 
  1021  0EE1                     	;# 
  1022  0EE1                     	;# 
  1023  0EE2                     	;# 
  1024  0EE3                     	;# 
  1025  0EE3                     	;# 
  1026  0EE4                     	;# 
  1027  0EE5                     	;# 
  1028  0EE5                     	;# 
  1029  0EE6                     	;# 
  1030  0EE7                     	;# 
  1031  0EE7                     	;# 
  1032  0EE8                     	;# 
  1033  0EE9                     	;# 
  1034  0EEA                     	;# 
  1035  0EEB                     	;# 
  1036  0EEC                     	;# 
  1037  0EED                     	;# 
  1038  0EEE                     	;# 
  1039  0EEF                     	;# 
  1040  0F11                     	;# 
  1041  0F12                     	;# 
  1042  0F13                     	;# 
  1043  0F14                     	;# 
  1044  0F15                     	;# 
  1045  0F16                     	;# 
  1046  0F17                     	;# 
  1047  0F18                     	;# 
  1048  0F19                     	;# 
  1049  0F1A                     	;# 
  1050  0F1B                     	;# 
  1051  0F1C                     	;# 
  1052  0F1D                     	;# 
  1053  0F1E                     	;# 
  1054  0F1F                     	;# 
  1055  0F20                     	;# 
  1056  0F21                     	;# 
  1057  0F21                     	;# 
  1058  0F22                     	;# 
  1059  0F23                     	;# 
  1060  0F23                     	;# 
  1061  0F24                     	;# 
  1062  0F25                     	;# 
  1063  0F25                     	;# 
  1064  0F26                     	;# 
  1065  0F27                     	;# 
  1066  0F27                     	;# 
  1067  0F28                     	;# 
  1068  0F29                     	;# 
  1069  0F2A                     	;# 
  1070  0F2B                     	;# 
  1071  0F2C                     	;# 
  1072  0F2D                     	;# 
  1073  0F2E                     	;# 
  1074  0F2F                     	;# 
  1075  0FE4                     	;# 
  1076  0FE5                     	;# 
  1077  0FE6                     	;# 
  1078  0FE7                     	;# 
  1079  0FE8                     	;# 
  1080  0FE9                     	;# 
  1081  0FEA                     	;# 
  1082  0FEB                     	;# 
  1083  0FED                     	;# 
  1084  0FEE                     	;# 
  1085  0FEF                     	;# 
  1086  0000                     	;# 
  1087  0001                     	;# 
  1088  0002                     	;# 
  1089  0003                     	;# 
  1090  0004                     	;# 
  1091  0005                     	;# 
  1092  0006                     	;# 
  1093  0007                     	;# 
  1094  0008                     	;# 
  1095  0009                     	;# 
  1096  000A                     	;# 
  1097  000B                     	;# 
  1098  000C                     	;# 
  1099  000D                     	;# 
  1100  000E                     	;# 
  1101  000F                     	;# 
  1102  0010                     	;# 
  1103  0011                     	;# 
  1104  0012                     	;# 
  1105  0013                     	;# 
  1106  0014                     	;# 
  1107  0015                     	;# 
  1108  0016                     	;# 
  1109  0016                     	;# 
  1110  0017                     	;# 
  1111  0018                     	;# 
  1112  0019                     	;# 
  1113  001A                     	;# 
  1114  001B                     	;# 
  1115  001C                     	;# 
  1116  008C                     	;# 
  1117  008D                     	;# 
  1118  008E                     	;# 
  1119  008F                     	;# 
  1120  0090                     	;# 
  1121  0091                     	;# 
  1122  0092                     	;# 
  1123  0093                     	;# 
  1124  0094                     	;# 
  1125  0095                     	;# 
  1126  0096                     	;# 
  1127  0097                     	;# 
  1128  0098                     	;# 
  1129  0099                     	;# 
  1130  009A                     	;# 
  1131  009B                     	;# 
  1132  009B                     	;# 
  1133  009C                     	;# 
  1134  009D                     	;# 
  1135  009E                     	;# 
  1136  009F                     	;# 
  1137  010C                     	;# 
  1138  010D                     	;# 
  1139  010E                     	;# 
  1140  010F                     	;# 
  1141  0110                     	;# 
  1142  0111                     	;# 
  1143  0112                     	;# 
  1144  0113                     	;# 
  1145  0114                     	;# 
  1146  0115                     	;# 
  1147  0116                     	;# 
  1148  0117                     	;# 
  1149  0118                     	;# 
  1150  0119                     	;# 
  1151  011A                     	;# 
  1152  011B                     	;# 
  1153  011C                     	;# 
  1154  011D                     	;# 
  1155  011D                     	;# 
  1156  011D                     	;# 
  1157  011E                     	;# 
  1158  011F                     	;# 
  1159  018C                     	;# 
  1160  018D                     	;# 
  1161  018E                     	;# 
  1162  018F                     	;# 
  1163  0190                     	;# 
  1164  0191                     	;# 
  1165  0191                     	;# 
  1166  0192                     	;# 
  1167  0193                     	;# 
  1168  0193                     	;# 
  1169  0193                     	;# 
  1170  0194                     	;# 
  1171  0195                     	;# 
  1172  0196                     	;# 
  1173  0197                     	;# 
  1174  0199                     	;# 
  1175  0199                     	;# 
  1176  0199                     	;# 
  1177  019A                     	;# 
  1178  019A                     	;# 
  1179  019A                     	;# 
  1180  019B                     	;# 
  1181  019B                     	;# 
  1182  019B                     	;# 
  1183  019B                     	;# 
  1184  019B                     	;# 
  1185  019C                     	;# 
  1186  019C                     	;# 
  1187  019C                     	;# 
  1188  019D                     	;# 
  1189  019D                     	;# 
  1190  019D                     	;# 
  1191  019E                     	;# 
  1192  019E                     	;# 
  1193  019E                     	;# 
  1194  019F                     	;# 
  1195  019F                     	;# 
  1196  019F                     	;# 
  1197  019F                     	;# 
  1198  019F                     	;# 
  1199  020C                     	;# 
  1200  020D                     	;# 
  1201  020E                     	;# 
  1202  020F                     	;# 
  1203  0210                     	;# 
  1204  0211                     	;# 
  1205  0211                     	;# 
  1206  0212                     	;# 
  1207  0212                     	;# 
  1208  0213                     	;# 
  1209  0213                     	;# 
  1210  0214                     	;# 
  1211  0214                     	;# 
  1212  0215                     	;# 
  1213  0215                     	;# 
  1214  0215                     	;# 
  1215  0215                     	;# 
  1216  0216                     	;# 
  1217  0216                     	;# 
  1218  0217                     	;# 
  1219  0217                     	;# 
  1220  028C                     	;# 
  1221  028D                     	;# 
  1222  028E                     	;# 
  1223  028F                     	;# 
  1224  0290                     	;# 
  1225  0291                     	;# 
  1226  0291                     	;# 
  1227  0292                     	;# 
  1228  0293                     	;# 
  1229  0298                     	;# 
  1230  0298                     	;# 
  1231  0299                     	;# 
  1232  029A                     	;# 
  1233  030C                     	;# 
  1234  030D                     	;# 
  1235  030E                     	;# 
  1236  030F                     	;# 
  1237  0310                     	;# 
  1238  0311                     	;# 
  1239  0311                     	;# 
  1240  0312                     	;# 
  1241  0313                     	;# 
  1242  038C                     	;# 
  1243  038D                     	;# 
  1244  038E                     	;# 
  1245  038F                     	;# 
  1246  0390                     	;# 
  1247  0391                     	;# 
  1248  0392                     	;# 
  1249  0393                     	;# 
  1250  0394                     	;# 
  1251  0395                     	;# 
  1252  0396                     	;# 
  1253  0397                     	;# 
  1254  0398                     	;# 
  1255  0399                     	;# 
  1256  039D                     	;# 
  1257  039E                     	;# 
  1258  039F                     	;# 
  1259  0511                     	;# 
  1260  0513                     	;# 
  1261  0515                     	;# 
  1262  051A                     	;# 
  1263  0591                     	;# 
  1264  0592                     	;# 
  1265  0592                     	;# 
  1266  0593                     	;# 
  1267  0594                     	;# 
  1268  0594                     	;# 
  1269  0595                     	;# 
  1270  0596                     	;# 
  1271  0596                     	;# 
  1272  0E91                     	;# 
  1273  0E92                     	;# 
  1274  0E93                     	;# 
  1275  0E94                     	;# 
  1276  0E95                     	;# 
  1277  0E96                     	;# 
  1278  0E97                     	;# 
  1279  0E98                     	;# 
  1280  0E99                     	;# 
  1281  0E9A                     	;# 
  1282  0E9B                     	;# 
  1283  0E9C                     	;# 
  1284  0E9D                     	;# 
  1285  0E9E                     	;# 
  1286  0E9F                     	;# 
  1287  0EA0                     	;# 
  1288  0EA1                     	;# 
  1289  0EA1                     	;# 
  1290  0EA2                     	;# 
  1291  0EA3                     	;# 
  1292  0EA3                     	;# 
  1293  0EA4                     	;# 
  1294  0EA5                     	;# 
  1295  0EA5                     	;# 
  1296  0EA6                     	;# 
  1297  0EA7                     	;# 
  1298  0EA7                     	;# 
  1299  0EA8                     	;# 
  1300  0EA9                     	;# 
  1301  0EAA                     	;# 
  1302  0EAB                     	;# 
  1303  0EAC                     	;# 
  1304  0EAD                     	;# 
  1305  0EAE                     	;# 
  1306  0EAF                     	;# 
  1307  0EB1                     	;# 
  1308  0EB2                     	;# 
  1309  0EB3                     	;# 
  1310  0EB4                     	;# 
  1311  0EB5                     	;# 
  1312  0EB6                     	;# 
  1313  0EB7                     	;# 
  1314  0EB8                     	;# 
  1315  0EB9                     	;# 
  1316  0EBA                     	;# 
  1317  0EBB                     	;# 
  1318  0EBC                     	;# 
  1319  0EBD                     	;# 
  1320  0EBE                     	;# 
  1321  0EBF                     	;# 
  1322  0EC0                     	;# 
  1323  0EC1                     	;# 
  1324  0EC1                     	;# 
  1325  0EC2                     	;# 
  1326  0EC3                     	;# 
  1327  0EC3                     	;# 
  1328  0EC4                     	;# 
  1329  0EC5                     	;# 
  1330  0EC5                     	;# 
  1331  0EC6                     	;# 
  1332  0EC7                     	;# 
  1333  0EC7                     	;# 
  1334  0EC8                     	;# 
  1335  0EC9                     	;# 
  1336  0ECA                     	;# 
  1337  0ECB                     	;# 
  1338  0ECC                     	;# 
  1339  0ECD                     	;# 
  1340  0ECE                     	;# 
  1341  0ECF                     	;# 
  1342  0ED1                     	;# 
  1343  0ED2                     	;# 
  1344  0ED3                     	;# 
  1345  0ED4                     	;# 
  1346  0ED5                     	;# 
  1347  0ED6                     	;# 
  1348  0ED7                     	;# 
  1349  0ED8                     	;# 
  1350  0ED9                     	;# 
  1351  0EDA                     	;# 
  1352  0EDB                     	;# 
  1353  0EDC                     	;# 
  1354  0EDD                     	;# 
  1355  0EDE                     	;# 
  1356  0EDF                     	;# 
  1357  0EE0                     	;# 
  1358  0EE1                     	;# 
  1359  0EE1                     	;# 
  1360  0EE2                     	;# 
  1361  0EE3                     	;# 
  1362  0EE3                     	;# 
  1363  0EE4                     	;# 
  1364  0EE5                     	;# 
  1365  0EE5                     	;# 
  1366  0EE6                     	;# 
  1367  0EE7                     	;# 
  1368  0EE7                     	;# 
  1369  0EE8                     	;# 
  1370  0EE9                     	;# 
  1371  0EEA                     	;# 
  1372  0EEB                     	;# 
  1373  0EEC                     	;# 
  1374  0EED                     	;# 
  1375  0EEE                     	;# 
  1376  0EEF                     	;# 
  1377  0F11                     	;# 
  1378  0F12                     	;# 
  1379  0F13                     	;# 
  1380  0F14                     	;# 
  1381  0F15                     	;# 
  1382  0F16                     	;# 
  1383  0F17                     	;# 
  1384  0F18                     	;# 
  1385  0F19                     	;# 
  1386  0F1A                     	;# 
  1387  0F1B                     	;# 
  1388  0F1C                     	;# 
  1389  0F1D                     	;# 
  1390  0F1E                     	;# 
  1391  0F1F                     	;# 
  1392  0F20                     	;# 
  1393  0F21                     	;# 
  1394  0F21                     	;# 
  1395  0F22                     	;# 
  1396  0F23                     	;# 
  1397  0F23                     	;# 
  1398  0F24                     	;# 
  1399  0F25                     	;# 
  1400  0F25                     	;# 
  1401  0F26                     	;# 
  1402  0F27                     	;# 
  1403  0F27                     	;# 
  1404  0F28                     	;# 
  1405  0F29                     	;# 
  1406  0F2A                     	;# 
  1407  0F2B                     	;# 
  1408  0F2C                     	;# 
  1409  0F2D                     	;# 
  1410  0F2E                     	;# 
  1411  0F2F                     	;# 
  1412  0FE4                     	;# 
  1413  0FE5                     	;# 
  1414  0FE6                     	;# 
  1415  0FE7                     	;# 
  1416  0FE8                     	;# 
  1417  0FE9                     	;# 
  1418  0FEA                     	;# 
  1419  0FEB                     	;# 
  1420  0FED                     	;# 
  1421  0FEE                     	;# 
  1422  0FEF                     	;# 
  1423  0000                     	;# 
  1424  0001                     	;# 
  1425  0002                     	;# 
  1426  0003                     	;# 
  1427  0004                     	;# 
  1428  0005                     	;# 
  1429  0006                     	;# 
  1430  0007                     	;# 
  1431  0008                     	;# 
  1432  0009                     	;# 
  1433  000A                     	;# 
  1434  000B                     	;# 
  1435  000C                     	;# 
  1436  000D                     	;# 
  1437  000E                     	;# 
  1438  000F                     	;# 
  1439  0010                     	;# 
  1440  0011                     	;# 
  1441  0012                     	;# 
  1442  0013                     	;# 
  1443  0014                     	;# 
  1444  0015                     	;# 
  1445  0016                     	;# 
  1446  0016                     	;# 
  1447  0017                     	;# 
  1448  0018                     	;# 
  1449  0019                     	;# 
  1450  001A                     	;# 
  1451  001B                     	;# 
  1452  001C                     	;# 
  1453  008C                     	;# 
  1454  008D                     	;# 
  1455  008E                     	;# 
  1456  008F                     	;# 
  1457  0090                     	;# 
  1458  0091                     	;# 
  1459  0092                     	;# 
  1460  0093                     	;# 
  1461  0094                     	;# 
  1462  0095                     	;# 
  1463  0096                     	;# 
  1464  0097                     	;# 
  1465  0098                     	;# 
  1466  0099                     	;# 
  1467  009A                     	;# 
  1468  009B                     	;# 
  1469  009B                     	;# 
  1470  009C                     	;# 
  1471  009D                     	;# 
  1472  009E                     	;# 
  1473  009F                     	;# 
  1474  010C                     	;# 
  1475  010D                     	;# 
  1476  010E                     	;# 
  1477  010F                     	;# 
  1478  0110                     	;# 
  1479  0111                     	;# 
  1480  0112                     	;# 
  1481  0113                     	;# 
  1482  0114                     	;# 
  1483  0115                     	;# 
  1484  0116                     	;# 
  1485  0117                     	;# 
  1486  0118                     	;# 
  1487  0119                     	;# 
  1488  011A                     	;# 
  1489  011B                     	;# 
  1490  011C                     	;# 
  1491  011D                     	;# 
  1492  011D                     	;# 
  1493  011D                     	;# 
  1494  011E                     	;# 
  1495  011F                     	;# 
  1496  018C                     	;# 
  1497  018D                     	;# 
  1498  018E                     	;# 
  1499  018F                     	;# 
  1500  0190                     	;# 
  1501  0191                     	;# 
  1502  0191                     	;# 
  1503  0192                     	;# 
  1504  0193                     	;# 
  1505  0193                     	;# 
  1506  0193                     	;# 
  1507  0194                     	;# 
  1508  0195                     	;# 
  1509  0196                     	;# 
  1510  0197                     	;# 
  1511  0199                     	;# 
  1512  0199                     	;# 
  1513  0199                     	;# 
  1514  019A                     	;# 
  1515  019A                     	;# 
  1516  019A                     	;# 
  1517  019B                     	;# 
  1518  019B                     	;# 
  1519  019B                     	;# 
  1520  019B                     	;# 
  1521  019B                     	;# 
  1522  019C                     	;# 
  1523  019C                     	;# 
  1524  019C                     	;# 
  1525  019D                     	;# 
  1526  019D                     	;# 
  1527  019D                     	;# 
  1528  019E                     	;# 
  1529  019E                     	;# 
  1530  019E                     	;# 
  1531  019F                     	;# 
  1532  019F                     	;# 
  1533  019F                     	;# 
  1534  019F                     	;# 
  1535  019F                     	;# 
  1536  020C                     	;# 
  1537  020D                     	;# 
  1538  020E                     	;# 
  1539  020F                     	;# 
  1540  0210                     	;# 
  1541  0211                     	;# 
  1542  0211                     	;# 
  1543  0212                     	;# 
  1544  0212                     	;# 
  1545  0213                     	;# 
  1546  0213                     	;# 
  1547  0214                     	;# 
  1548  0214                     	;# 
  1549  0215                     	;# 
  1550  0215                     	;# 
  1551  0215                     	;# 
  1552  0215                     	;# 
  1553  0216                     	;# 
  1554  0216                     	;# 
  1555  0217                     	;# 
  1556  0217                     	;# 
  1557  028C                     	;# 
  1558  028D                     	;# 
  1559  028E                     	;# 
  1560  028F                     	;# 
  1561  0290                     	;# 
  1562  0291                     	;# 
  1563  0291                     	;# 
  1564  0292                     	;# 
  1565  0293                     	;# 
  1566  0298                     	;# 
  1567  0298                     	;# 
  1568  0299                     	;# 
  1569  029A                     	;# 
  1570  030C                     	;# 
  1571  030D                     	;# 
  1572  030E                     	;# 
  1573  030F                     	;# 
  1574  0310                     	;# 
  1575  0311                     	;# 
  1576  0311                     	;# 
  1577  0312                     	;# 
  1578  0313                     	;# 
  1579  038C                     	;# 
  1580  038D                     	;# 
  1581  038E                     	;# 
  1582  038F                     	;# 
  1583  0390                     	;# 
  1584  0391                     	;# 
  1585  0392                     	;# 
  1586  0393                     	;# 
  1587  0394                     	;# 
  1588  0395                     	;# 
  1589  0396                     	;# 
  1590  0397                     	;# 
  1591  0398                     	;# 
  1592  0399                     	;# 
  1593  039D                     	;# 
  1594  039E                     	;# 
  1595  039F                     	;# 
  1596  0511                     	;# 
  1597  0513                     	;# 
  1598  0515                     	;# 
  1599  051A                     	;# 
  1600  0591                     	;# 
  1601  0592                     	;# 
  1602  0592                     	;# 
  1603  0593                     	;# 
  1604  0594                     	;# 
  1605  0594                     	;# 
  1606  0595                     	;# 
  1607  0596                     	;# 
  1608  0596                     	;# 
  1609  0E91                     	;# 
  1610  0E92                     	;# 
  1611  0E93                     	;# 
  1612  0E94                     	;# 
  1613  0E95                     	;# 
  1614  0E96                     	;# 
  1615  0E97                     	;# 
  1616  0E98                     	;# 
  1617  0E99                     	;# 
  1618  0E9A                     	;# 
  1619  0E9B                     	;# 
  1620  0E9C                     	;# 
  1621  0E9D                     	;# 
  1622  0E9E                     	;# 
  1623  0E9F                     	;# 
  1624  0EA0                     	;# 
  1625  0EA1                     	;# 
  1626  0EA1                     	;# 
  1627  0EA2                     	;# 
  1628  0EA3                     	;# 
  1629  0EA3                     	;# 
  1630  0EA4                     	;# 
  1631  0EA5                     	;# 
  1632  0EA5                     	;# 
  1633  0EA6                     	;# 
  1634  0EA7                     	;# 
  1635  0EA7                     	;# 
  1636  0EA8                     	;# 
  1637  0EA9                     	;# 
  1638  0EAA                     	;# 
  1639  0EAB                     	;# 
  1640  0EAC                     	;# 
  1641  0EAD                     	;# 
  1642  0EAE                     	;# 
  1643  0EAF                     	;# 
  1644  0EB1                     	;# 
  1645  0EB2                     	;# 
  1646  0EB3                     	;# 
  1647  0EB4                     	;# 
  1648  0EB5                     	;# 
  1649  0EB6                     	;# 
  1650  0EB7                     	;# 
  1651  0EB8                     	;# 
  1652  0EB9                     	;# 
  1653  0EBA                     	;# 
  1654  0EBB                     	;# 
  1655  0EBC                     	;# 
  1656  0EBD                     	;# 
  1657  0EBE                     	;# 
  1658  0EBF                     	;# 
  1659  0EC0                     	;# 
  1660  0EC1                     	;# 
  1661  0EC1                     	;# 
  1662  0EC2                     	;# 
  1663  0EC3                     	;# 
  1664  0EC3                     	;# 
  1665  0EC4                     	;# 
  1666  0EC5                     	;# 
  1667  0EC5                     	;# 
  1668  0EC6                     	;# 
  1669  0EC7                     	;# 
  1670  0EC7                     	;# 
  1671  0EC8                     	;# 
  1672  0EC9                     	;# 
  1673  0ECA                     	;# 
  1674  0ECB                     	;# 
  1675  0ECC                     	;# 
  1676  0ECD                     	;# 
  1677  0ECE                     	;# 
  1678  0ECF                     	;# 
  1679  0ED1                     	;# 
  1680  0ED2                     	;# 
  1681  0ED3                     	;# 
  1682  0ED4                     	;# 
  1683  0ED5                     	;# 
  1684  0ED6                     	;# 
  1685  0ED7                     	;# 
  1686  0ED8                     	;# 
  1687  0ED9                     	;# 
  1688  0EDA                     	;# 
  1689  0EDB                     	;# 
  1690  0EDC                     	;# 
  1691  0EDD                     	;# 
  1692  0EDE                     	;# 
  1693  0EDF                     	;# 
  1694  0EE0                     	;# 
  1695  0EE1                     	;# 
  1696  0EE1                     	;# 
  1697  0EE2                     	;# 
  1698  0EE3                     	;# 
  1699  0EE3                     	;# 
  1700  0EE4                     	;# 
  1701  0EE5                     	;# 
  1702  0EE5                     	;# 
  1703  0EE6                     	;# 
  1704  0EE7                     	;# 
  1705  0EE7                     	;# 
  1706  0EE8                     	;# 
  1707  0EE9                     	;# 
  1708  0EEA                     	;# 
  1709  0EEB                     	;# 
  1710  0EEC                     	;# 
  1711  0EED                     	;# 
  1712  0EEE                     	;# 
  1713  0EEF                     	;# 
  1714  0F11                     	;# 
  1715  0F12                     	;# 
  1716  0F13                     	;# 
  1717  0F14                     	;# 
  1718  0F15                     	;# 
  1719  0F16                     	;# 
  1720  0F17                     	;# 
  1721  0F18                     	;# 
  1722  0F19                     	;# 
  1723  0F1A                     	;# 
  1724  0F1B                     	;# 
  1725  0F1C                     	;# 
  1726  0F1D                     	;# 
  1727  0F1E                     	;# 
  1728  0F1F                     	;# 
  1729  0F20                     	;# 
  1730  0F21                     	;# 
  1731  0F21                     	;# 
  1732  0F22                     	;# 
  1733  0F23                     	;# 
  1734  0F23                     	;# 
  1735  0F24                     	;# 
  1736  0F25                     	;# 
  1737  0F25                     	;# 
  1738  0F26                     	;# 
  1739  0F27                     	;# 
  1740  0F27                     	;# 
  1741  0F28                     	;# 
  1742  0F29                     	;# 
  1743  0F2A                     	;# 
  1744  0F2B                     	;# 
  1745  0F2C                     	;# 
  1746  0F2D                     	;# 
  1747  0F2E                     	;# 
  1748  0F2F                     	;# 
  1749  0FE4                     	;# 
  1750  0FE5                     	;# 
  1751  0FE6                     	;# 
  1752  0FE7                     	;# 
  1753  0FE8                     	;# 
  1754  0FE9                     	;# 
  1755  0FEA                     	;# 
  1756  0FEB                     	;# 
  1757  0FED                     	;# 
  1758  0FEE                     	;# 
  1759  0FEF                     	;# 
  1760  0000                     	;# 
  1761  0001                     	;# 
  1762  0002                     	;# 
  1763  0003                     	;# 
  1764  0004                     	;# 
  1765  0005                     	;# 
  1766  0006                     	;# 
  1767  0007                     	;# 
  1768  0008                     	;# 
  1769  0009                     	;# 
  1770  000A                     	;# 
  1771  000B                     	;# 
  1772  000C                     	;# 
  1773  000D                     	;# 
  1774  000E                     	;# 
  1775  000F                     	;# 
  1776  0010                     	;# 
  1777  0011                     	;# 
  1778  0012                     	;# 
  1779  0013                     	;# 
  1780  0014                     	;# 
  1781  0015                     	;# 
  1782  0016                     	;# 
  1783  0016                     	;# 
  1784  0017                     	;# 
  1785  0018                     	;# 
  1786  0019                     	;# 
  1787  001A                     	;# 
  1788  001B                     	;# 
  1789  001C                     	;# 
  1790  008C                     	;# 
  1791  008D                     	;# 
  1792  008E                     	;# 
  1793  008F                     	;# 
  1794  0090                     	;# 
  1795  0091                     	;# 
  1796  0092                     	;# 
  1797  0093                     	;# 
  1798  0094                     	;# 
  1799  0095                     	;# 
  1800  0096                     	;# 
  1801  0097                     	;# 
  1802  0098                     	;# 
  1803  0099                     	;# 
  1804  009A                     	;# 
  1805  009B                     	;# 
  1806  009B                     	;# 
  1807  009C                     	;# 
  1808  009D                     	;# 
  1809  009E                     	;# 
  1810  009F                     	;# 
  1811  010C                     	;# 
  1812  010D                     	;# 
  1813  010E                     	;# 
  1814  010F                     	;# 
  1815  0110                     	;# 
  1816  0111                     	;# 
  1817  0112                     	;# 
  1818  0113                     	;# 
  1819  0114                     	;# 
  1820  0115                     	;# 
  1821  0116                     	;# 
  1822  0117                     	;# 
  1823  0118                     	;# 
  1824  0119                     	;# 
  1825  011A                     	;# 
  1826  011B                     	;# 
  1827  011C                     	;# 
  1828  011D                     	;# 
  1829  011D                     	;# 
  1830  011D                     	;# 
  1831  011E                     	;# 
  1832  011F                     	;# 
  1833  018C                     	;# 
  1834  018D                     	;# 
  1835  018E                     	;# 
  1836  018F                     	;# 
  1837  0190                     	;# 
  1838  0191                     	;# 
  1839  0191                     	;# 
  1840  0192                     	;# 
  1841  0193                     	;# 
  1842  0193                     	;# 
  1843  0193                     	;# 
  1844  0194                     	;# 
  1845  0195                     	;# 
  1846  0196                     	;# 
  1847  0197                     	;# 
  1848  0199                     	;# 
  1849  0199                     	;# 
  1850  0199                     	;# 
  1851  019A                     	;# 
  1852  019A                     	;# 
  1853  019A                     	;# 
  1854  019B                     	;# 
  1855  019B                     	;# 
  1856  019B                     	;# 
  1857  019B                     	;# 
  1858  019B                     	;# 
  1859  019C                     	;# 
  1860  019C                     	;# 
  1861  019C                     	;# 
  1862  019D                     	;# 
  1863  019D                     	;# 
  1864  019D                     	;# 
  1865  019E                     	;# 
  1866  019E                     	;# 
  1867  019E                     	;# 
  1868  019F                     	;# 
  1869  019F                     	;# 
  1870  019F                     	;# 
  1871  019F                     	;# 
  1872  019F                     	;# 
  1873  020C                     	;# 
  1874  020D                     	;# 
  1875  020E                     	;# 
  1876  020F                     	;# 
  1877  0210                     	;# 
  1878  0211                     	;# 
  1879  0211                     	;# 
  1880  0212                     	;# 
  1881  0212                     	;# 
  1882  0213                     	;# 
  1883  0213                     	;# 
  1884  0214                     	;# 
  1885  0214                     	;# 
  1886  0215                     	;# 
  1887  0215                     	;# 
  1888  0215                     	;# 
  1889  0215                     	;# 
  1890  0216                     	;# 
  1891  0216                     	;# 
  1892  0217                     	;# 
  1893  0217                     	;# 
  1894  028C                     	;# 
  1895  028D                     	;# 
  1896  028E                     	;# 
  1897  028F                     	;# 
  1898  0290                     	;# 
  1899  0291                     	;# 
  1900  0291                     	;# 
  1901  0292                     	;# 
  1902  0293                     	;# 
  1903  0298                     	;# 
  1904  0298                     	;# 
  1905  0299                     	;# 
  1906  029A                     	;# 
  1907  030C                     	;# 
  1908  030D                     	;# 
  1909  030E                     	;# 
  1910  030F                     	;# 
  1911  0310                     	;# 
  1912  0311                     	;# 
  1913  0311                     	;# 
  1914  0312                     	;# 
  1915  0313                     	;# 
  1916  038C                     	;# 
  1917  038D                     	;# 
  1918  038E                     	;# 
  1919  038F                     	;# 
  1920  0390                     	;# 
  1921  0391                     	;# 
  1922  0392                     	;# 
  1923  0393                     	;# 
  1924  0394                     	;# 
  1925  0395                     	;# 
  1926  0396                     	;# 
  1927  0397                     	;# 
  1928  0398                     	;# 
  1929  0399                     	;# 
  1930  039D                     	;# 
  1931  039E                     	;# 
  1932  039F                     	;# 
  1933  0511                     	;# 
  1934  0513                     	;# 
  1935  0515                     	;# 
  1936  051A                     	;# 
  1937  0591                     	;# 
  1938  0592                     	;# 
  1939  0592                     	;# 
  1940  0593                     	;# 
  1941  0594                     	;# 
  1942  0594                     	;# 
  1943  0595                     	;# 
  1944  0596                     	;# 
  1945  0596                     	;# 
  1946  0E91                     	;# 
  1947  0E92                     	;# 
  1948  0E93                     	;# 
  1949  0E94                     	;# 
  1950  0E95                     	;# 
  1951  0E96                     	;# 
  1952  0E97                     	;# 
  1953  0E98                     	;# 
  1954  0E99                     	;# 
  1955  0E9A                     	;# 
  1956  0E9B                     	;# 
  1957  0E9C                     	;# 
  1958  0E9D                     	;# 
  1959  0E9E                     	;# 
  1960  0E9F                     	;# 
  1961  0EA0                     	;# 
  1962  0EA1                     	;# 
  1963  0EA1                     	;# 
  1964  0EA2                     	;# 
  1965  0EA3                     	;# 
  1966  0EA3                     	;# 
  1967  0EA4                     	;# 
  1968  0EA5                     	;# 
  1969  0EA5                     	;# 
  1970  0EA6                     	;# 
  1971  0EA7                     	;# 
  1972  0EA7                     	;# 
  1973  0EA8                     	;# 
  1974  0EA9                     	;# 
  1975  0EAA                     	;# 
  1976  0EAB                     	;# 
  1977  0EAC                     	;# 
  1978  0EAD                     	;# 
  1979  0EAE                     	;# 
  1980  0EAF                     	;# 
  1981  0EB1                     	;# 
  1982  0EB2                     	;# 
  1983  0EB3                     	;# 
  1984  0EB4                     	;# 
  1985  0EB5                     	;# 
  1986  0EB6                     	;# 
  1987  0EB7                     	;# 
  1988  0EB8                     	;# 
  1989  0EB9                     	;# 
  1990  0EBA                     	;# 
  1991  0EBB                     	;# 
  1992  0EBC                     	;# 
  1993  0EBD                     	;# 
  1994  0EBE                     	;# 
  1995  0EBF                     	;# 
  1996  0EC0                     	;# 
  1997  0EC1                     	;# 
  1998  0EC1                     	;# 
  1999  0EC2                     	;# 
  2000  0EC3                     	;# 
  2001  0EC3                     	;# 
  2002  0EC4                     	;# 
  2003  0EC5                     	;# 
  2004  0EC5                     	;# 
  2005  0EC6                     	;# 
  2006  0EC7                     	;# 
  2007  0EC7                     	;# 
  2008  0EC8                     	;# 
  2009  0EC9                     	;# 
  2010  0ECA                     	;# 
  2011  0ECB                     	;# 
  2012  0ECC                     	;# 
  2013  0ECD                     	;# 
  2014  0ECE                     	;# 
  2015  0ECF                     	;# 
  2016  0ED1                     	;# 
  2017  0ED2                     	;# 
  2018  0ED3                     	;# 
  2019  0ED4                     	;# 
  2020  0ED5                     	;# 
  2021  0ED6                     	;# 
  2022  0ED7                     	;# 
  2023  0ED8                     	;# 
  2024  0ED9                     	;# 
  2025  0EDA                     	;# 
  2026  0EDB                     	;# 
  2027  0EDC                     	;# 
  2028  0EDD                     	;# 
  2029  0EDE                     	;# 
  2030  0EDF                     	;# 
  2031  0EE0                     	;# 
  2032  0EE1                     	;# 
  2033  0EE1                     	;# 
  2034  0EE2                     	;# 
  2035  0EE3                     	;# 
  2036  0EE3                     	;# 
  2037  0EE4                     	;# 
  2038  0EE5                     	;# 
  2039  0EE5                     	;# 
  2040  0EE6                     	;# 
  2041  0EE7                     	;# 
  2042  0EE7                     	;# 
  2043  0EE8                     	;# 
  2044  0EE9                     	;# 
  2045  0EEA                     	;# 
  2046  0EEB                     	;# 
  2047  0EEC                     	;# 
  2048  0EED                     	;# 
  2049  0EEE                     	;# 
  2050  0EEF                     	;# 
  2051  0F11                     	;# 
  2052  0F12                     	;# 
  2053  0F13                     	;# 
  2054  0F14                     	;# 
  2055  0F15                     	;# 
  2056  0F16                     	;# 
  2057  0F17                     	;# 
  2058  0F18                     	;# 
  2059  0F19                     	;# 
  2060  0F1A                     	;# 
  2061  0F1B                     	;# 
  2062  0F1C                     	;# 
  2063  0F1D                     	;# 
  2064  0F1E                     	;# 
  2065  0F1F                     	;# 
  2066  0F20                     	;# 
  2067  0F21                     	;# 
  2068  0F21                     	;# 
  2069  0F22                     	;# 
  2070  0F23                     	;# 
  2071  0F23                     	;# 
  2072  0F24                     	;# 
  2073  0F25                     	;# 
  2074  0F25                     	;# 
  2075  0F26                     	;# 
  2076  0F27                     	;# 
  2077  0F27                     	;# 
  2078  0F28                     	;# 
  2079  0F29                     	;# 
  2080  0F2A                     	;# 
  2081  0F2B                     	;# 
  2082  0F2C                     	;# 
  2083  0F2D                     	;# 
  2084  0F2E                     	;# 
  2085  0F2F                     	;# 
  2086  0FE4                     	;# 
  2087  0FE5                     	;# 
  2088  0FE6                     	;# 
  2089  0FE7                     	;# 
  2090  0FE8                     	;# 
  2091  0FE9                     	;# 
  2092  0FEA                     	;# 
  2093  0FEB                     	;# 
  2094  0FED                     	;# 
  2095  0FEE                     	;# 
  2096  0FEF                     	;# 
  2097  0000                     	;# 
  2098  0001                     	;# 
  2099  0002                     	;# 
  2100  0003                     	;# 
  2101  0004                     	;# 
  2102  0005                     	;# 
  2103  0006                     	;# 
  2104  0007                     	;# 
  2105  0008                     	;# 
  2106  0009                     	;# 
  2107  000A                     	;# 
  2108  000B                     	;# 
  2109  000C                     	;# 
  2110  000D                     	;# 
  2111  000E                     	;# 
  2112  000F                     	;# 
  2113  0010                     	;# 
  2114  0011                     	;# 
  2115  0012                     	;# 
  2116  0013                     	;# 
  2117  0014                     	;# 
  2118  0015                     	;# 
  2119  0016                     	;# 
  2120  0016                     	;# 
  2121  0017                     	;# 
  2122  0018                     	;# 
  2123  0019                     	;# 
  2124  001A                     	;# 
  2125  001B                     	;# 
  2126  001C                     	;# 
  2127  008C                     	;# 
  2128  008D                     	;# 
  2129  008E                     	;# 
  2130  008F                     	;# 
  2131  0090                     	;# 
  2132  0091                     	;# 
  2133  0092                     	;# 
  2134  0093                     	;# 
  2135  0094                     	;# 
  2136  0095                     	;# 
  2137  0096                     	;# 
  2138  0097                     	;# 
  2139  0098                     	;# 
  2140  0099                     	;# 
  2141  009A                     	;# 
  2142  009B                     	;# 
  2143  009B                     	;# 
  2144  009C                     	;# 
  2145  009D                     	;# 
  2146  009E                     	;# 
  2147  009F                     	;# 
  2148  010C                     	;# 
  2149  010D                     	;# 
  2150  010E                     	;# 
  2151  010F                     	;# 
  2152  0110                     	;# 
  2153  0111                     	;# 
  2154  0112                     	;# 
  2155  0113                     	;# 
  2156  0114                     	;# 
  2157  0115                     	;# 
  2158  0116                     	;# 
  2159  0117                     	;# 
  2160  0118                     	;# 
  2161  0119                     	;# 
  2162  011A                     	;# 
  2163  011B                     	;# 
  2164  011C                     	;# 
  2165  011D                     	;# 
  2166  011D                     	;# 
  2167  011D                     	;# 
  2168  011E                     	;# 
  2169  011F                     	;# 
  2170  018C                     	;# 
  2171  018D                     	;# 
  2172  018E                     	;# 
  2173  018F                     	;# 
  2174  0190                     	;# 
  2175  0191                     	;# 
  2176  0191                     	;# 
  2177  0192                     	;# 
  2178  0193                     	;# 
  2179  0193                     	;# 
  2180  0193                     	;# 
  2181  0194                     	;# 
  2182  0195                     	;# 
  2183  0196                     	;# 
  2184  0197                     	;# 
  2185  0199                     	;# 
  2186  0199                     	;# 
  2187  0199                     	;# 
  2188  019A                     	;# 
  2189  019A                     	;# 
  2190  019A                     	;# 
  2191  019B                     	;# 
  2192  019B                     	;# 
  2193  019B                     	;# 
  2194  019B                     	;# 
  2195  019B                     	;# 
  2196  019C                     	;# 
  2197  019C                     	;# 
  2198  019C                     	;# 
  2199  019D                     	;# 
  2200  019D                     	;# 
  2201  019D                     	;# 
  2202  019E                     	;# 
  2203  019E                     	;# 
  2204  019E                     	;# 
  2205  019F                     	;# 
  2206  019F                     	;# 
  2207  019F                     	;# 
  2208  019F                     	;# 
  2209  019F                     	;# 
  2210  020C                     	;# 
  2211  020D                     	;# 
  2212  020E                     	;# 
  2213  020F                     	;# 
  2214  0210                     	;# 
  2215  0211                     	;# 
  2216  0211                     	;# 
  2217  0212                     	;# 
  2218  0212                     	;# 
  2219  0213                     	;# 
  2220  0213                     	;# 
  2221  0214                     	;# 
  2222  0214                     	;# 
  2223  0215                     	;# 
  2224  0215                     	;# 
  2225  0215                     	;# 
  2226  0215                     	;# 
  2227  0216                     	;# 
  2228  0216                     	;# 
  2229  0217                     	;# 
  2230  0217                     	;# 
  2231  028C                     	;# 
  2232  028D                     	;# 
  2233  028E                     	;# 
  2234  028F                     	;# 
  2235  0290                     	;# 
  2236  0291                     	;# 
  2237  0291                     	;# 
  2238  0292                     	;# 
  2239  0293                     	;# 
  2240  0298                     	;# 
  2241  0298                     	;# 
  2242  0299                     	;# 
  2243  029A                     	;# 
  2244  030C                     	;# 
  2245  030D                     	;# 
  2246  030E                     	;# 
  2247  030F                     	;# 
  2248  0310                     	;# 
  2249  0311                     	;# 
  2250  0311                     	;# 
  2251  0312                     	;# 
  2252  0313                     	;# 
  2253  038C                     	;# 
  2254  038D                     	;# 
  2255  038E                     	;# 
  2256  038F                     	;# 
  2257  0390                     	;# 
  2258  0391                     	;# 
  2259  0392                     	;# 
  2260  0393                     	;# 
  2261  0394                     	;# 
  2262  0395                     	;# 
  2263  0396                     	;# 
  2264  0397                     	;# 
  2265  0398                     	;# 
  2266  0399                     	;# 
  2267  039D                     	;# 
  2268  039E                     	;# 
  2269  039F                     	;# 
  2270  0511                     	;# 
  2271  0513                     	;# 
  2272  0515                     	;# 
  2273  051A                     	;# 
  2274  0591                     	;# 
  2275  0592                     	;# 
  2276  0592                     	;# 
  2277  0593                     	;# 
  2278  0594                     	;# 
  2279  0594                     	;# 
  2280  0595                     	;# 
  2281  0596                     	;# 
  2282  0596                     	;# 
  2283  0E91                     	;# 
  2284  0E92                     	;# 
  2285  0E93                     	;# 
  2286  0E94                     	;# 
  2287  0E95                     	;# 
  2288  0E96                     	;# 
  2289  0E97                     	;# 
  2290  0E98                     	;# 
  2291  0E99                     	;# 
  2292  0E9A                     	;# 
  2293  0E9B                     	;# 
  2294  0E9C                     	;# 
  2295  0E9D                     	;# 
  2296  0E9E                     	;# 
  2297  0E9F                     	;# 
  2298  0EA0                     	;# 
  2299  0EA1                     	;# 
  2300  0EA1                     	;# 
  2301  0EA2                     	;# 
  2302  0EA3                     	;# 
  2303  0EA3                     	;# 
  2304  0EA4                     	;# 
  2305  0EA5                     	;# 
  2306  0EA5                     	;# 
  2307  0EA6                     	;# 
  2308  0EA7                     	;# 
  2309  0EA7                     	;# 
  2310  0EA8                     	;# 
  2311  0EA9                     	;# 
  2312  0EAA                     	;# 
  2313  0EAB                     	;# 
  2314  0EAC                     	;# 
  2315  0EAD                     	;# 
  2316  0EAE                     	;# 
  2317  0EAF                     	;# 
  2318  0EB1                     	;# 
  2319  0EB2                     	;# 
  2320  0EB3                     	;# 
  2321  0EB4                     	;# 
  2322  0EB5                     	;# 
  2323  0EB6                     	;# 
  2324  0EB7                     	;# 
  2325  0EB8                     	;# 
  2326  0EB9                     	;# 
  2327  0EBA                     	;# 
  2328  0EBB                     	;# 
  2329  0EBC                     	;# 
  2330  0EBD                     	;# 
  2331  0EBE                     	;# 
  2332  0EBF                     	;# 
  2333  0EC0                     	;# 
  2334  0EC1                     	;# 
  2335  0EC1                     	;# 
  2336  0EC2                     	;# 
  2337  0EC3                     	;# 
  2338  0EC3                     	;# 
  2339  0EC4                     	;# 
  2340  0EC5                     	;# 
  2341  0EC5                     	;# 
  2342  0EC6                     	;# 
  2343  0EC7                     	;# 
  2344  0EC7                     	;# 
  2345  0EC8                     	;# 
  2346  0EC9                     	;# 
  2347  0ECA                     	;# 
  2348  0ECB                     	;# 
  2349  0ECC                     	;# 
  2350  0ECD                     	;# 
  2351  0ECE                     	;# 
  2352  0ECF                     	;# 
  2353  0ED1                     	;# 
  2354  0ED2                     	;# 
  2355  0ED3                     	;# 
  2356  0ED4                     	;# 
  2357  0ED5                     	;# 
  2358  0ED6                     	;# 
  2359  0ED7                     	;# 
  2360  0ED8                     	;# 
  2361  0ED9                     	;# 
  2362  0EDA                     	;# 
  2363  0EDB                     	;# 
  2364  0EDC                     	;# 
  2365  0EDD                     	;# 
  2366  0EDE                     	;# 
  2367  0EDF                     	;# 
  2368  0EE0                     	;# 
  2369  0EE1                     	;# 
  2370  0EE1                     	;# 
  2371  0EE2                     	;# 
  2372  0EE3                     	;# 
  2373  0EE3                     	;# 
  2374  0EE4                     	;# 
  2375  0EE5                     	;# 
  2376  0EE5                     	;# 
  2377  0EE6                     	;# 
  2378  0EE7                     	;# 
  2379  0EE7                     	;# 
  2380  0EE8                     	;# 
  2381  0EE9                     	;# 
  2382  0EEA                     	;# 
  2383  0EEB                     	;# 
  2384  0EEC                     	;# 
  2385  0EED                     	;# 
  2386  0EEE                     	;# 
  2387  0EEF                     	;# 
  2388  0F11                     	;# 
  2389  0F12                     	;# 
  2390  0F13                     	;# 
  2391  0F14                     	;# 
  2392  0F15                     	;# 
  2393  0F16                     	;# 
  2394  0F17                     	;# 
  2395  0F18                     	;# 
  2396  0F19                     	;# 
  2397  0F1A                     	;# 
  2398  0F1B                     	;# 
  2399  0F1C                     	;# 
  2400  0F1D                     	;# 
  2401  0F1E                     	;# 
  2402  0F1F                     	;# 
  2403  0F20                     	;# 
  2404  0F21                     	;# 
  2405  0F21                     	;# 
  2406  0F22                     	;# 
  2407  0F23                     	;# 
  2408  0F23                     	;# 
  2409  0F24                     	;# 
  2410  0F25                     	;# 
  2411  0F25                     	;# 
  2412  0F26                     	;# 
  2413  0F27                     	;# 
  2414  0F27                     	;# 
  2415  0F28                     	;# 
  2416  0F29                     	;# 
  2417  0F2A                     	;# 
  2418  0F2B                     	;# 
  2419  0F2C                     	;# 
  2420  0F2D                     	;# 
  2421  0F2E                     	;# 
  2422  0F2F                     	;# 
  2423  0FE4                     	;# 
  2424  0FE5                     	;# 
  2425  0FE6                     	;# 
  2426  0FE7                     	;# 
  2427  0FE8                     	;# 
  2428  0FE9                     	;# 
  2429  0FEA                     	;# 
  2430  0FEB                     	;# 
  2431  0FED                     	;# 
  2432  0FEE                     	;# 
  2433  0FEF                     	;# 
  2434  0000                     	;# 
  2435  0001                     	;# 
  2436  0002                     	;# 
  2437  0003                     	;# 
  2438  0004                     	;# 
  2439  0005                     	;# 
  2440  0006                     	;# 
  2441  0007                     	;# 
  2442  0008                     	;# 
  2443  0009                     	;# 
  2444  000A                     	;# 
  2445  000B                     	;# 
  2446  000C                     	;# 
  2447  000D                     	;# 
  2448  000E                     	;# 
  2449  000F                     	;# 
  2450  0010                     	;# 
  2451  0011                     	;# 
  2452  0012                     	;# 
  2453  0013                     	;# 
  2454  0014                     	;# 
  2455  0015                     	;# 
  2456  0016                     	;# 
  2457  0016                     	;# 
  2458  0017                     	;# 
  2459  0018                     	;# 
  2460  0019                     	;# 
  2461  001A                     	;# 
  2462  001B                     	;# 
  2463  001C                     	;# 
  2464  008C                     	;# 
  2465  008D                     	;# 
  2466  008E                     	;# 
  2467  008F                     	;# 
  2468  0090                     	;# 
  2469  0091                     	;# 
  2470  0092                     	;# 
  2471  0093                     	;# 
  2472  0094                     	;# 
  2473  0095                     	;# 
  2474  0096                     	;# 
  2475  0097                     	;# 
  2476  0098                     	;# 
  2477  0099                     	;# 
  2478  009A                     	;# 
  2479  009B                     	;# 
  2480  009B                     	;# 
  2481  009C                     	;# 
  2482  009D                     	;# 
  2483  009E                     	;# 
  2484  009F                     	;# 
  2485  010C                     	;# 
  2486  010D                     	;# 
  2487  010E                     	;# 
  2488  010F                     	;# 
  2489  0110                     	;# 
  2490  0111                     	;# 
  2491  0112                     	;# 
  2492  0113                     	;# 
  2493  0114                     	;# 
  2494  0115                     	;# 
  2495  0116                     	;# 
  2496  0117                     	;# 
  2497  0118                     	;# 
  2498  0119                     	;# 
  2499  011A                     	;# 
  2500  011B                     	;# 
  2501  011C                     	;# 
  2502  011D                     	;# 
  2503  011D                     	;# 
  2504  011D                     	;# 
  2505  011E                     	;# 
  2506  011F                     	;# 
  2507  018C                     	;# 
  2508  018D                     	;# 
  2509  018E                     	;# 
  2510  018F                     	;# 
  2511  0190                     	;# 
  2512  0191                     	;# 
  2513  0191                     	;# 
  2514  0192                     	;# 
  2515  0193                     	;# 
  2516  0193                     	;# 
  2517  0193                     	;# 
  2518  0194                     	;# 
  2519  0195                     	;# 
  2520  0196                     	;# 
  2521  0197                     	;# 
  2522  0199                     	;# 
  2523  0199                     	;# 
  2524  0199                     	;# 
  2525  019A                     	;# 
  2526  019A                     	;# 
  2527  019A                     	;# 
  2528  019B                     	;# 
  2529  019B                     	;# 
  2530  019B                     	;# 
  2531  019B                     	;# 
  2532  019B                     	;# 
  2533  019C                     	;# 
  2534  019C                     	;# 
  2535  019C                     	;# 
  2536  019D                     	;# 
  2537  019D                     	;# 
  2538  019D                     	;# 
  2539  019E                     	;# 
  2540  019E                     	;# 
  2541  019E                     	;# 
  2542  019F                     	;# 
  2543  019F                     	;# 
  2544  019F                     	;# 
  2545  019F                     	;# 
  2546  019F                     	;# 
  2547  020C                     	;# 
  2548  020D                     	;# 
  2549  020E                     	;# 
  2550  020F                     	;# 
  2551  0210                     	;# 
  2552  0211                     	;# 
  2553  0211                     	;# 
  2554  0212                     	;# 
  2555  0212                     	;# 
  2556  0213                     	;# 
  2557  0213                     	;# 
  2558  0214                     	;# 
  2559  0214                     	;# 
  2560  0215                     	;# 
  2561  0215                     	;# 
  2562  0215                     	;# 
  2563  0215                     	;# 
  2564  0216                     	;# 
  2565  0216                     	;# 
  2566  0217                     	;# 
  2567  0217                     	;# 
  2568  028C                     	;# 
  2569  028D                     	;# 
  2570  028E                     	;# 
  2571  028F                     	;# 
  2572  0290                     	;# 
  2573  0291                     	;# 
  2574  0291                     	;# 
  2575  0292                     	;# 
  2576  0293                     	;# 
  2577  0298                     	;# 
  2578  0298                     	;# 
  2579  0299                     	;# 
  2580  029A                     	;# 
  2581  030C                     	;# 
  2582  030D                     	;# 
  2583  030E                     	;# 
  2584  030F                     	;# 
  2585  0310                     	;# 
  2586  0311                     	;# 
  2587  0311                     	;# 
  2588  0312                     	;# 
  2589  0313                     	;# 
  2590  038C                     	;# 
  2591  038D                     	;# 
  2592  038E                     	;# 
  2593  038F                     	;# 
  2594  0390                     	;# 
  2595  0391                     	;# 
  2596  0392                     	;# 
  2597  0393                     	;# 
  2598  0394                     	;# 
  2599  0395                     	;# 
  2600  0396                     	;# 
  2601  0397                     	;# 
  2602  0398                     	;# 
  2603  0399                     	;# 
  2604  039D                     	;# 
  2605  039E                     	;# 
  2606  039F                     	;# 
  2607  0511                     	;# 
  2608  0513                     	;# 
  2609  0515                     	;# 
  2610  051A                     	;# 
  2611  0591                     	;# 
  2612  0592                     	;# 
  2613  0592                     	;# 
  2614  0593                     	;# 
  2615  0594                     	;# 
  2616  0594                     	;# 
  2617  0595                     	;# 
  2618  0596                     	;# 
  2619  0596                     	;# 
  2620  0E91                     	;# 
  2621  0E92                     	;# 
  2622  0E93                     	;# 
  2623  0E94                     	;# 
  2624  0E95                     	;# 
  2625  0E96                     	;# 
  2626  0E97                     	;# 
  2627  0E98                     	;# 
  2628  0E99                     	;# 
  2629  0E9A                     	;# 
  2630  0E9B                     	;# 
  2631  0E9C                     	;# 
  2632  0E9D                     	;# 
  2633  0E9E                     	;# 
  2634  0E9F                     	;# 
  2635  0EA0                     	;# 
  2636  0EA1                     	;# 
  2637  0EA1                     	;# 
  2638  0EA2                     	;# 
  2639  0EA3                     	;# 
  2640  0EA3                     	;# 
  2641  0EA4                     	;# 
  2642  0EA5                     	;# 
  2643  0EA5                     	;# 
  2644  0EA6                     	;# 
  2645  0EA7                     	;# 
  2646  0EA7                     	;# 
  2647  0EA8                     	;# 
  2648  0EA9                     	;# 
  2649  0EAA                     	;# 
  2650  0EAB                     	;# 
  2651  0EAC                     	;# 
  2652  0EAD                     	;# 
  2653  0EAE                     	;# 
  2654  0EAF                     	;# 
  2655  0EB1                     	;# 
  2656  0EB2                     	;# 
  2657  0EB3                     	;# 
  2658  0EB4                     	;# 
  2659  0EB5                     	;# 
  2660  0EB6                     	;# 
  2661  0EB7                     	;# 
  2662  0EB8                     	;# 
  2663  0EB9                     	;# 
  2664  0EBA                     	;# 
  2665  0EBB                     	;# 
  2666  0EBC                     	;# 
  2667  0EBD                     	;# 
  2668  0EBE                     	;# 
  2669  0EBF                     	;# 
  2670  0EC0                     	;# 
  2671  0EC1                     	;# 
  2672  0EC1                     	;# 
  2673  0EC2                     	;# 
  2674  0EC3                     	;# 
  2675  0EC3                     	;# 
  2676  0EC4                     	;# 
  2677  0EC5                     	;# 
  2678  0EC5                     	;# 
  2679  0EC6                     	;# 
  2680  0EC7                     	;# 
  2681  0EC7                     	;# 
  2682  0EC8                     	;# 
  2683  0EC9                     	;# 
  2684  0ECA                     	;# 
  2685  0ECB                     	;# 
  2686  0ECC                     	;# 
  2687  0ECD                     	;# 
  2688  0ECE                     	;# 
  2689  0ECF                     	;# 
  2690  0ED1                     	;# 
  2691  0ED2                     	;# 
  2692  0ED3                     	;# 
  2693  0ED4                     	;# 
  2694  0ED5                     	;# 
  2695  0ED6                     	;# 
  2696  0ED7                     	;# 
  2697  0ED8                     	;# 
  2698  0ED9                     	;# 
  2699  0EDA                     	;# 
  2700  0EDB                     	;# 
  2701  0EDC                     	;# 
  2702  0EDD                     	;# 
  2703  0EDE                     	;# 
  2704  0EDF                     	;# 
  2705  0EE0                     	;# 
  2706  0EE1                     	;# 
  2707  0EE1                     	;# 
  2708  0EE2                     	;# 
  2709  0EE3                     	;# 
  2710  0EE3                     	;# 
  2711  0EE4                     	;# 
  2712  0EE5                     	;# 
  2713  0EE5                     	;# 
  2714  0EE6                     	;# 
  2715  0EE7                     	;# 
  2716  0EE7                     	;# 
  2717  0EE8                     	;# 
  2718  0EE9                     	;# 
  2719  0EEA                     	;# 
  2720  0EEB                     	;# 
  2721  0EEC                     	;# 
  2722  0EED                     	;# 
  2723  0EEE                     	;# 
  2724  0EEF                     	;# 
  2725  0F11                     	;# 
  2726  0F12                     	;# 
  2727  0F13                     	;# 
  2728  0F14                     	;# 
  2729  0F15                     	;# 
  2730  0F16                     	;# 
  2731  0F17                     	;# 
  2732  0F18                     	;# 
  2733  0F19                     	;# 
  2734  0F1A                     	;# 
  2735  0F1B                     	;# 
  2736  0F1C                     	;# 
  2737  0F1D                     	;# 
  2738  0F1E                     	;# 
  2739  0F1F                     	;# 
  2740  0F20                     	;# 
  2741  0F21                     	;# 
  2742  0F21                     	;# 
  2743  0F22                     	;# 
  2744  0F23                     	;# 
  2745  0F23                     	;# 
  2746  0F24                     	;# 
  2747  0F25                     	;# 
  2748  0F25                     	;# 
  2749  0F26                     	;# 
  2750  0F27                     	;# 
  2751  0F27                     	;# 
  2752  0F28                     	;# 
  2753  0F29                     	;# 
  2754  0F2A                     	;# 
  2755  0F2B                     	;# 
  2756  0F2C                     	;# 
  2757  0F2D                     	;# 
  2758  0F2E                     	;# 
  2759  0F2F                     	;# 
  2760  0FE4                     	;# 
  2761  0FE5                     	;# 
  2762  0FE6                     	;# 
  2763  0FE7                     	;# 
  2764  0FE8                     	;# 
  2765  0FE9                     	;# 
  2766  0FEA                     	;# 
  2767  0FEB                     	;# 
  2768  0FED                     	;# 
  2769  0FEE                     	;# 
  2770  0FEF                     	;# 
  2771  0000                     	;# 
  2772  0001                     	;# 
  2773  0002                     	;# 
  2774  0003                     	;# 
  2775  0004                     	;# 
  2776  0005                     	;# 
  2777  0006                     	;# 
  2778  0007                     	;# 
  2779  0008                     	;# 
  2780  0009                     	;# 
  2781  000A                     	;# 
  2782  000B                     	;# 
  2783  000C                     	;# 
  2784  000D                     	;# 
  2785  000E                     	;# 
  2786  000F                     	;# 
  2787  0010                     	;# 
  2788  0011                     	;# 
  2789  0012                     	;# 
  2790  0013                     	;# 
  2791  0014                     	;# 
  2792  0015                     	;# 
  2793  0016                     	;# 
  2794  0016                     	;# 
  2795  0017                     	;# 
  2796  0018                     	;# 
  2797  0019                     	;# 
  2798  001A                     	;# 
  2799  001B                     	;# 
  2800  001C                     	;# 
  2801  008C                     	;# 
  2802  008D                     	;# 
  2803  008E                     	;# 
  2804  008F                     	;# 
  2805  0090                     	;# 
  2806  0091                     	;# 
  2807  0092                     	;# 
  2808  0093                     	;# 
  2809  0094                     	;# 
  2810  0095                     	;# 
  2811  0096                     	;# 
  2812  0097                     	;# 
  2813  0098                     	;# 
  2814  0099                     	;# 
  2815  009A                     	;# 
  2816  009B                     	;# 
  2817  009B                     	;# 
  2818  009C                     	;# 
  2819  009D                     	;# 
  2820  009E                     	;# 
  2821  009F                     	;# 
  2822  010C                     	;# 
  2823  010D                     	;# 
  2824  010E                     	;# 
  2825  010F                     	;# 
  2826  0110                     	;# 
  2827  0111                     	;# 
  2828  0112                     	;# 
  2829  0113                     	;# 
  2830  0114                     	;# 
  2831  0115                     	;# 
  2832  0116                     	;# 
  2833  0117                     	;# 
  2834  0118                     	;# 
  2835  0119                     	;# 
  2836  011A                     	;# 
  2837  011B                     	;# 
  2838  011C                     	;# 
  2839  011D                     	;# 
  2840  011D                     	;# 
  2841  011D                     	;# 
  2842  011E                     	;# 
  2843  011F                     	;# 
  2844  018C                     	;# 
  2845  018D                     	;# 
  2846  018E                     	;# 
  2847  018F                     	;# 
  2848  0190                     	;# 
  2849  0191                     	;# 
  2850  0191                     	;# 
  2851  0192                     	;# 
  2852  0193                     	;# 
  2853  0193                     	;# 
  2854  0193                     	;# 
  2855  0194                     	;# 
  2856  0195                     	;# 
  2857  0196                     	;# 
  2858  0197                     	;# 
  2859  0199                     	;# 
  2860  0199                     	;# 
  2861  0199                     	;# 
  2862  019A                     	;# 
  2863  019A                     	;# 
  2864  019A                     	;# 
  2865  019B                     	;# 
  2866  019B                     	;# 
  2867  019B                     	;# 
  2868  019B                     	;# 
  2869  019B                     	;# 
  2870  019C                     	;# 
  2871  019C                     	;# 
  2872  019C                     	;# 
  2873  019D                     	;# 
  2874  019D                     	;# 
  2875  019D                     	;# 
  2876  019E                     	;# 
  2877  019E                     	;# 
  2878  019E                     	;# 
  2879  019F                     	;# 
  2880  019F                     	;# 
  2881  019F                     	;# 
  2882  019F                     	;# 
  2883  019F                     	;# 
  2884  020C                     	;# 
  2885  020D                     	;# 
  2886  020E                     	;# 
  2887  020F                     	;# 
  2888  0210                     	;# 
  2889  0211                     	;# 
  2890  0211                     	;# 
  2891  0212                     	;# 
  2892  0212                     	;# 
  2893  0213                     	;# 
  2894  0213                     	;# 
  2895  0214                     	;# 
  2896  0214                     	;# 
  2897  0215                     	;# 
  2898  0215                     	;# 
  2899  0215                     	;# 
  2900  0215                     	;# 
  2901  0216                     	;# 
  2902  0216                     	;# 
  2903  0217                     	;# 
  2904  0217                     	;# 
  2905  028C                     	;# 
  2906  028D                     	;# 
  2907  028E                     	;# 
  2908  028F                     	;# 
  2909  0290                     	;# 
  2910  0291                     	;# 
  2911  0291                     	;# 
  2912  0292                     	;# 
  2913  0293                     	;# 
  2914  0298                     	;# 
  2915  0298                     	;# 
  2916  0299                     	;# 
  2917  029A                     	;# 
  2918  030C                     	;# 
  2919  030D                     	;# 
  2920  030E                     	;# 
  2921  030F                     	;# 
  2922  0310                     	;# 
  2923  0311                     	;# 
  2924  0311                     	;# 
  2925  0312                     	;# 
  2926  0313                     	;# 
  2927  038C                     	;# 
  2928  038D                     	;# 
  2929  038E                     	;# 
  2930  038F                     	;# 
  2931  0390                     	;# 
  2932  0391                     	;# 
  2933  0392                     	;# 
  2934  0393                     	;# 
  2935  0394                     	;# 
  2936  0395                     	;# 
  2937  0396                     	;# 
  2938  0397                     	;# 
  2939  0398                     	;# 
  2940  0399                     	;# 
  2941  039D                     	;# 
  2942  039E                     	;# 
  2943  039F                     	;# 
  2944  0511                     	;# 
  2945  0513                     	;# 
  2946  0515                     	;# 
  2947  051A                     	;# 
  2948  0591                     	;# 
  2949  0592                     	;# 
  2950  0592                     	;# 
  2951  0593                     	;# 
  2952  0594                     	;# 
  2953  0594                     	;# 
  2954  0595                     	;# 
  2955  0596                     	;# 
  2956  0596                     	;# 
  2957  0E91                     	;# 
  2958  0E92                     	;# 
  2959  0E93                     	;# 
  2960  0E94                     	;# 
  2961  0E95                     	;# 
  2962  0E96                     	;# 
  2963  0E97                     	;# 
  2964  0E98                     	;# 
  2965  0E99                     	;# 
  2966  0E9A                     	;# 
  2967  0E9B                     	;# 
  2968  0E9C                     	;# 
  2969  0E9D                     	;# 
  2970  0E9E                     	;# 
  2971  0E9F                     	;# 
  2972  0EA0                     	;# 
  2973  0EA1                     	;# 
  2974  0EA1                     	;# 
  2975  0EA2                     	;# 
  2976  0EA3                     	;# 
  2977  0EA3                     	;# 
  2978  0EA4                     	;# 
  2979  0EA5                     	;# 
  2980  0EA5                     	;# 
  2981  0EA6                     	;# 
  2982  0EA7                     	;# 
  2983  0EA7                     	;# 
  2984  0EA8                     	;# 
  2985  0EA9                     	;# 
  2986  0EAA                     	;# 
  2987  0EAB                     	;# 
  2988  0EAC                     	;# 
  2989  0EAD                     	;# 
  2990  0EAE                     	;# 
  2991  0EAF                     	;# 
  2992  0EB1                     	;# 
  2993  0EB2                     	;# 
  2994  0EB3                     	;# 
  2995  0EB4                     	;# 
  2996  0EB5                     	;# 
  2997  0EB6                     	;# 
  2998  0EB7                     	;# 
  2999  0EB8                     	;# 
  3000  0EB9                     	;# 
  3001  0EBA                     	;# 
  3002  0EBB                     	;# 
  3003  0EBC                     	;# 
  3004  0EBD                     	;# 
  3005  0EBE                     	;# 
  3006  0EBF                     	;# 
  3007  0EC0                     	;# 
  3008  0EC1                     	;# 
  3009  0EC1                     	;# 
  3010  0EC2                     	;# 
  3011  0EC3                     	;# 
  3012  0EC3                     	;# 
  3013  0EC4                     	;# 
  3014  0EC5                     	;# 
  3015  0EC5                     	;# 
  3016  0EC6                     	;# 
  3017  0EC7                     	;# 
  3018  0EC7                     	;# 
  3019  0EC8                     	;# 
  3020  0EC9                     	;# 
  3021  0ECA                     	;# 
  3022  0ECB                     	;# 
  3023  0ECC                     	;# 
  3024  0ECD                     	;# 
  3025  0ECE                     	;# 
  3026  0ECF                     	;# 
  3027  0ED1                     	;# 
  3028  0ED2                     	;# 
  3029  0ED3                     	;# 
  3030  0ED4                     	;# 
  3031  0ED5                     	;# 
  3032  0ED6                     	;# 
  3033  0ED7                     	;# 
  3034  0ED8                     	;# 
  3035  0ED9                     	;# 
  3036  0EDA                     	;# 
  3037  0EDB                     	;# 
  3038  0EDC                     	;# 
  3039  0EDD                     	;# 
  3040  0EDE                     	;# 
  3041  0EDF                     	;# 
  3042  0EE0                     	;# 
  3043  0EE1                     	;# 
  3044  0EE1                     	;# 
  3045  0EE2                     	;# 
  3046  0EE3                     	;# 
  3047  0EE3                     	;# 
  3048  0EE4                     	;# 
  3049  0EE5                     	;# 
  3050  0EE5                     	;# 
  3051  0EE6                     	;# 
  3052  0EE7                     	;# 
  3053  0EE7                     	;# 
  3054  0EE8                     	;# 
  3055  0EE9                     	;# 
  3056  0EEA                     	;# 
  3057  0EEB                     	;# 
  3058  0EEC                     	;# 
  3059  0EED                     	;# 
  3060  0EEE                     	;# 
  3061  0EEF                     	;# 
  3062  0F11                     	;# 
  3063  0F12                     	;# 
  3064  0F13                     	;# 
  3065  0F14                     	;# 
  3066  0F15                     	;# 
  3067  0F16                     	;# 
  3068  0F17                     	;# 
  3069  0F18                     	;# 
  3070  0F19                     	;# 
  3071  0F1A                     	;# 
  3072  0F1B                     	;# 
  3073  0F1C                     	;# 
  3074  0F1D                     	;# 
  3075  0F1E                     	;# 
  3076  0F1F                     	;# 
  3077  0F20                     	;# 
  3078  0F21                     	;# 
  3079  0F21                     	;# 
  3080  0F22                     	;# 
  3081  0F23                     	;# 
  3082  0F23                     	;# 
  3083  0F24                     	;# 
  3084  0F25                     	;# 
  3085  0F25                     	;# 
  3086  0F26                     	;# 
  3087  0F27                     	;# 
  3088  0F27                     	;# 
  3089  0F28                     	;# 
  3090  0F29                     	;# 
  3091  0F2A                     	;# 
  3092  0F2B                     	;# 
  3093  0F2C                     	;# 
  3094  0F2D                     	;# 
  3095  0F2E                     	;# 
  3096  0F2F                     	;# 
  3097  0FE4                     	;# 
  3098  0FE5                     	;# 
  3099  0FE6                     	;# 
  3100  0FE7                     	;# 
  3101  0FE8                     	;# 
  3102  0FE9                     	;# 
  3103  0FEA                     	;# 
  3104  0FEB                     	;# 
  3105  0FED                     	;# 
  3106  0FEE                     	;# 
  3107  0FEF                     	;# 
  3108                           
  3109 ;; Function _EUSART_DefaultFramingErrorHandler is unused but had its address taken
  3110  0000                     
  3111 ;; Function _EUSART_DefaultOverrunErrorHandler is unused but had its address taken
  3112  0000                     
  3113 ;; Function _EUSART_DefaultErrorHandler is unused but had its address taken
  3114  0000                     
  3115                           	psect	stringtext1
  3116  0800                     __pstringtext1:
  3117  0800                     _spi_configuration:
  3118  0800  3402               	retlw	2
  3119  0801  3440               	retlw	64
  3120  0802  3401               	retlw	1
  3121  0803  3400               	retlw	0
  3122  0804                     __end_of_spi_configuration:
  3123                           
  3124                           	psect	nvBANK0
  3125  006D                     __pnvBANK0:
  3126  006D                     _EUSART_FramingErrorHandler:
  3127  006D                     	ds	2
  3128                           
  3129                           	psect	nvBANK1
  3130  00E4                     __pnvBANK1:
  3131  00E4                     _EUSART_ErrorHandler:
  3132  00E4                     	ds	2
  3133  00E6                     _EUSART_OverrunErrorHandler:
  3134  00E6                     	ds	2
  3135  000B                     _INTCONbits	set	11
  3136  0011                     _PIR1bits	set	17
  3137  0095                     _OPTION_REGbits	set	149
  3138  008F                     _TRISD	set	143
  3139  008E                     _TRISC	set	142
  3140  008D                     _TRISB	set	141
  3141  008C                     _TRISA	set	140
  3142  0090                     _TRISE	set	144
  3143  0097                     _WDTCON	set	151
  3144  0098                     _OSCTUNE	set	152
  3145  009A                     _OSCSTAT	set	154
  3146  0099                     _OSCCON	set	153
  3147  008E                     _TRISCbits	set	142
  3148  0110                     _LATEbits	set	272
  3149  011C                     _APFCON2	set	284
  3150  011D                     _APFCON1	set	285
  3151  010E                     _LATC	set	270
  3152  010D                     _LATB	set	269
  3153  010C                     _LATA	set	268
  3154  010F                     _LATD	set	271
  3155  0110                     _LATE	set	272
  3156  0116                     _BORCON	set	278
  3157  0193                     _EEDATL	set	403
  3158  0194                     _EEDATH	set	404
  3159  0195                     _EECON1bits	set	405
  3160  0196                     _EECON2	set	406
  3161  0195                     _EECON1	set	405
  3162  0191                     _EEADRL	set	401
  3163  0192                     _EEADRH	set	402
  3164  018C                     _ANSELA	set	396
  3165  0190                     _ANSELE	set	400
  3166  018D                     _ANSELB	set	397
  3167  018E                     _ANSELC	set	398
  3168  018F                     _ANSELD	set	399
  3169  019A                     _TX1REG	set	410
  3170  0199                     _RC1REG	set	409
  3171  019D                     _RC1STAbits	set	413
  3172  019E                     _TX1STAbits	set	414
  3173  019C                     _SP1BRGH	set	412
  3174  019B                     _SP1BRGL	set	411
  3175  019E                     _TX1STA	set	414
  3176  019D                     _RC1STA	set	413
  3177  019F                     _BAUD1CON	set	415
  3178  020E                     _WPUC	set	526
  3179  020C                     _WPUA	set	524
  3180  020D                     _WPUB	set	525
  3181  0210                     _WPUE	set	528
  3182  020F                     _WPUD	set	527
  3183  0211                     _SSP1BUF	set	529
  3184  0216                     _SSP1CON2	set	534
  3185  0215                     _SSP1CON1bits	set	533
  3186  0212                     _SSP1ADD	set	530
  3187  0215                     _SSP1CON1	set	533
  3188  0214                     _SSP1STAT	set	532
  3189  028F                     _ODCOND	set	655
  3190  028E                     _ODCONC	set	654
  3191  028D                     _ODCONB	set	653
  3192  028C                     _ODCONA	set	652
  3193  0290                     _ODCONE	set	656
  3194  0310                     _SLRCONE	set	784
  3195  030F                     _SLRCOND	set	783
  3196  030E                     _SLRCONC	set	782
  3197  030D                     _SLRCONB	set	781
  3198  030C                     _SLRCONA	set	780
  3199  0390                     _INLVLE	set	912
  3200  038F                     _INLVLD	set	911
  3201  038E                     _INLVLC	set	910
  3202  038D                     _INLVLB	set	909
  3203  038C                     _INLVLA	set	908
  3204                           
  3205                           	psect	cinit
  3206  07FB                     start_initialization:	
  3207                           ; #config settings
  3208                           
  3209  07FB                     __initialization:
  3210                           
  3211                           ; Clear objects allocated to BANK0
  3212  07FB  0020               	movlb	0	; select bank0
  3213  07FC  01EF               	clrf	__pbssBANK0& (0+127)
  3214  07FD                     end_of_initialization:	
  3215                           ;End of C runtime variable initialization code
  3216                           
  3217  07FD                     __end_of__initialization:
  3218  07FD  0020               	movlb	0
  3219  07FE  3187  2F45         	ljmp	_main	;jump to C main() function
  3220                           
  3221                           	psect	bssBANK0
  3222  006F                     __pbssBANK0:
  3223  006F                     _eusartRxLastError:
  3224  006F                     	ds	1
  3225                           
  3226                           	psect	cstackBANK1
  3227  00A0                     __pcstackBANK1:
  3228  00A0                     main@recv_frame:
  3229                           
  3230                           ; 68 bytes @ 0x0
  3231  00A0                     	ds	68
  3232                           
  3233                           	psect	cstackCOMMON
  3234  0070                     __pcstackCOMMON:
  3235  0070                     ?_EUSART_SetFramingErrorHandler:
  3236  0070                     ?_EUSART_SetOverrunErrorHandler:	
  3237                           ; 1 bytes @ 0x0
  3238                           
  3239  0070                     ?_EUSART_SetErrorHandler:	
  3240                           ; 1 bytes @ 0x0
  3241                           
  3242  0070                     ?_PIN_MANAGER_Initialize:	
  3243                           ; 1 bytes @ 0x0
  3244                           
  3245  0070                     ??_PIN_MANAGER_Initialize:	
  3246                           ; 1 bytes @ 0x0
  3247                           
  3248  0070                     ?_OSCILLATOR_Initialize:	
  3249                           ; 1 bytes @ 0x0
  3250                           
  3251  0070                     ??_OSCILLATOR_Initialize:	
  3252                           ; 1 bytes @ 0x0
  3253                           
  3254  0070                     ?_WDT_Initialize:	
  3255                           ; 1 bytes @ 0x0
  3256                           
  3257  0070                     ??_WDT_Initialize:	
  3258                           ; 1 bytes @ 0x0
  3259                           
  3260  0070                     ?_ClearArray:	
  3261                           ; 1 bytes @ 0x0
  3262                           
  3263  0070                     ??_ClearArray:	
  3264                           ; 1 bytes @ 0x0
  3265                           
  3266  0070                     ?_UART_preamFound:	
  3267                           ; 1 bytes @ 0x0
  3268                           
  3269  0070                     ??_UART_preamFound:	
  3270                           ; 1 bytes @ 0x0
  3271                           
  3272  0070                     ?_UART_byteRead:	
  3273                           ; 1 bytes @ 0x0
  3274                           
  3275  0070                     ??_UART_byteRead:	
  3276                           ; 1 bytes @ 0x0
  3277                           
  3278  0070                     ?_DefineError:	
  3279                           ; 1 bytes @ 0x0
  3280                           
  3281  0070                     ??_DefineError:	
  3282                           ; 1 bytes @ 0x0
  3283                           
  3284  0070                     ?_FLASH_Erase:	
  3285                           ; 1 bytes @ 0x0
  3286                           
  3287  0070                     ??_FLASH_Erase:	
  3288                           ; 1 bytes @ 0x0
  3289                           
  3290  0070                     ?_FLASH_Write:	
  3291                           ; 1 bytes @ 0x0
  3292                           
  3293  0070                     ??_FLASH_Write:	
  3294                           ; 1 bytes @ 0x0
  3295                           
  3296  0070                     ?_SPI_Initialize:	
  3297                           ; 1 bytes @ 0x0
  3298                           
  3299  0070                     ??_SPI_Initialize:	
  3300                           ; 1 bytes @ 0x0
  3301                           
  3302  0070                     ?_EUSART_Initialize:	
  3303                           ; 1 bytes @ 0x0
  3304                           
  3305  0070                     ?_EUSART_is_tx_ready:	
  3306                           ; 1 bytes @ 0x0
  3307                           
  3308  0070                     ??_EUSART_is_tx_ready:	
  3309                           ; 1 bytes @ 0x0
  3310                           
  3311  0070                     ?_EUSART_is_rx_ready:	
  3312                           ; 1 bytes @ 0x0
  3313                           
  3314  0070                     ??_EUSART_is_rx_ready:	
  3315                           ; 1 bytes @ 0x0
  3316                           
  3317  0070                     ?_EUSART_is_tx_done:	
  3318                           ; 1 bytes @ 0x0
  3319                           
  3320  0070                     ??_EUSART_is_tx_done:	
  3321                           ; 1 bytes @ 0x0
  3322                           
  3323  0070                     ?_EUSART_Read:	
  3324                           ; 1 bytes @ 0x0
  3325                           
  3326  0070                     ??_EUSART_Read:	
  3327                           ; 1 bytes @ 0x0
  3328                           
  3329  0070                     ?_EUSART_Write:	
  3330                           ; 1 bytes @ 0x0
  3331                           
  3332  0070                     ??_EUSART_Write:	
  3333                           ; 1 bytes @ 0x0
  3334                           
  3335  0070                     ?_SYSTEM_Initialize:	
  3336                           ; 1 bytes @ 0x0
  3337                           
  3338  0070                     ?_main:	
  3339                           ; 1 bytes @ 0x0
  3340                           
  3341  0070                     ?_FLASH_Read:	
  3342                           ; 1 bytes @ 0x0
  3343                           
  3344  0070                     _EUSART_is_tx_ready$283:	
  3345                           ; 2 bytes @ 0x0
  3346                           
  3347  0070                     EUSART_Write@txData:	
  3348                           ; 1 bytes @ 0x0
  3349                           
  3350  0070                     FLASH_Erase@INR_state:	
  3351                           ; 1 bytes @ 0x0
  3352                           
  3353  0070                     EUSART_SetFramingErrorHandler@interruptHandler:	
  3354                           ; 1 bytes @ 0x0
  3355                           
  3356  0070                     EUSART_SetOverrunErrorHandler@interruptHandler:	
  3357                           ; 2 bytes @ 0x0
  3358                           
  3359  0070                     EUSART_SetErrorHandler@interruptHandler:	
  3360                           ; 2 bytes @ 0x0
  3361                           
  3362  0070                     FLASH_Read@addr:	
  3363                           ; 2 bytes @ 0x0
  3364                           
  3365                           
  3366                           ; 2 bytes @ 0x0
  3367  0070                     	ds	1
  3368  0071                     ?_UART_dataWrite:
  3369  0071                     ClearArray@array:	
  3370                           ; 1 bytes @ 0x1
  3371                           
  3372  0071                     DefineError@send_frame:	
  3373                           ; 1 bytes @ 0x1
  3374                           
  3375  0071                     UART_dataWrite@size:	
  3376                           ; 1 bytes @ 0x1
  3377                           
  3378  0071                     UART_preamFound@byte:	
  3379                           ; 1 bytes @ 0x1
  3380                           
  3381  0071                     FLASH_Erase@buffer:	
  3382                           ; 1 bytes @ 0x1
  3383                           
  3384                           
  3385                           ; 1 bytes @ 0x1
  3386  0071                     	ds	1
  3387  0072                     ??_EUSART_SetFramingErrorHandler:
  3388  0072                     ??_EUSART_SetOverrunErrorHandler:	
  3389                           ; 1 bytes @ 0x2
  3390                           
  3391  0072                     ??_EUSART_SetErrorHandler:	
  3392                           ; 1 bytes @ 0x2
  3393                           
  3394  0072                     ?_EraseRowMem:	
  3395                           ; 1 bytes @ 0x2
  3396                           
  3397  0072                     ??_UART_dataWrite:	
  3398                           ; 1 bytes @ 0x2
  3399                           
  3400  0072                     ??_FLASH_Read:	
  3401                           ; 1 bytes @ 0x2
  3402                           
  3403  0072                     ??_EUSART_Initialize:	
  3404                           ; 1 bytes @ 0x2
  3405                           
  3406  0072                     ??_SYSTEM_Initialize:	
  3407                           ; 1 bytes @ 0x2
  3408                           
  3409  0072                     ClearArray@i:	
  3410                           ; 1 bytes @ 0x2
  3411                           
  3412  0072                     EraseRowMem@send_frame:	
  3413                           ; 1 bytes @ 0x2
  3414                           
  3415                           
  3416                           ; 1 bytes @ 0x2
  3417  0072                     	ds	1
  3418  0073                     ??_EraseRowMem:
  3419  0073                     UART_dataWrite@data_ptr:	
  3420                           ; 1 bytes @ 0x3
  3421                           
  3422                           
  3423                           ; 1 bytes @ 0x3
  3424  0073                     	ds	1
  3425  0074                     EraseRowMem@recv_frame:
  3426  0074                     UART_dataWrite@i:	
  3427                           ; 1 bytes @ 0x4
  3428                           
  3429  0074                     FLASH_Read@INR_state:	
  3430                           ; 1 bytes @ 0x4
  3431                           
  3432                           
  3433                           ; 1 bytes @ 0x4
  3434  0074                     	ds	1
  3435  0075                     ?_ReadFromMem:
  3436  0075                     ReadFromMem@send_frame:	
  3437                           ; 1 bytes @ 0x5
  3438                           
  3439                           
  3440                           ; 1 bytes @ 0x5
  3441  0075                     	ds	1
  3442  0076                     ??_ReadFromMem:
  3443                           
  3444                           ; 1 bytes @ 0x6
  3445  0076                     	ds	1
  3446  0077                     FLASH_Write@INR_state:
  3447                           
  3448                           ; 1 bytes @ 0x7
  3449  0077                     	ds	1
  3450  0078                     FLASH_Write@writeAddr:
  3451                           
  3452                           ; 2 bytes @ 0x8
  3453  0078                     	ds	2
  3454  007A                     FLASH_Write@i:
  3455                           
  3456                           ; 1 bytes @ 0xA
  3457  007A                     	ds	1
  3458  007B                     FLASH_Write@buffer:
  3459                           
  3460                           ; 1 bytes @ 0xB
  3461  007B                     	ds	1
  3462  007C                     ?_WriteToMem:
  3463  007C                     WriteToMem@send_frame:	
  3464                           ; 1 bytes @ 0xC
  3465                           
  3466                           
  3467                           ; 1 bytes @ 0xC
  3468  007C                     	ds	1
  3469  007D                     ??_WriteToMem:
  3470                           
  3471                           ; 1 bytes @ 0xD
  3472  007D                     	ds	1
  3473                           
  3474                           	psect	cstackBANK0
  3475  0020                     __pcstackBANK0:
  3476  0020                     WriteToMem@recv_frame:
  3477  0020                     ReadFromMem@def_addr:	
  3478                           ; 1 bytes @ 0x0
  3479                           
  3480                           
  3481                           ; 2 bytes @ 0x0
  3482  0020                     	ds	1
  3483  0021                     WriteToMem@result:
  3484                           
  3485                           ; 1 bytes @ 0x1
  3486  0021                     	ds	1
  3487  0022                     ReadFromMem@recv_frame:
  3488                           
  3489                           ; 1 bytes @ 0x2
  3490  0022                     	ds	1
  3491  0023                     ReadFromMem@dbyte:
  3492                           
  3493                           ; 2 bytes @ 0x3
  3494  0023                     	ds	2
  3495  0025                     ReadFromMem@i:
  3496                           
  3497                           ; 1 bytes @ 0x5
  3498  0025                     	ds	1
  3499  0026                     ??_main:
  3500                           
  3501                           ; 1 bytes @ 0x6
  3502  0026                     	ds	2
  3503  0028                     main@send_frame:
  3504                           
  3505                           ; 66 bytes @ 0x8
  3506  0028                     	ds	67
  3507  006B                     main@processing_status:
  3508                           
  3509                           ; 1 bytes @ 0x4B
  3510  006B                     	ds	1
  3511  006C                     main@i:
  3512                           
  3513                           ; 1 bytes @ 0x4C
  3514  006C                     	ds	1
  3515                           
  3516                           	psect	maintext
  3517  0745                     __pmaintext:	
  3518 ;;
  3519 ;;Main: autosize = 0, tempsize = 2, incstack = 0, save=0
  3520 ;;
  3521 ;; *************** function _main *****************
  3522 ;; Defined at:
  3523 ;;		line 49 in file "main.c"
  3524 ;; Parameters:    Size  Location     Type
  3525 ;;		None
  3526 ;; Auto vars:     Size  Location     Type
  3527 ;;  recv_frame     68    0[BANK1 ] unsigned char [68]
  3528 ;;  send_frame     66    8[BANK0 ] unsigned char [66]
  3529 ;;  i               1   76[BANK0 ] unsigned char 
  3530 ;;  processing_s    1   75[BANK0 ] _Bool 
  3531 ;;  byte            1    0        unsigned char 
  3532 ;; Return value:  Size  Location     Type
  3533 ;;                  1    wreg      void 
  3534 ;; Registers used:
  3535 ;;		wreg, fsr0l, fsr0h, fsr1l, fsr1h, status,2, status,0, pclath, cstack
  3536 ;; Tracked objects:
  3537 ;;		On entry : B1F/0
  3538 ;;		On exit  : 0/0
  3539 ;;		Unchanged: 0/0
  3540 ;; Data sizes:     COMMON   BANK0   BANK1   BANK2   BANK3   BANK4   BANK5   BANK6   BANK7   BANK8   BANK9  BANK10  BANK1
      +1  BANK12  BANK13  BANK14  BANK15  BANK16  BANK17  BANK18  BANK19  BANK20  BANK21  BANK22  BANK23  BANK24  BANK25
  3541 ;;      Params:         0       0       0       0       0       0       0       0       0       0       0       0       
      +0       0       0       0       0       0       0       0       0       0       0       0       0       0       0
  3542 ;;      Locals:         0      69      68       0       0       0       0       0       0       0       0       0       
      +0       0       0       0       0       0       0       0       0       0       0       0       0       0       0
  3543 ;;      Temps:          0       2       0       0       0       0       0       0       0       0       0       0       
      +0       0       0       0       0       0       0       0       0       0       0       0       0       0       0
  3544 ;;      Totals:         0      71      68       0       0       0       0       0       0       0       0       0       
      +0       0       0       0       0       0       0       0       0       0       0       0       0       0       0
  3545 ;;Total ram usage:      139 bytes
  3546 ;; Hardware stack levels required when called:    3
  3547 ;; This function calls:
  3548 ;;		_ClearArray
  3549 ;;		_DefineError
  3550 ;;		_EraseRowMem
  3551 ;;		_ReadFromMem
  3552 ;;		_SYSTEM_Initialize
  3553 ;;		_UART_byteRead
  3554 ;;		_UART_dataWrite
  3555 ;;		_UART_preamFound
  3556 ;;		_WriteToMem
  3557 ;; This function is called by:
  3558 ;;		Startup code after reset
  3559 ;; This function uses a non-reentrant model
  3560 ;;
  3561                           
  3562                           
  3563                           ;psect for function _main
  3564  0745                     _main:
  3565  0745                     l1909:	
  3566                           ;incstack = 0
  3567                           ; Regs used in _main: [wreg-fsr1h+status,2+status,0+pclath+cstack]
  3568                           
  3569                           
  3570                           ;main.c: 53:     SYSTEM_Initialize();
  3571  0745  3184  24B0  3187   	fcall	_SYSTEM_Initialize
  3572  0748                     l1911:
  3573  0748                     l1913:
  3574  0748                     l1915:
  3575  0748                     l1917:
  3576                           
  3577                           ;main.c: 61:     ClearArray(recv_frame);
  3578  0748  30A0               	movlw	(low (main@recv_frame| 0))& (0+255)
  3579  0749  3184  24D1  3187   	fcall	_ClearArray
  3580  074C                     l1919:
  3581                           
  3582                           ;main.c: 62:     ClearArray(send_frame);
  3583  074C  3028               	movlw	(low (main@send_frame| 0))& (0+255)
  3584  074D  3184  24D1  3187   	fcall	_ClearArray
  3585  0750                     l1921:
  3586                           
  3587                           ;main.c: 69:     TRISE = 0x00;
  3588  0750  0021               	movlb	1	; select bank1
  3589  0751  0190               	clrf	16	;volatile
  3590  0752                     l1923:
  3591                           
  3592                           ;main.c: 70:     LATE = 0x00;
  3593  0752  0022               	movlb	2	; select bank2
  3594  0753  0190               	clrf	16	;volatile
  3595  0754                     l1925:
  3596  0754  1410               	bsf	16,0	;volatile
  3597  0755                     l291:	
  3598                           ;main.c: 86:     while (1)
  3599                           
  3600  0755  0064               	clrwdt	;# 
  3601  0756                     l1927:
  3602                           
  3603                           ;main.c: 92:         if (UART_preamFound())
  3604  0756  3184  24FB  3187   	fcall	_UART_preamFound
  3605  0759  3A00               	xorlw	0
  3606  075A  1903               	skipnz
  3607  075B  2F5D               	goto	u511
  3608  075C  2F5E               	goto	u510
  3609  075D                     u511:
  3610  075D  2F55               	goto	l291
  3611  075E                     u510:
  3612  075E                     l293:	
  3613                           ;main.c: 93:             {;main.c: 94:             do { LATEbits.LATE1 = 1; } while(0);
  3614                           
  3615  075E  0022               	movlb	2	; select bank2
  3616  075F  1490               	bsf	16,1	;volatile
  3617  0760                     l294:
  3618  0760  0064               	clrwdt	;# 
  3619  0761                     l1929:
  3620                           
  3621                           ;main.c: 97:             recv_frame[0] = UART_byteRead();
  3622  0761  3184  2455  3187   	fcall	_UART_byteRead
  3623  0764  0020               	movlb	0	; select bank0
  3624  0765  00A6               	movwf	??_main
  3625  0766  0826               	movf	??_main,w
  3626  0767  0021               	movlb	1	; select bank1
  3627  0768  00A0               	movwf	main@recv_frame^(0+128)
  3628  0769                     l1931:
  3629                           
  3630                           ;main.c: 98:             if ((recv_frame[0] > 68) || (recv_frame[0] == 0x00 ))
  3631  0769  3045               	movlw	69
  3632  076A  0220               	subwf	main@recv_frame^(0+128),w
  3633  076B  1803               	skipnc
  3634  076C  2F6E               	goto	u521
  3635  076D  2F6F               	goto	u520
  3636  076E                     u521:
  3637  076E  2F74               	goto	l1935
  3638  076F                     u520:
  3639  076F                     l1933:
  3640  076F  0820               	movf	main@recv_frame^(0+128),w
  3641  0770  1D03               	btfss	3,2
  3642  0771  2F73               	goto	u531
  3643  0772  2F74               	goto	u530
  3644  0773                     u531:
  3645  0773  2F76               	goto	l295
  3646  0774                     u530:
  3647  0774                     l1935:
  3648                           
  3649                           ;main.c: 99:                 {;main.c: 100:                 recv_frame[1] = 0x00;
  3650  0774  01A1               	clrf	(main@recv_frame^(0+128)+1)
  3651                           
  3652                           ;main.c: 101:                 }
  3653  0775  2FC2               	goto	l1951
  3654  0776                     l295:	
  3655                           ;main.c: 102:             else{
  3656                           
  3657                           
  3658                           ;main.c: 103:                 for (i = 1; i < recv_frame[0]; i++)
  3659  0776  0020               	movlb	0	; select bank0
  3660  0777  01EC               	clrf	main@i
  3661  0778  0AEC               	incf	main@i,f
  3662  0779  2F89               	goto	l1941
  3663  077A                     l1937:
  3664                           
  3665                           ;main.c: 104:                     {;main.c: 105:                     recv_frame[i] = UAR
      +                          T_byteRead();
  3666  077A  3184  2455  3187   	fcall	_UART_byteRead
  3667  077D  0020               	movlb	0	; select bank0
  3668  077E  00A6               	movwf	??_main
  3669  077F  086C               	movf	main@i,w
  3670  0780  3EA0               	addlw	(low (main@recv_frame| 0))& (0+255)
  3671  0781  0086               	movwf	6
  3672  0782  0187               	clrf	7
  3673  0783  0826               	movf	??_main,w
  3674  0784  0081               	movwf	1
  3675  0785                     l1939:
  3676                           
  3677                           ;main.c: 106:                     }
  3678  0785  3001               	movlw	1
  3679  0786  00A6               	movwf	??_main
  3680  0787  0826               	movf	??_main,w
  3681  0788  07EC               	addwf	main@i,f
  3682  0789                     l1941:
  3683  0789  0021               	movlb	1	; select bank1
  3684  078A  0820               	movf	main@recv_frame^(0+128),w
  3685  078B  0020               	movlb	0	; select bank0
  3686  078C  026C               	subwf	main@i,w
  3687  078D  1C03               	skipc
  3688  078E  2F90               	goto	u541
  3689  078F  2F91               	goto	u540
  3690  0790                     u541:
  3691  0790  2F7A               	goto	l1937
  3692  0791                     u540:
  3693  0791  2FC2               	goto	l1951
  3694  0792                     l1943:
  3695                           
  3696                           ;main.c: 118:                     processing_status = ReadFromMem(recv_frame, send_frame
      +                          );
  3697  0792  3028               	movlw	(low (main@send_frame| 0))& (0+255)
  3698  0793  00A6               	movwf	??_main
  3699  0794  0826               	movf	??_main,w
  3700  0795  00F5               	movwf	ReadFromMem@send_frame
  3701  0796  30A0               	movlw	(low (main@recv_frame| 0))& (0+255)
  3702  0797  3186  260F  3187   	fcall	_ReadFromMem
  3703  079A  0020               	movlb	0	; select bank0
  3704  079B  00A7               	movwf	??_main+1
  3705  079C  0827               	movf	??_main+1,w
  3706  079D  00EB               	movwf	main@processing_status
  3707                           
  3708                           ;main.c: 119:                     break;
  3709  079E  2FD7               	goto	l1953
  3710  079F                     l1945:
  3711                           
  3712                           ;main.c: 122:                     processing_status = EraseRowMem(recv_frame, send_frame
      +                          );
  3713  079F  3028               	movlw	(low (main@send_frame| 0))& (0+255)
  3714  07A0  00A6               	movwf	??_main
  3715  07A1  0826               	movf	??_main,w
  3716  07A2  00F2               	movwf	EraseRowMem@send_frame
  3717  07A3  30A0               	movlw	(low (main@recv_frame| 0))& (0+255)
  3718  07A4  3184  24E6  3187   	fcall	_EraseRowMem
  3719  07A7  0020               	movlb	0	; select bank0
  3720  07A8  00A7               	movwf	??_main+1
  3721  07A9  0827               	movf	??_main+1,w
  3722  07AA  00EB               	movwf	main@processing_status
  3723                           
  3724                           ;main.c: 123:                     break;
  3725  07AB  2FD7               	goto	l1953
  3726  07AC                     l1947:
  3727                           
  3728                           ;main.c: 126:                     processing_status = WriteToMem(recv_frame, send_frame)
      +                          ;
  3729  07AC  3028               	movlw	(low (main@send_frame| 0))& (0+255)
  3730  07AD  00A6               	movwf	??_main
  3731  07AE  0826               	movf	??_main,w
  3732  07AF  00FC               	movwf	WriteToMem@send_frame
  3733  07B0  30A0               	movlw	(low (main@recv_frame| 0))& (0+255)
  3734  07B1  3185  2513  3187   	fcall	_WriteToMem
  3735  07B4  0020               	movlb	0	; select bank0
  3736  07B5  00A7               	movwf	??_main+1
  3737  07B6  0827               	movf	??_main+1,w
  3738  07B7  00EB               	movwf	main@processing_status
  3739                           
  3740                           ;main.c: 127:                     break;
  3741  07B8  2FD7               	goto	l1953
  3742  07B9                     l1949:
  3743                           
  3744                           ;main.c: 130:                     processing_status = DefineError(send_frame);
  3745  07B9  3028               	movlw	(low (main@send_frame| 0))& (0+255)
  3746  07BA  3184  24C0  3187   	fcall	_DefineError
  3747  07BD  0020               	movlb	0	; select bank0
  3748  07BE  00A6               	movwf	??_main
  3749  07BF  0826               	movf	??_main,w
  3750  07C0  00EB               	movwf	main@processing_status
  3751                           
  3752                           ;main.c: 131:                 }
  3753  07C1  2FD7               	goto	l1953
  3754  07C2                     l1951:
  3755  07C2  0021               	movlb	1	; select bank1
  3756  07C3  0821               	movf	(main@recv_frame^(0+128)+1),w
  3757  07C4  0020               	movlb	0	; select bank0
  3758  07C5  00A6               	movwf	??_main
  3759  07C6  01A7               	clrf	??_main+1
  3760                           
  3761                           ; Switch on 2 bytes has been partitioned into a top level switch of size 1, and 1 sub-sw
      +                          itches
  3762                           ; Switch size 1, requested type "simple"
  3763                           ; Number of cases is 1, Range of values is 0 to 0
  3764                           ; switch strategies available:
  3765                           ; Name         Instructions Cycles
  3766                           ; simple_byte            4     3 (average)
  3767                           ; direct_byte            8     6 (fixed)
  3768                           ; jumptable            260     6 (fixed)
  3769                           ;	Chosen strategy is simple_byte
  3770  07C7  0827               	movf	??_main+1,w
  3771  07C8  3A00               	xorlw	0	; case 0
  3772  07C9  1903               	skipnz
  3773  07CA  2FCC               	goto	l1991
  3774  07CB  2FB9               	goto	l1949
  3775  07CC                     l1991:
  3776                           
  3777                           ; Switch size 1, requested type "simple"
  3778                           ; Number of cases is 3, Range of values is 2 to 4
  3779                           ; switch strategies available:
  3780                           ; Name         Instructions Cycles
  3781                           ; simple_byte           10     6 (average)
  3782                           ; direct_byte           15     9 (fixed)
  3783                           ; jumptable            263     9 (fixed)
  3784                           ;	Chosen strategy is simple_byte
  3785  07CC  0826               	movf	??_main,w
  3786  07CD  3A02               	xorlw	2	; case 2
  3787  07CE  1903               	skipnz
  3788  07CF  2F92               	goto	l1943
  3789  07D0  3A01               	xorlw	1	; case 3
  3790  07D1  1903               	skipnz
  3791  07D2  2F9F               	goto	l1945
  3792  07D3  3A07               	xorlw	7	; case 4
  3793  07D4  1903               	skipnz
  3794  07D5  2FAC               	goto	l1947
  3795  07D6  2FB9               	goto	l1949
  3796  07D7                     l1953:
  3797                           
  3798                           ;main.c: 134:             if (!((processing_status == 1) && (send_frame[0] != 0x00)))
  3799  07D7  036B               	decf	main@processing_status,w
  3800  07D8  1D03               	btfss	3,2
  3801  07D9  2FDB               	goto	u551
  3802  07DA  2FDC               	goto	u550
  3803  07DB                     u551:
  3804  07DB  2FE1               	goto	l1957
  3805  07DC                     u550:
  3806  07DC                     l1955:
  3807  07DC  0828               	movf	main@send_frame,w
  3808  07DD  1D03               	btfss	3,2
  3809  07DE  2FE0               	goto	u561
  3810  07DF  2FE1               	goto	u560
  3811  07E0                     u561:
  3812  07E0  2FE5               	goto	l308
  3813  07E1                     u560:
  3814  07E1                     l1957:
  3815                           
  3816                           ;main.c: 135:                 {;main.c: 136:                 DefineError(send_frame);
  3817  07E1  3028               	movlw	(low (main@send_frame| 0))& (0+255)
  3818  07E2  3184  24C0  3187   	fcall	_DefineError
  3819  07E5                     l308:	
  3820                           ;main.c: 137:                 }
  3821                           
  3822                           
  3823                           ;main.c: 139:                 UART_dataWrite(send_frame, send_frame[0]);
  3824  07E5  0020               	movlb	0	; select bank0
  3825  07E6  0828               	movf	main@send_frame,w
  3826  07E7  00A6               	movwf	??_main
  3827  07E8  0826               	movf	??_main,w
  3828  07E9  00F1               	movwf	UART_dataWrite@size
  3829  07EA  3028               	movlw	(low (main@send_frame| 0))& (0+255)
  3830  07EB  3185  25A2  3187   	fcall	_UART_dataWrite
  3831  07EE                     l1959:
  3832  07EE                     l1961:
  3833                           
  3834                           ;main.c: 141:             ClearArray(recv_frame);
  3835  07EE  30A0               	movlw	(low (main@recv_frame| 0))& (0+255)
  3836  07EF  3184  24D1  3187   	fcall	_ClearArray
  3837  07F2                     l1963:
  3838                           
  3839                           ;main.c: 142:             ClearArray(send_frame);
  3840  07F2  3028               	movlw	(low (main@send_frame| 0))& (0+255)
  3841  07F3  3184  24D1  3187   	fcall	_ClearArray
  3842  07F6                     l1965:
  3843  07F6  0022               	movlb	2	; select bank2
  3844  07F7  1090               	bcf	16,1	;volatile
  3845  07F8  2F55               	goto	l291
  3846  07F9  3180  2802         	ljmp	start
  3847  07FB                     __end_of_main:
  3848                           
  3849                           	psect	text1
  3850  0513                     __ptext1:	
  3851 ;; *************** function _WriteToMem *****************
  3852 ;; Defined at:
  3853 ;;		line 67 in file "apps/src/bootloader.c"
  3854 ;; Parameters:    Size  Location     Type
  3855 ;;  recv_frame      1    wreg     PTR unsigned char 
  3856 ;;		 -> main@recv_frame(68), 
  3857 ;;  send_frame      1   12[COMMON] PTR unsigned char 
  3858 ;;		 -> main@send_frame(66), 
  3859 ;; Auto vars:     Size  Location     Type
  3860 ;;  recv_frame      1    0[BANK0 ] PTR unsigned char 
  3861 ;;		 -> main@recv_frame(68), 
  3862 ;;  result          1    1[BANK0 ] _Bool 
  3863 ;; Return value:  Size  Location     Type
  3864 ;;                  1    wreg      _Bool 
  3865 ;; Registers used:
  3866 ;;		wreg, fsr1l, fsr1h, status,2, status,0, pclath, cstack
  3867 ;; Tracked objects:
  3868 ;;		On entry : 0/0
  3869 ;;		On exit  : 0/0
  3870 ;;		Unchanged: 0/0
  3871 ;; Data sizes:     COMMON   BANK0   BANK1   BANK2   BANK3   BANK4   BANK5   BANK6   BANK7   BANK8   BANK9  BANK10  BANK1
      +1  BANK12  BANK13  BANK14  BANK15  BANK16  BANK17  BANK18  BANK19  BANK20  BANK21  BANK22  BANK23  BANK24  BANK25
  3872 ;;      Params:         1       0       0       0       0       0       0       0       0       0       0       0       
      +0       0       0       0       0       0       0       0       0       0       0       0       0       0       0
  3873 ;;      Locals:         0       2       0       0       0       0       0       0       0       0       0       0       
      +0       0       0       0       0       0       0       0       0       0       0       0       0       0       0
  3874 ;;      Temps:          1       0       0       0       0       0       0       0       0       0       0       0       
      +0       0       0       0       0       0       0       0       0       0       0       0       0       0       0
  3875 ;;      Totals:         2       2       0       0       0       0       0       0       0       0       0       0       
      +0       0       0       0       0       0       0       0       0       0       0       0       0       0       0
  3876 ;;Total ram usage:        4 bytes
  3877 ;; Hardware stack levels used:    1
  3878 ;; Hardware stack levels required when called:    1
  3879 ;; This function calls:
  3880 ;;		_FLASH_Write
  3881 ;; This function is called by:
  3882 ;;		_main
  3883 ;; This function uses a non-reentrant model
  3884 ;;
  3885                           
  3886                           
  3887                           ;psect for function _WriteToMem
  3888  0513                     _WriteToMem:
  3889                           
  3890                           ;incstack = 0
  3891                           ; Regs used in _WriteToMem: [wreg+fsr1l+fsr1h+status,2+status,0+pclath+cstack]
  3892                           ;WriteToMem@recv_frame stored from wreg
  3893  0513  0020               	movlb	0	; select bank0
  3894  0514  00A0               	movwf	WriteToMem@recv_frame
  3895  0515                     l1875:
  3896                           
  3897                           ;apps/src/bootloader.c: 68:  _Bool result;;apps/src/bootloader.c: 70:  result = FLASH_Wr
      +                          ite(recv_frame);
  3898  0515  0820               	movf	WriteToMem@recv_frame,w
  3899  0516  3186  26A2  3185   	fcall	_FLASH_Write
  3900  0519  00FD               	movwf	??_WriteToMem
  3901  051A  087D               	movf	??_WriteToMem,w
  3902  051B  0020               	movlb	0	; select bank0
  3903  051C  00A1               	movwf	WriteToMem@result
  3904  051D                     l1877:
  3905                           
  3906                           ;apps/src/bootloader.c: 71:  if (result) {
  3907  051D  0821               	movf	WriteToMem@result,w
  3908  051E  1903               	btfsc	3,2
  3909  051F  2D21               	goto	u471
  3910  0520  2D22               	goto	u470
  3911  0521                     u471:
  3912  0521  2D30               	goto	l1881
  3913  0522                     u470:
  3914  0522                     l1879:
  3915                           
  3916                           ;apps/src/bootloader.c: 72:  send_frame[0] = 0x02;
  3917  0522  3002               	movlw	2
  3918  0523  00FD               	movwf	??_WriteToMem
  3919  0524  087C               	movf	WriteToMem@send_frame,w
  3920  0525  0086               	movwf	6
  3921  0526  0187               	clrf	7
  3922  0527  087D               	movf	??_WriteToMem,w
  3923  0528  0081               	movwf	1
  3924                           
  3925                           ;apps/src/bootloader.c: 73:  send_frame[1] = 0x04;
  3926  0529  3004               	movlw	4
  3927  052A  00FD               	movwf	??_WriteToMem
  3928  052B  0A7C               	incf	WriteToMem@send_frame,w
  3929  052C  0086               	movwf	6
  3930  052D  0187               	clrf	7
  3931  052E  087D               	movf	??_WriteToMem,w
  3932  052F  0081               	movwf	1
  3933  0530                     l1881:
  3934                           
  3935                           ;apps/src/bootloader.c: 75:  return result;
  3936  0530  0821               	movf	WriteToMem@result,w
  3937  0531                     l343:
  3938  0531  0008               	return
  3939  0532                     __end_of_WriteToMem:
  3940                           
  3941                           	psect	text2
  3942  06A2                     __ptext2:	
  3943 ;; *************** function _FLASH_Write *****************
  3944 ;; Defined at:
  3945 ;;		line 70 in file "apps/src/memory.c"
  3946 ;; Parameters:    Size  Location     Type
  3947 ;;  buffer          1    wreg     PTR unsigned char 
  3948 ;;		 -> main@recv_frame(68), 
  3949 ;; Auto vars:     Size  Location     Type
  3950 ;;  buffer          1   11[COMMON] PTR unsigned char 
  3951 ;;		 -> main@recv_frame(68), 
  3952 ;;  writeAddr       2    8[COMMON] unsigned short 
  3953 ;;  i               1   10[COMMON] unsigned char 
  3954 ;;  INR_state       1    7[COMMON] unsigned char 
  3955 ;;  uuu             1    0        unsigned char [1]
  3956 ;; Return value:  Size  Location     Type
  3957 ;;                  1    wreg      _Bool 
  3958 ;; Registers used:
  3959 ;;		wreg, fsr1l, fsr1h, status,2, status,0
  3960 ;; Tracked objects:
  3961 ;;		On entry : 0/0
  3962 ;;		On exit  : 0/0
  3963 ;;		Unchanged: 0/0
  3964 ;; Data sizes:     COMMON   BANK0   BANK1   BANK2   BANK3   BANK4   BANK5   BANK6   BANK7   BANK8   BANK9  BANK10  BANK1
      +1  BANK12  BANK13  BANK14  BANK15  BANK16  BANK17  BANK18  BANK19  BANK20  BANK21  BANK22  BANK23  BANK24  BANK25
  3965 ;;      Params:         0       0       0       0       0       0       0       0       0       0       0       0       
      +0       0       0       0       0       0       0       0       0       0       0       0       0       0       0
  3966 ;;      Locals:         5       0       0       0       0       0       0       0       0       0       0       0       
      +0       0       0       0       0       0       0       0       0       0       0       0       0       0       0
  3967 ;;      Temps:          7       0       0       0       0       0       0       0       0       0       0       0       
      +0       0       0       0       0       0       0       0       0       0       0       0       0       0       0
  3968 ;;      Totals:        12       0       0       0       0       0       0       0       0       0       0       0       
      +0       0       0       0       0       0       0       0       0       0       0       0       0       0       0
  3969 ;;Total ram usage:       12 bytes
  3970 ;; Hardware stack levels used:    1
  3971 ;; This function calls:
  3972 ;;		Nothing
  3973 ;; This function is called by:
  3974 ;;		_WriteToMem
  3975 ;; This function uses a non-reentrant model
  3976 ;;
  3977                           
  3978                           
  3979                           ;psect for function _FLASH_Write
  3980  06A2                     _FLASH_Write:
  3981                           
  3982                           ;incstack = 0
  3983                           ; Regs used in _FLASH_Write: [wreg+fsr1l+fsr1h+status,2+status,0]
  3984                           ;FLASH_Write@buffer stored from wreg
  3985  06A2  00FB               	movwf	FLASH_Write@buffer
  3986  06A3                     l1697:
  3987                           
  3988                           ;apps/src/memory.c: 71:     uint8_t i, INR_state;;apps/src/memory.c: 73:     uint16_t wr
      +                          iteAddr;;apps/src/memory.c: 74:     uint8_t uuu[1];;apps/src/memory.c: 75:     INR_state
      +                           = INTCONbits.GIE;
  3989  06A3  3000               	movlw	0
  3990  06A4  1B8B               	btfsc	11,7	;volatile
  3991  06A5  3001               	movlw	1
  3992  06A6  00F7               	movwf	FLASH_Write@INR_state
  3993  06A7                     l1699:
  3994                           
  3995                           ;apps/src/memory.c: 77:     INTCONbits.GIE = 0;
  3996  06A7  138B               	bcf	11,7	;volatile
  3997  06A8                     l1701:
  3998                           
  3999                           ;apps/src/memory.c: 82:     writeAddr = (uint16_t)(((buffer[2] << 8) & 0xFF00) | (buffer
      +                          [3] & 0x00FF));
  4000  06A8  087B               	movf	FLASH_Write@buffer,w
  4001  06A9  3E03               	addlw	3
  4002  06AA  0086               	movwf	6
  4003  06AB  0187               	clrf	7
  4004  06AC  0801               	movf	1,w
  4005  06AD  00F0               	movwf	??_FLASH_Write
  4006  06AE  01F1               	clrf	??_FLASH_Write+1
  4007  06AF  087B               	movf	FLASH_Write@buffer,w
  4008  06B0  3E02               	addlw	2
  4009  06B1  0086               	movwf	6
  4010  06B2  0187               	clrf	7
  4011  06B3  0801               	movf	1,w
  4012  06B4  00F2               	movwf	??_FLASH_Write+2
  4013  06B5  01F3               	clrf	??_FLASH_Write+3
  4014  06B6  0872               	movf	??_FLASH_Write+2,w
  4015  06B7  00F3               	movwf	??_FLASH_Write+3
  4016  06B8  01F2               	clrf	??_FLASH_Write+2
  4017  06B9  3000               	movlw	0
  4018  06BA  0572               	andwf	??_FLASH_Write+2,w
  4019  06BB  00F5               	movwf	??_FLASH_Write+5
  4020  06BC  30FF               	movlw	255
  4021  06BD  0573               	andwf	??_FLASH_Write+3,w
  4022  06BE  00F6               	movwf	??_FLASH_Write+6
  4023  06BF  0870               	movf	??_FLASH_Write,w
  4024  06C0  0475               	iorwf	??_FLASH_Write+5,w
  4025  06C1  00F8               	movwf	FLASH_Write@writeAddr
  4026  06C2  0871               	movf	??_FLASH_Write+1,w
  4027  06C3  0476               	iorwf	??_FLASH_Write+6,w
  4028  06C4  00F9               	movwf	FLASH_Write@writeAddr+1
  4029  06C5                     l1703:
  4030                           
  4031                           ;apps/src/memory.c: 84:         EEADRH = (uint8_t)((writeAddr & 0xFF00)>>8);
  4032  06C5  0879               	movf	FLASH_Write@writeAddr+1,w
  4033  06C6  0023               	movlb	3	; select bank3
  4034  06C7  0092               	movwf	18	;volatile
  4035  06C8                     l1705:
  4036                           
  4037                           ;apps/src/memory.c: 85:         EEADRL = (uint8_t)(writeAddr & 0x00FF);
  4038  06C8  0878               	movf	FLASH_Write@writeAddr,w
  4039  06C9  0091               	movwf	17	;volatile
  4040  06CA                     l1707:
  4041                           
  4042                           ;apps/src/memory.c: 87:     EECON1bits.EEPGD = 1;
  4043  06CA  1795               	bsf	21,7	;volsfr
  4044  06CB                     l1709:
  4045                           
  4046                           ;apps/src/memory.c: 88:     EECON1bits.WRERR = 0;
  4047  06CB  1195               	bcf	21,3	;volsfr
  4048  06CC                     l1711:
  4049                           
  4050                           ;apps/src/memory.c: 89:     EECON1bits.WREN = 1;
  4051  06CC  1515               	bsf	21,2	;volsfr
  4052  06CD                     l1713:
  4053                           
  4054                           ;apps/src/memory.c: 91:     if (buffer[2] == 0x80){
  4055  06CD  087B               	movf	FLASH_Write@buffer,w
  4056  06CE  3E02               	addlw	2
  4057  06CF  0086               	movwf	6
  4058  06D0  0187               	clrf	7
  4059  06D1  3080               	movlw	128
  4060  06D2  0601               	xorwf	1,w
  4061  06D3  1D03               	btfss	3,2
  4062  06D4  2ED6               	goto	u381
  4063  06D5  2ED7               	goto	u380
  4064  06D6                     u381:
  4065  06D6  2EE3               	goto	l402
  4066  06D7                     u380:
  4067  06D7                     l1715:
  4068                           
  4069                           ;apps/src/memory.c: 92:             EECON1bits.CFGS = 1;
  4070  06D7  1715               	bsf	21,6	;volsfr
  4071  06D8                     l1717:
  4072                           
  4073                           ;apps/src/memory.c: 93:             EEDATH = buffer[4];
  4074  06D8  087B               	movf	FLASH_Write@buffer,w
  4075  06D9  0086               	movwf	6
  4076  06DA  0187               	clrf	7
  4077  06DB  3F44               	moviw [4]fsr1
  4078  06DC  0094               	movwf	20	;volatile
  4079                           
  4080                           ;apps/src/memory.c: 94:             EEDATL = buffer[5];
  4081  06DD  087B               	movf	FLASH_Write@buffer,w
  4082  06DE  0086               	movwf	6
  4083  06DF  0187               	clrf	7
  4084  06E0  3F45               	moviw [5]fsr1
  4085  06E1  0093               	movwf	19	;volatile
  4086                           
  4087                           ;apps/src/memory.c: 95:     } else {
  4088  06E2  2F28               	goto	l1763
  4089  06E3                     l402:
  4090                           
  4091                           ;apps/src/memory.c: 98:     EECON1bits.CFGS = 0;
  4092  06E3  1315               	bcf	21,6	;volsfr
  4093                           
  4094                           ;apps/src/memory.c: 99:     EECON1bits.FREE = 1;
  4095  06E4  1615               	bsf	21,4	;volsfr
  4096  06E5                     l1719:
  4097                           
  4098                           ;apps/src/memory.c: 101:     EECON2 = 0x55;
  4099  06E5  3055               	movlw	85
  4100  06E6  0096               	movwf	22	;volsfr
  4101                           
  4102                           ;apps/src/memory.c: 102:     EECON2 = 0xAA;
  4103  06E7  30AA               	movlw	170
  4104  06E8  0096               	movwf	22	;volsfr
  4105  06E9                     l1721:
  4106                           
  4107                           ;apps/src/memory.c: 103:     EECON1bits.WR = 1;
  4108  06E9  1495               	bsf	21,1	;volsfr
  4109  06EA                     l1723:
  4110                           
  4111                           ;apps/src/memory.c: 104:     __nop();
  4112  06EA  0000               	nop
  4113  06EB                     l1725:
  4114                           
  4115                           ;apps/src/memory.c: 105:     __nop();
  4116  06EB  0000               	nop
  4117                           
  4118                           ;apps/src/memory.c: 106:     _delay((unsigned long)((0x000A)*(16000000/4000.0)));
  4119  06EC  3034               	movlw	52
  4120  06ED  00F0               	movwf	??_FLASH_Write
  4121  06EE  30F2               	movlw	242
  4122  06EF                     u577:
  4123  06EF  0B89               	decfsz	9,f
  4124  06F0  2EEF               	goto	u577
  4125  06F1  0BF0               	decfsz	??_FLASH_Write,f
  4126  06F2  2EEF               	goto	u577
  4127  06F3                     l1727:
  4128                           
  4129                           ;apps/src/memory.c: 108:     if (EECON1bits.FREE){
  4130  06F3  0023               	movlb	3	; select bank3
  4131  06F4  1E15               	btfss	21,4	;volsfr
  4132  06F5  2EF7               	goto	u391
  4133  06F6  2EF8               	goto	u390
  4134  06F7                     u391:
  4135  06F7  2EFA               	goto	l404
  4136  06F8                     u390:
  4137  06F8                     l1729:
  4138                           
  4139                           ;apps/src/memory.c: 109:             return 0;
  4140  06F8  3000               	movlw	0
  4141  06F9  2F44               	goto	l405
  4142  06FA                     l404:	
  4143                           ;apps/src/memory.c: 110:     }
  4144                           
  4145                           
  4146                           ;apps/src/memory.c: 113:     EECON1bits.LWLO = 1;
  4147  06FA  1695               	bsf	21,5	;volsfr
  4148  06FB                     l1733:
  4149                           
  4150                           ;apps/src/memory.c: 114:         for (i = 0; i < 0x0020 + 0x0020; i += 2){
  4151  06FB  01FA               	clrf	FLASH_Write@i
  4152  06FC                     l1739:
  4153                           
  4154                           ;apps/src/memory.c: 115:         EEADRH = (uint8_t)((writeAddr & 0xFF00)>>8);
  4155  06FC  0879               	movf	FLASH_Write@writeAddr+1,w
  4156  06FD  0023               	movlb	3	; select bank3
  4157  06FE  0092               	movwf	18	;volatile
  4158  06FF                     l1741:
  4159                           
  4160                           ;apps/src/memory.c: 116:         EEADRL = (uint8_t)(writeAddr & 0x00FF);
  4161  06FF  0878               	movf	FLASH_Write@writeAddr,w
  4162  0700  0091               	movwf	17	;volatile
  4163  0701                     l1743:
  4164                           
  4165                           ;apps/src/memory.c: 118:             EEDATH = buffer[i+4];
  4166  0701  087A               	movf	FLASH_Write@i,w
  4167  0702  077B               	addwf	FLASH_Write@buffer,w
  4168  0703  00F0               	movwf	??_FLASH_Write
  4169  0704  0870               	movf	??_FLASH_Write,w
  4170  0705  0086               	movwf	6
  4171  0706  0187               	clrf	7
  4172  0707  3F44               	moviw [4]fsr1
  4173  0708  0094               	movwf	20	;volatile
  4174  0709                     l1745:
  4175                           
  4176                           ;apps/src/memory.c: 119:             EEDATL = buffer[i+5];
  4177  0709  087A               	movf	FLASH_Write@i,w
  4178  070A  077B               	addwf	FLASH_Write@buffer,w
  4179  070B  00F0               	movwf	??_FLASH_Write
  4180  070C  0870               	movf	??_FLASH_Write,w
  4181  070D  0086               	movwf	6
  4182  070E  0187               	clrf	7
  4183  070F  3F45               	moviw [5]fsr1
  4184  0710  0093               	movwf	19	;volatile
  4185  0711                     l1747:
  4186                           
  4187                           ;apps/src/memory.c: 121:                 EECON2 = 0x55;
  4188  0711  3055               	movlw	85
  4189  0712  0096               	movwf	22	;volsfr
  4190  0713                     l1749:
  4191                           
  4192                           ;apps/src/memory.c: 122:                 EECON2 = 0xAA;
  4193  0713  30AA               	movlw	170
  4194  0714  0096               	movwf	22	;volsfr
  4195  0715                     l1751:
  4196                           
  4197                           ;apps/src/memory.c: 123:                 EECON1bits.WR = 1;
  4198  0715  1495               	bsf	21,1	;volsfr
  4199  0716                     l1753:
  4200                           
  4201                           ;apps/src/memory.c: 124:                 __nop();
  4202  0716  0000               	nop
  4203  0717                     l1755:
  4204                           
  4205                           ;apps/src/memory.c: 125:                 __nop();
  4206  0717  0000               	nop
  4207  0718                     l1757:
  4208                           
  4209                           ;apps/src/memory.c: 127:             writeAddr++;
  4210  0718  3001               	movlw	1
  4211  0719  07F8               	addwf	FLASH_Write@writeAddr,f
  4212  071A  3000               	movlw	0
  4213  071B  3DF9               	addwfc	FLASH_Write@writeAddr+1,f
  4214  071C                     l1759:
  4215                           
  4216                           ;apps/src/memory.c: 129:         }
  4217  071C  3002               	movlw	2
  4218  071D  00F0               	movwf	??_FLASH_Write
  4219  071E  0870               	movf	??_FLASH_Write,w
  4220  071F  07FA               	addwf	FLASH_Write@i,f
  4221  0720                     l1761:
  4222  0720  3040               	movlw	64
  4223  0721  027A               	subwf	FLASH_Write@i,w
  4224  0722  1C03               	skipc
  4225  0723  2F25               	goto	u401
  4226  0724  2F26               	goto	u400
  4227  0725                     u401:
  4228  0725  2EFC               	goto	l1739
  4229  0726                     u400:
  4230  0726                     l407:
  4231                           
  4232                           ;apps/src/memory.c: 130:     EECON1bits.LWLO = 0;
  4233  0726  0023               	movlb	3	; select bank3
  4234  0727  1295               	bcf	21,5	;volsfr
  4235  0728                     l1763:
  4236                           
  4237                           ;apps/src/memory.c: 134:         EECON2 = 0x55;
  4238  0728  3055               	movlw	85
  4239  0729  0096               	movwf	22	;volsfr
  4240                           
  4241                           ;apps/src/memory.c: 135:         EECON2 = 0xAA;
  4242  072A  30AA               	movlw	170
  4243  072B  0096               	movwf	22	;volsfr
  4244  072C                     l1765:
  4245                           
  4246                           ;apps/src/memory.c: 136:         EECON1bits.WR = 1;
  4247  072C  1495               	bsf	21,1	;volsfr
  4248  072D                     l1767:
  4249                           
  4250                           ;apps/src/memory.c: 137:         __nop();
  4251  072D  0000               	nop
  4252  072E                     l1769:
  4253                           
  4254                           ;apps/src/memory.c: 138:         __nop();
  4255  072E  0000               	nop
  4256                           
  4257                           ;apps/src/memory.c: 139:     _delay((unsigned long)((0x000A)*(16000000/4000.0)));
  4258  072F  3034               	movlw	52
  4259  0730  00F0               	movwf	??_FLASH_Write
  4260  0731  30F2               	movlw	242
  4261  0732                     u587:
  4262  0732  0B89               	decfsz	9,f
  4263  0733  2F32               	goto	u587
  4264  0734  0BF0               	decfsz	??_FLASH_Write,f
  4265  0735  2F32               	goto	u587
  4266  0736                     l1771:
  4267                           
  4268                           ;apps/src/memory.c: 141:     EECON1bits.CFGS = 0;
  4269  0736  0023               	movlb	3	; select bank3
  4270  0737  1315               	bcf	21,6	;volsfr
  4271  0738                     l1773:
  4272                           
  4273                           ;apps/src/memory.c: 142:     EECON1bits.WREN = 0;
  4274  0738  1115               	bcf	21,2	;volsfr
  4275  0739                     l1775:
  4276                           
  4277                           ;apps/src/memory.c: 143:     INTCONbits.GIE = INR_state;
  4278  0739  0C77               	rrf	FLASH_Write@INR_state,w
  4279  073A  1C03               	skipc
  4280  073B  138B               	bcf	11,7	;volatile
  4281  073C  1803               	skipnc
  4282  073D  178B               	bsf	11,7	;volatile
  4283  073E                     l1777:
  4284                           
  4285                           ;apps/src/memory.c: 144:     if (EECON1bits.WRERR){
  4286  073E  1D95               	btfss	21,3	;volsfr
  4287  073F  2F41               	goto	u411
  4288  0740  2F42               	goto	u410
  4289  0741                     u411:
  4290  0741  2F43               	goto	l1785
  4291  0742                     u410:
  4292  0742  2EF8               	goto	l1729
  4293  0743                     l1785:
  4294                           
  4295                           ;apps/src/memory.c: 147:         return 1;
  4296  0743  3001               	movlw	1
  4297  0744                     l405:
  4298  0744  0008               	return
  4299  0745                     __end_of_FLASH_Write:
  4300                           
  4301                           	psect	text3
  4302  04FB                     __ptext3:	
  4303 ;; *************** function _UART_preamFound *****************
  4304 ;; Defined at:
  4305 ;;		line 23 in file "apps/src/serial.c"
  4306 ;; Parameters:    Size  Location     Type
  4307 ;;		None
  4308 ;; Auto vars:     Size  Location     Type
  4309 ;;  byte            1    1[COMMON] unsigned char 
  4310 ;; Return value:  Size  Location     Type
  4311 ;;                  1    wreg      _Bool 
  4312 ;; Registers used:
  4313 ;;		wreg, status,2, status,0, pclath, cstack
  4314 ;; Tracked objects:
  4315 ;;		On entry : 0/0
  4316 ;;		On exit  : 0/0
  4317 ;;		Unchanged: 0/0
  4318 ;; Data sizes:     COMMON   BANK0   BANK1   BANK2   BANK3   BANK4   BANK5   BANK6   BANK7   BANK8   BANK9  BANK10  BANK1
      +1  BANK12  BANK13  BANK14  BANK15  BANK16  BANK17  BANK18  BANK19  BANK20  BANK21  BANK22  BANK23  BANK24  BANK25
  4319 ;;      Params:         0       0       0       0       0       0       0       0       0       0       0       0       
      +0       0       0       0       0       0       0       0       0       0       0       0       0       0       0
  4320 ;;      Locals:         1       0       0       0       0       0       0       0       0       0       0       0       
      +0       0       0       0       0       0       0       0       0       0       0       0       0       0       0
  4321 ;;      Temps:          1       0       0       0       0       0       0       0       0       0       0       0       
      +0       0       0       0       0       0       0       0       0       0       0       0       0       0       0
  4322 ;;      Totals:         2       0       0       0       0       0       0       0       0       0       0       0       
      +0       0       0       0       0       0       0       0       0       0       0       0       0       0       0
  4323 ;;Total ram usage:        2 bytes
  4324 ;; Hardware stack levels used:    1
  4325 ;; Hardware stack levels required when called:    1
  4326 ;; This function calls:
  4327 ;;		_EUSART_Read
  4328 ;;		_EUSART_is_rx_ready
  4329 ;; This function is called by:
  4330 ;;		_main
  4331 ;; This function uses a non-reentrant model
  4332 ;;
  4333                           
  4334                           
  4335                           ;psect for function _UART_preamFound
  4336  04FB                     _UART_preamFound:
  4337  04FB                     l1803:	
  4338                           ;incstack = 0
  4339                           ; Regs used in _UART_preamFound: [wreg+status,2+status,0+pclath+cstack]
  4340                           
  4341  04FB                     l1805:
  4342                           
  4343                           ;apps/src/serial.c: 25:     if (EUSART_is_rx_ready()){
  4344  04FB  3184  245D  3184   	fcall	_EUSART_is_rx_ready
  4345  04FE  3A00               	xorlw	0
  4346  04FF  1903               	skipnz
  4347  0500  2D02               	goto	u431
  4348  0501  2D03               	goto	u430
  4349  0502                     u431:
  4350  0502  2D11               	goto	l1815
  4351  0503                     u430:
  4352  0503                     l1807:
  4353                           
  4354                           ;apps/src/serial.c: 26:         byte = EUSART_Read();
  4355  0503  3184  2492  3184   	fcall	_EUSART_Read
  4356  0506  00F0               	movwf	??_UART_preamFound
  4357  0507  0870               	movf	??_UART_preamFound,w
  4358  0508  00F1               	movwf	UART_preamFound@byte
  4359  0509                     l1809:
  4360                           
  4361                           ;apps/src/serial.c: 27:         if (byte == 0x55){
  4362  0509  3055               	movlw	85
  4363  050A  0671               	xorwf	UART_preamFound@byte,w
  4364  050B  1D03               	btfss	3,2
  4365  050C  2D0E               	goto	u441
  4366  050D  2D0F               	goto	u440
  4367  050E                     u441:
  4368  050E  2D11               	goto	l1815
  4369  050F                     u440:
  4370  050F                     l1811:
  4371                           
  4372                           ;apps/src/serial.c: 28:             return 1;
  4373  050F  3001               	movlw	1
  4374  0510  2D12               	goto	l371
  4375  0511                     l1815:
  4376                           
  4377                           ;apps/src/serial.c: 31:     return 0;
  4378  0511  3000               	movlw	0
  4379  0512                     l371:
  4380  0512  0008               	return
  4381  0513                     __end_of_UART_preamFound:
  4382                           
  4383                           	psect	text4
  4384  045D                     __ptext4:	
  4385 ;; *************** function _EUSART_is_rx_ready *****************
  4386 ;; Defined at:
  4387 ;;		line 99 in file "mcc_generated_files/eusart.c"
  4388 ;; Parameters:    Size  Location     Type
  4389 ;;		None
  4390 ;; Auto vars:     Size  Location     Type
  4391 ;;		None
  4392 ;; Return value:  Size  Location     Type
  4393 ;;                  1    wreg      _Bool 
  4394 ;; Registers used:
  4395 ;;		wreg, status,2, status,0
  4396 ;; Tracked objects:
  4397 ;;		On entry : 0/0
  4398 ;;		On exit  : 0/0
  4399 ;;		Unchanged: 0/0
  4400 ;; Data sizes:     COMMON   BANK0   BANK1   BANK2   BANK3   BANK4   BANK5   BANK6   BANK7   BANK8   BANK9  BANK10  BANK1
      +1  BANK12  BANK13  BANK14  BANK15  BANK16  BANK17  BANK18  BANK19  BANK20  BANK21  BANK22  BANK23  BANK24  BANK25
  4401 ;;      Params:         0       0       0       0       0       0       0       0       0       0       0       0       
      +0       0       0       0       0       0       0       0       0       0       0       0       0       0       0
  4402 ;;      Locals:         0       0       0       0       0       0       0       0       0       0       0       0       
      +0       0       0       0       0       0       0       0       0       0       0       0       0       0       0
  4403 ;;      Temps:          0       0       0       0       0       0       0       0       0       0       0       0       
      +0       0       0       0       0       0       0       0       0       0       0       0       0       0       0
  4404 ;;      Totals:         0       0       0       0       0       0       0       0       0       0       0       0       
      +0       0       0       0       0       0       0       0       0       0       0       0       0       0       0
  4405 ;;Total ram usage:        0 bytes
  4406 ;; Hardware stack levels used:    1
  4407 ;; This function calls:
  4408 ;;		Nothing
  4409 ;; This function is called by:
  4410 ;;		_UART_preamFound
  4411 ;; This function uses a non-reentrant model
  4412 ;;
  4413                           
  4414                           
  4415                           ;psect for function _EUSART_is_rx_ready
  4416  045D                     _EUSART_is_rx_ready:
  4417  045D                     l1573:	
  4418                           ;incstack = 0
  4419                           ; Regs used in _EUSART_is_rx_ready: [wreg+status,2+status,0]
  4420                           
  4421                           
  4422                           ;mcc_generated_files/eusart.c: 101:     return (_Bool)(PIR1bits.RCIF);
  4423  045D  0020               	movlb	0	; select bank0
  4424  045E  0E11               	swapf	17,w	;volatile
  4425  045F  0C89               	rrf	9,f
  4426  0460  3901               	andlw	1
  4427  0461                     l112:
  4428  0461  0008               	return
  4429  0462                     __end_of_EUSART_is_rx_ready:
  4430                           
  4431                           	psect	text5
  4432  05A2                     __ptext5:	
  4433 ;; *************** function _UART_dataWrite *****************
  4434 ;; Defined at:
  4435 ;;		line 3 in file "apps/src/serial.c"
  4436 ;; Parameters:    Size  Location     Type
  4437 ;;  data_ptr        1    wreg     PTR unsigned char 
  4438 ;;		 -> main@send_frame(66), 
  4439 ;;  size            1    1[COMMON] unsigned char 
  4440 ;; Auto vars:     Size  Location     Type
  4441 ;;  data_ptr        1    3[COMMON] PTR unsigned char 
  4442 ;;		 -> main@send_frame(66), 
  4443 ;;  i               1    4[COMMON] unsigned char 
  4444 ;; Return value:  Size  Location     Type
  4445 ;;                  1    wreg      unsigned char 
  4446 ;; Registers used:
  4447 ;;		wreg, fsr1l, fsr1h, status,2, status,0, pclath, cstack
  4448 ;; Tracked objects:
  4449 ;;		On entry : 0/0
  4450 ;;		On exit  : 0/0
  4451 ;;		Unchanged: 0/0
  4452 ;; Data sizes:     COMMON   BANK0   BANK1   BANK2   BANK3   BANK4   BANK5   BANK6   BANK7   BANK8   BANK9  BANK10  BANK1
      +1  BANK12  BANK13  BANK14  BANK15  BANK16  BANK17  BANK18  BANK19  BANK20  BANK21  BANK22  BANK23  BANK24  BANK25
  4453 ;;      Params:         1       0       0       0       0       0       0       0       0       0       0       0       
      +0       0       0       0       0       0       0       0       0       0       0       0       0       0       0
  4454 ;;      Locals:         2       0       0       0       0       0       0       0       0       0       0       0       
      +0       0       0       0       0       0       0       0       0       0       0       0       0       0       0
  4455 ;;      Temps:          1       0       0       0       0       0       0       0       0       0       0       0       
      +0       0       0       0       0       0       0       0       0       0       0       0       0       0       0
  4456 ;;      Totals:         4       0       0       0       0       0       0       0       0       0       0       0       
      +0       0       0       0       0       0       0       0       0       0       0       0       0       0       0
  4457 ;;Total ram usage:        4 bytes
  4458 ;; Hardware stack levels used:    1
  4459 ;; Hardware stack levels required when called:    1
  4460 ;; This function calls:
  4461 ;;		_EUSART_Write
  4462 ;;		_EUSART_is_tx_done
  4463 ;;		_EUSART_is_tx_ready
  4464 ;; This function is called by:
  4465 ;;		_main
  4466 ;; This function uses a non-reentrant model
  4467 ;;
  4468                           
  4469                           
  4470                           ;psect for function _UART_dataWrite
  4471  05A2                     _UART_dataWrite:
  4472                           
  4473                           ;incstack = 0
  4474                           ; Regs used in _UART_dataWrite: [wreg+fsr1l+fsr1h+status,2+status,0+pclath+cstack]
  4475                           ;UART_dataWrite@data_ptr stored from wreg
  4476  05A2  00F3               	movwf	UART_dataWrite@data_ptr
  4477  05A3                     l1891:
  4478  05A3                     l1893:
  4479                           
  4480                           ;apps/src/serial.c: 5:     if (!EUSART_is_tx_done()){
  4481  05A3  3184  2459  3185   	fcall	_EUSART_is_tx_done
  4482  05A6  3A00               	xorlw	0
  4483  05A7  1D03               	skipz
  4484  05A8  2DAA               	goto	u481
  4485  05A9  2DAB               	goto	u480
  4486  05AA                     u481:
  4487  05AA  2DAF               	goto	l1897
  4488  05AB                     u480:
  4489  05AB                     l1895:
  4490                           
  4491                           ;apps/src/serial.c: 6:      _delay((unsigned long)((300)*(16000000/4000000.0)));
  4492  05AB  30F0               	movlw	240
  4493  05AC                     u597:
  4494  05AC  3200               	nop2
  4495  05AD  0B89               	decfsz	9,f
  4496  05AE  2DAC               	goto	u597
  4497  05AF                     l1897:
  4498                           
  4499                           ;apps/src/serial.c: 9:     if (EUSART_is_tx_ready()){
  4500  05AF  3184  24A1  3185   	fcall	_EUSART_is_tx_ready
  4501  05B2  3A00               	xorlw	0
  4502  05B3  1903               	skipnz
  4503  05B4  2DB6               	goto	u491
  4504  05B5  2DB7               	goto	u490
  4505  05B6                     u491:
  4506  05B6  2DD1               	goto	l363
  4507  05B7                     u490:
  4508  05B7                     l1899:
  4509                           
  4510                           ;apps/src/serial.c: 10:         EUSART_Write(0xAA);
  4511  05B7  30AA               	movlw	170
  4512  05B8  3184  247C  3185   	fcall	_EUSART_Write
  4513  05BB                     l1901:
  4514                           
  4515                           ;apps/src/serial.c: 11:         for (i = 0; i < size; i++){
  4516  05BB  01F4               	clrf	UART_dataWrite@i
  4517  05BC  2DCB               	goto	l1907
  4518  05BD                     l1903:
  4519                           
  4520                           ;apps/src/serial.c: 12:             EUSART_Write(data_ptr[i]);
  4521  05BD  0874               	movf	UART_dataWrite@i,w
  4522  05BE  0773               	addwf	UART_dataWrite@data_ptr,w
  4523  05BF  00F2               	movwf	??_UART_dataWrite
  4524  05C0  0872               	movf	??_UART_dataWrite,w
  4525  05C1  0086               	movwf	6
  4526  05C2  0187               	clrf	7
  4527  05C3  0801               	movf	1,w
  4528  05C4  3184  247C  3185   	fcall	_EUSART_Write
  4529  05C7                     l1905:
  4530                           
  4531                           ;apps/src/serial.c: 13:         }
  4532  05C7  3001               	movlw	1
  4533  05C8  00F2               	movwf	??_UART_dataWrite
  4534  05C9  0872               	movf	??_UART_dataWrite,w
  4535  05CA  07F4               	addwf	UART_dataWrite@i,f
  4536  05CB                     l1907:
  4537  05CB  0871               	movf	UART_dataWrite@size,w
  4538  05CC  0274               	subwf	UART_dataWrite@i,w
  4539  05CD  1C03               	skipc
  4540  05CE  2DD0               	goto	u501
  4541  05CF  2DD1               	goto	u500
  4542  05D0                     u501:
  4543  05D0  2DBD               	goto	l1903
  4544  05D1                     u500:
  4545  05D1                     l363:
  4546  05D1  0008               	return
  4547  05D2                     __end_of_UART_dataWrite:
  4548                           
  4549                           	psect	text6
  4550  04A1                     __ptext6:	
  4551 ;; *************** function _EUSART_is_tx_ready *****************
  4552 ;; Defined at:
  4553 ;;		line 94 in file "mcc_generated_files/eusart.c"
  4554 ;; Parameters:    Size  Location     Type
  4555 ;;		None
  4556 ;; Auto vars:     Size  Location     Type
  4557 ;;		None
  4558 ;; Return value:  Size  Location     Type
  4559 ;;                  1    wreg      _Bool 
  4560 ;; Registers used:
  4561 ;;		wreg, status,2
  4562 ;; Tracked objects:
  4563 ;;		On entry : 0/0
  4564 ;;		On exit  : 0/0
  4565 ;;		Unchanged: 0/0
  4566 ;; Data sizes:     COMMON   BANK0   BANK1   BANK2   BANK3   BANK4   BANK5   BANK6   BANK7   BANK8   BANK9  BANK10  BANK1
      +1  BANK12  BANK13  BANK14  BANK15  BANK16  BANK17  BANK18  BANK19  BANK20  BANK21  BANK22  BANK23  BANK24  BANK25
  4567 ;;      Params:         0       0       0       0       0       0       0       0       0       0       0       0       
      +0       0       0       0       0       0       0       0       0       0       0       0       0       0       0
  4568 ;;      Locals:         1       0       0       0       0       0       0       0       0       0       0       0       
      +0       0       0       0       0       0       0       0       0       0       0       0       0       0       0
  4569 ;;      Temps:          0       0       0       0       0       0       0       0       0       0       0       0       
      +0       0       0       0       0       0       0       0       0       0       0       0       0       0       0
  4570 ;;      Totals:         1       0       0       0       0       0       0       0       0       0       0       0       
      +0       0       0       0       0       0       0       0       0       0       0       0       0       0       0
  4571 ;;Total ram usage:        1 bytes
  4572 ;; Hardware stack levels used:    1
  4573 ;; This function calls:
  4574 ;;		Nothing
  4575 ;; This function is called by:
  4576 ;;		_UART_dataWrite
  4577 ;; This function uses a non-reentrant model
  4578 ;;
  4579                           
  4580                           
  4581                           ;psect for function _EUSART_is_tx_ready
  4582  04A1                     _EUSART_is_tx_ready:
  4583  04A1                     l1561:	
  4584                           ;incstack = 0
  4585                           ; Regs used in _EUSART_is_tx_ready: [wreg+status,2]
  4586                           
  4587                           
  4588                           ;mcc_generated_files/eusart.c: 96:     return (_Bool)(PIR1bits.TXIF && TX1STAbits.TXEN);
  4589  04A1  01F0               	clrf	_EUSART_is_tx_ready$283
  4590  04A2                     l1563:
  4591  04A2  0020               	movlb	0	; select bank0
  4592  04A3  1E11               	btfss	17,4	;volatile
  4593  04A4  2CA6               	goto	u321
  4594  04A5  2CA7               	goto	u320
  4595  04A6                     u321:
  4596  04A6  2CAE               	goto	l1569
  4597  04A7                     u320:
  4598  04A7                     l1565:
  4599  04A7  0023               	movlb	3	; select bank3
  4600  04A8  1E9E               	btfss	30,5	;volatile
  4601  04A9  2CAB               	goto	u331
  4602  04AA  2CAC               	goto	u330
  4603  04AB                     u331:
  4604  04AB  2CAE               	goto	l1569
  4605  04AC                     u330:
  4606  04AC                     l1567:
  4607  04AC  01F0               	clrf	_EUSART_is_tx_ready$283
  4608  04AD  0AF0               	incf	_EUSART_is_tx_ready$283,f
  4609  04AE                     l1569:
  4610  04AE  0870               	movf	_EUSART_is_tx_ready$283,w
  4611  04AF                     l109:
  4612  04AF  0008               	return
  4613  04B0                     __end_of_EUSART_is_tx_ready:
  4614                           
  4615                           	psect	text7
  4616  0459                     __ptext7:	
  4617 ;; *************** function _EUSART_is_tx_done *****************
  4618 ;; Defined at:
  4619 ;;		line 104 in file "mcc_generated_files/eusart.c"
  4620 ;; Parameters:    Size  Location     Type
  4621 ;;		None
  4622 ;; Auto vars:     Size  Location     Type
  4623 ;;		None
  4624 ;; Return value:  Size  Location     Type
  4625 ;;                  1    wreg      _Bool 
  4626 ;; Registers used:
  4627 ;;		wreg, status,2, status,0
  4628 ;; Tracked objects:
  4629 ;;		On entry : 0/0
  4630 ;;		On exit  : 0/0
  4631 ;;		Unchanged: 0/0
  4632 ;; Data sizes:     COMMON   BANK0   BANK1   BANK2   BANK3   BANK4   BANK5   BANK6   BANK7   BANK8   BANK9  BANK10  BANK1
      +1  BANK12  BANK13  BANK14  BANK15  BANK16  BANK17  BANK18  BANK19  BANK20  BANK21  BANK22  BANK23  BANK24  BANK25
  4633 ;;      Params:         0       0       0       0       0       0       0       0       0       0       0       0       
      +0       0       0       0       0       0       0       0       0       0       0       0       0       0       0
  4634 ;;      Locals:         0       0       0       0       0       0       0       0       0       0       0       0       
      +0       0       0       0       0       0       0       0       0       0       0       0       0       0       0
  4635 ;;      Temps:          0       0       0       0       0       0       0       0       0       0       0       0       
      +0       0       0       0       0       0       0       0       0       0       0       0       0       0       0
  4636 ;;      Totals:         0       0       0       0       0       0       0       0       0       0       0       0       
      +0       0       0       0       0       0       0       0       0       0       0       0       0       0       0
  4637 ;;Total ram usage:        0 bytes
  4638 ;; Hardware stack levels used:    1
  4639 ;; This function calls:
  4640 ;;		Nothing
  4641 ;; This function is called by:
  4642 ;;		_UART_dataWrite
  4643 ;; This function uses a non-reentrant model
  4644 ;;
  4645                           
  4646                           
  4647                           ;psect for function _EUSART_is_tx_done
  4648  0459                     _EUSART_is_tx_done:
  4649  0459                     l1577:	
  4650                           ;incstack = 0
  4651                           ; Regs used in _EUSART_is_tx_done: [wreg+status,2+status,0]
  4652                           
  4653                           
  4654                           ;mcc_generated_files/eusart.c: 106:     return TX1STAbits.TRMT;
  4655  0459  0023               	movlb	3	; select bank3
  4656  045A  0C1E               	rrf	30,w	;volatile
  4657  045B  3901               	andlw	1
  4658  045C                     l115:
  4659  045C  0008               	return
  4660  045D                     __end_of_EUSART_is_tx_done:
  4661                           
  4662                           	psect	text8
  4663  047C                     __ptext8:	
  4664 ;; *************** function _EUSART_Write *****************
  4665 ;; Defined at:
  4666 ;;		line 132 in file "mcc_generated_files/eusart.c"
  4667 ;; Parameters:    Size  Location     Type
  4668 ;;  txData          1    wreg     unsigned char 
  4669 ;; Auto vars:     Size  Location     Type
  4670 ;;  txData          1    0[COMMON] unsigned char 
  4671 ;; Return value:  Size  Location     Type
  4672 ;;                  1    wreg      void 
  4673 ;; Registers used:
  4674 ;;		wreg
  4675 ;; Tracked objects:
  4676 ;;		On entry : 0/0
  4677 ;;		On exit  : 0/0
  4678 ;;		Unchanged: 0/0
  4679 ;; Data sizes:     COMMON   BANK0   BANK1   BANK2   BANK3   BANK4   BANK5   BANK6   BANK7   BANK8   BANK9  BANK10  BANK1
      +1  BANK12  BANK13  BANK14  BANK15  BANK16  BANK17  BANK18  BANK19  BANK20  BANK21  BANK22  BANK23  BANK24  BANK25
  4680 ;;      Params:         0       0       0       0       0       0       0       0       0       0       0       0       
      +0       0       0       0       0       0       0       0       0       0       0       0       0       0       0
  4681 ;;      Locals:         1       0       0       0       0       0       0       0       0       0       0       0       
      +0       0       0       0       0       0       0       0       0       0       0       0       0       0       0
  4682 ;;      Temps:          0       0       0       0       0       0       0       0       0       0       0       0       
      +0       0       0       0       0       0       0       0       0       0       0       0       0       0       0
  4683 ;;      Totals:         1       0       0       0       0       0       0       0       0       0       0       0       
      +0       0       0       0       0       0       0       0       0       0       0       0       0       0       0
  4684 ;;Total ram usage:        1 bytes
  4685 ;; Hardware stack levels used:    1
  4686 ;; This function calls:
  4687 ;;		Nothing
  4688 ;; This function is called by:
  4689 ;;		_UART_dataWrite
  4690 ;; This function uses a non-reentrant model
  4691 ;;
  4692                           
  4693                           
  4694                           ;psect for function _EUSART_Write
  4695  047C                     _EUSART_Write:
  4696                           
  4697                           ;incstack = 0
  4698                           ; Regs used in _EUSART_Write: [wreg]
  4699                           ;EUSART_Write@txData stored from wreg
  4700  047C  00F0               	movwf	EUSART_Write@txData
  4701  047D                     l1593:
  4702  047D                     l128:	
  4703                           ;mcc_generated_files/eusart.c: 135:     {;mcc_generated_files/eusart.c: 136:     }
  4704                           
  4705                           
  4706                           ;mcc_generated_files/eusart.c: 134:     while(0 == PIR1bits.TXIF)
  4707  047D  0020               	movlb	0	; select bank0
  4708  047E  1E11               	btfss	17,4	;volatile
  4709  047F  2C81               	goto	u361
  4710  0480  2C82               	goto	u360
  4711  0481                     u361:
  4712  0481  2C7D               	goto	l128
  4713  0482                     u360:
  4714  0482                     l1595:
  4715                           
  4716                           ;mcc_generated_files/eusart.c: 138:     TX1REG = txData;
  4717  0482  0870               	movf	EUSART_Write@txData,w
  4718  0483  0023               	movlb	3	; select bank3
  4719  0484  009A               	movwf	26	;volatile
  4720  0485                     l131:
  4721  0485  0008               	return
  4722  0486                     __end_of_EUSART_Write:
  4723                           
  4724                           	psect	text9
  4725  0455                     __ptext9:	
  4726 ;; *************** function _UART_byteRead *****************
  4727 ;; Defined at:
  4728 ;;		line 19 in file "apps/src/serial.c"
  4729 ;; Parameters:    Size  Location     Type
  4730 ;;		None
  4731 ;; Auto vars:     Size  Location     Type
  4732 ;;		None
  4733 ;; Return value:  Size  Location     Type
  4734 ;;                  1    wreg      unsigned char 
  4735 ;; Registers used:
  4736 ;;		wreg, status,2, pclath, cstack
  4737 ;; Tracked objects:
  4738 ;;		On entry : 0/0
  4739 ;;		On exit  : 0/0
  4740 ;;		Unchanged: 0/0
  4741 ;; Data sizes:     COMMON   BANK0   BANK1   BANK2   BANK3   BANK4   BANK5   BANK6   BANK7   BANK8   BANK9  BANK10  BANK1
      +1  BANK12  BANK13  BANK14  BANK15  BANK16  BANK17  BANK18  BANK19  BANK20  BANK21  BANK22  BANK23  BANK24  BANK25
  4742 ;;      Params:         0       0       0       0       0       0       0       0       0       0       0       0       
      +0       0       0       0       0       0       0       0       0       0       0       0       0       0       0
  4743 ;;      Locals:         0       0       0       0       0       0       0       0       0       0       0       0       
      +0       0       0       0       0       0       0       0       0       0       0       0       0       0       0
  4744 ;;      Temps:          0       0       0       0       0       0       0       0       0       0       0       0       
      +0       0       0       0       0       0       0       0       0       0       0       0       0       0       0
  4745 ;;      Totals:         0       0       0       0       0       0       0       0       0       0       0       0       
      +0       0       0       0       0       0       0       0       0       0       0       0       0       0       0
  4746 ;;Total ram usage:        0 bytes
  4747 ;; Hardware stack levels used:    1
  4748 ;; Hardware stack levels required when called:    1
  4749 ;; This function calls:
  4750 ;;		_EUSART_Read
  4751 ;; This function is called by:
  4752 ;;		_main
  4753 ;; This function uses a non-reentrant model
  4754 ;;
  4755                           
  4756                           
  4757                           ;psect for function _UART_byteRead
  4758  0455                     _UART_byteRead:
  4759  0455                     l1819:	
  4760                           ;incstack = 0
  4761                           ; Regs used in _UART_byteRead: [wreg+status,2+pclath+cstack]
  4762                           
  4763                           
  4764                           ;apps/src/serial.c: 20:         return EUSART_Read();
  4765  0455  3184  2492  3184   	fcall	_EUSART_Read
  4766  0458                     l366:
  4767  0458  0008               	return
  4768  0459                     __end_of_UART_byteRead:
  4769                           
  4770                           	psect	text10
  4771  0492                     __ptext10:	
  4772 ;; *************** function _EUSART_Read *****************
  4773 ;; Defined at:
  4774 ;;		line 113 in file "mcc_generated_files/eusart.c"
  4775 ;; Parameters:    Size  Location     Type
  4776 ;;		None
  4777 ;; Auto vars:     Size  Location     Type
  4778 ;;		None
  4779 ;; Return value:  Size  Location     Type
  4780 ;;                  1    wreg      unsigned char 
  4781 ;; Registers used:
  4782 ;;		wreg, status,2
  4783 ;; Tracked objects:
  4784 ;;		On entry : 0/0
  4785 ;;		On exit  : 0/0
  4786 ;;		Unchanged: 0/0
  4787 ;; Data sizes:     COMMON   BANK0   BANK1   BANK2   BANK3   BANK4   BANK5   BANK6   BANK7   BANK8   BANK9  BANK10  BANK1
      +1  BANK12  BANK13  BANK14  BANK15  BANK16  BANK17  BANK18  BANK19  BANK20  BANK21  BANK22  BANK23  BANK24  BANK25
  4788 ;;      Params:         0       0       0       0       0       0       0       0       0       0       0       0       
      +0       0       0       0       0       0       0       0       0       0       0       0       0       0       0
  4789 ;;      Locals:         0       0       0       0       0       0       0       0       0       0       0       0       
      +0       0       0       0       0       0       0       0       0       0       0       0       0       0       0
  4790 ;;      Temps:          0       0       0       0       0       0       0       0       0       0       0       0       
      +0       0       0       0       0       0       0       0       0       0       0       0       0       0       0
  4791 ;;      Totals:         0       0       0       0       0       0       0       0       0       0       0       0       
      +0       0       0       0       0       0       0       0       0       0       0       0       0       0       0
  4792 ;;Total ram usage:        0 bytes
  4793 ;; Hardware stack levels used:    1
  4794 ;; This function calls:
  4795 ;;		Nothing
  4796 ;; This function is called by:
  4797 ;;		_UART_byteRead
  4798 ;;		_UART_preamFound
  4799 ;; This function uses a non-reentrant model
  4800 ;;
  4801                           
  4802                           
  4803                           ;psect for function _EUSART_Read
  4804  0492                     _EUSART_Read:
  4805  0492                     l1581:	
  4806                           ;incstack = 0
  4807                           ; Regs used in _EUSART_Read: [wreg+status,2]
  4808                           
  4809  0492                     l121:	
  4810                           ;mcc_generated_files/eusart.c: 116:     {;mcc_generated_files/eusart.c: 117:     }
  4811                           
  4812                           
  4813                           ;mcc_generated_files/eusart.c: 115:     while(!PIR1bits.RCIF)
  4814  0492  0020               	movlb	0	; select bank0
  4815  0493  1E91               	btfss	17,5	;volatile
  4816  0494  2C96               	goto	u341
  4817  0495  2C97               	goto	u340
  4818  0496                     u341:
  4819  0496  2C92               	goto	l121
  4820  0497                     u340:
  4821  0497                     l1583:
  4822                           
  4823                           ;mcc_generated_files/eusart.c: 119:     eusartRxLastError.status = 0;
  4824  0497  01EF               	clrf	_eusartRxLastError	;volatile
  4825  0498                     l1585:
  4826                           
  4827                           ;mcc_generated_files/eusart.c: 121:     if(1 == RC1STAbits.OERR)
  4828  0498  0023               	movlb	3	; select bank3
  4829  0499  1C9D               	btfss	29,1	;volatile
  4830  049A  2C9C               	goto	u351
  4831  049B  2C9D               	goto	u350
  4832  049C                     u351:
  4833  049C  2C9F               	goto	l1589
  4834  049D                     u350:
  4835  049D                     l1587:
  4836                           
  4837                           ;mcc_generated_files/eusart.c: 122:     {;mcc_generated_files/eusart.c: 125:         RC1
      +                          STAbits.CREN = 0;
  4838  049D  121D               	bcf	29,4	;volatile
  4839                           
  4840                           ;mcc_generated_files/eusart.c: 126:         RC1STAbits.CREN = 1;
  4841  049E  161D               	bsf	29,4	;volatile
  4842  049F                     l1589:
  4843                           
  4844                           ;mcc_generated_files/eusart.c: 129:     return RC1REG;
  4845  049F  0819               	movf	25,w	;volatile
  4846  04A0                     l125:
  4847  04A0  0008               	return
  4848  04A1                     __end_of_EUSART_Read:
  4849                           
  4850                           	psect	text11
  4851  04B0                     __ptext11:	
  4852 ;; *************** function _SYSTEM_Initialize *****************
  4853 ;; Defined at:
  4854 ;;		line 50 in file "mcc_generated_files/mcc.c"
  4855 ;; Parameters:    Size  Location     Type
  4856 ;;		None
  4857 ;; Auto vars:     Size  Location     Type
  4858 ;;		None
  4859 ;; Return value:  Size  Location     Type
  4860 ;;                  1    wreg      void 
  4861 ;; Registers used:
  4862 ;;		wreg, status,2, status,0, pclath, cstack
  4863 ;; Tracked objects:
  4864 ;;		On entry : 0/0
  4865 ;;		On exit  : 0/0
  4866 ;;		Unchanged: 0/0
  4867 ;; Data sizes:     COMMON   BANK0   BANK1   BANK2   BANK3   BANK4   BANK5   BANK6   BANK7   BANK8   BANK9  BANK10  BANK1
      +1  BANK12  BANK13  BANK14  BANK15  BANK16  BANK17  BANK18  BANK19  BANK20  BANK21  BANK22  BANK23  BANK24  BANK25
  4868 ;;      Params:         0       0       0       0       0       0       0       0       0       0       0       0       
      +0       0       0       0       0       0       0       0       0       0       0       0       0       0       0
  4869 ;;      Locals:         0       0       0       0       0       0       0       0       0       0       0       0       
      +0       0       0       0       0       0       0       0       0       0       0       0       0       0       0
  4870 ;;      Temps:          0       0       0       0       0       0       0       0       0       0       0       0       
      +0       0       0       0       0       0       0       0       0       0       0       0       0       0       0
  4871 ;;      Totals:         0       0       0       0       0       0       0       0       0       0       0       0       
      +0       0       0       0       0       0       0       0       0       0       0       0       0       0       0
  4872 ;;Total ram usage:        0 bytes
  4873 ;; Hardware stack levels used:    1
  4874 ;; Hardware stack levels required when called:    2
  4875 ;; This function calls:
  4876 ;;		_EUSART_Initialize
  4877 ;;		_OSCILLATOR_Initialize
  4878 ;;		_PIN_MANAGER_Initialize
  4879 ;;		_SPI_Initialize
  4880 ;;		_WDT_Initialize
  4881 ;; This function is called by:
  4882 ;;		_main
  4883 ;; This function uses a non-reentrant model
  4884 ;;
  4885                           
  4886                           
  4887                           ;psect for function _SYSTEM_Initialize
  4888  04B0                     _SYSTEM_Initialize:
  4889  04B0                     l1789:	
  4890                           ;incstack = 0
  4891                           ; Regs used in _SYSTEM_Initialize: [wreg+status,2+status,0+pclath+cstack]
  4892                           
  4893                           
  4894                           ;mcc_generated_files/mcc.c: 53:     SPI_Initialize();
  4895  04B0  3184  2486  3184   	fcall	_SPI_Initialize
  4896                           
  4897                           ;mcc_generated_files/mcc.c: 54:     PIN_MANAGER_Initialize();
  4898  04B3  3185  25D2  3184   	fcall	_PIN_MANAGER_Initialize
  4899                           
  4900                           ;mcc_generated_files/mcc.c: 55:     OSCILLATOR_Initialize();
  4901  04B6  3184  2474  3184   	fcall	_OSCILLATOR_Initialize
  4902                           
  4903                           ;mcc_generated_files/mcc.c: 56:     WDT_Initialize();
  4904  04B9  3184  2451  3184   	fcall	_WDT_Initialize
  4905                           
  4906                           ;mcc_generated_files/mcc.c: 57:     EUSART_Initialize();
  4907  04BC  3185  2554  3184   	fcall	_EUSART_Initialize
  4908  04BF                     l172:
  4909  04BF  0008               	return
  4910  04C0                     __end_of_SYSTEM_Initialize:
  4911                           
  4912                           	psect	text12
  4913  0451                     __ptext12:	
  4914 ;; *************** function _WDT_Initialize *****************
  4915 ;; Defined at:
  4916 ;;		line 72 in file "mcc_generated_files/mcc.c"
  4917 ;; Parameters:    Size  Location     Type
  4918 ;;		None
  4919 ;; Auto vars:     Size  Location     Type
  4920 ;;		None
  4921 ;; Return value:  Size  Location     Type
  4922 ;;                  1    wreg      void 
  4923 ;; Registers used:
  4924 ;;		wreg
  4925 ;; Tracked objects:
  4926 ;;		On entry : 0/0
  4927 ;;		On exit  : 0/0
  4928 ;;		Unchanged: 0/0
  4929 ;; Data sizes:     COMMON   BANK0   BANK1   BANK2   BANK3   BANK4   BANK5   BANK6   BANK7   BANK8   BANK9  BANK10  BANK1
      +1  BANK12  BANK13  BANK14  BANK15  BANK16  BANK17  BANK18  BANK19  BANK20  BANK21  BANK22  BANK23  BANK24  BANK25
  4930 ;;      Params:         0       0       0       0       0       0       0       0       0       0       0       0       
      +0       0       0       0       0       0       0       0       0       0       0       0       0       0       0
  4931 ;;      Locals:         0       0       0       0       0       0       0       0       0       0       0       0       
      +0       0       0       0       0       0       0       0       0       0       0       0       0       0       0
  4932 ;;      Temps:          0       0       0       0       0       0       0       0       0       0       0       0       
      +0       0       0       0       0       0       0       0       0       0       0       0       0       0       0
  4933 ;;      Totals:         0       0       0       0       0       0       0       0       0       0       0       0       
      +0       0       0       0       0       0       0       0       0       0       0       0       0       0       0
  4934 ;;Total ram usage:        0 bytes
  4935 ;; Hardware stack levels used:    1
  4936 ;; This function calls:
  4937 ;;		Nothing
  4938 ;; This function is called by:
  4939 ;;		_SYSTEM_Initialize
  4940 ;; This function uses a non-reentrant model
  4941 ;;
  4942                           
  4943                           
  4944                           ;psect for function _WDT_Initialize
  4945  0451                     _WDT_Initialize:
  4946  0451                     l1639:	
  4947                           ;incstack = 0
  4948                           ; Regs used in _WDT_Initialize: [wreg]
  4949                           
  4950                           
  4951                           ;mcc_generated_files/mcc.c: 75:     WDTCON = 0x22;
  4952  0451  3022               	movlw	34
  4953  0452  0021               	movlb	1	; select bank1
  4954  0453  0097               	movwf	23	;volatile
  4955  0454                     l178:
  4956  0454  0008               	return
  4957  0455                     __end_of_WDT_Initialize:
  4958                           
  4959                           	psect	text13
  4960  0486                     __ptext13:	
  4961 ;; *************** function _SPI_Initialize *****************
  4962 ;; Defined at:
  4963 ;;		line 62 in file "mcc_generated_files/spi.c"
  4964 ;; Parameters:    Size  Location     Type
  4965 ;;		None
  4966 ;; Auto vars:     Size  Location     Type
  4967 ;;		None
  4968 ;; Return value:  Size  Location     Type
  4969 ;;                  1    wreg      void 
  4970 ;; Registers used:
  4971 ;;		wreg
  4972 ;; Tracked objects:
  4973 ;;		On entry : 0/0
  4974 ;;		On exit  : 0/0
  4975 ;;		Unchanged: 0/0
  4976 ;; Data sizes:     COMMON   BANK0   BANK1   BANK2   BANK3   BANK4   BANK5   BANK6   BANK7   BANK8   BANK9  BANK10  BANK1
      +1  BANK12  BANK13  BANK14  BANK15  BANK16  BANK17  BANK18  BANK19  BANK20  BANK21  BANK22  BANK23  BANK24  BANK25
  4977 ;;      Params:         0       0       0       0       0       0       0       0       0       0       0       0       
      +0       0       0       0       0       0       0       0       0       0       0       0       0       0       0
  4978 ;;      Locals:         0       0       0       0       0       0       0       0       0       0       0       0       
      +0       0       0       0       0       0       0       0       0       0       0       0       0       0       0
  4979 ;;      Temps:          0       0       0       0       0       0       0       0       0       0       0       0       
      +0       0       0       0       0       0       0       0       0       0       0       0       0       0       0
  4980 ;;      Totals:         0       0       0       0       0       0       0       0       0       0       0       0       
      +0       0       0       0       0       0       0       0       0       0       0       0       0       0       0
  4981 ;;Total ram usage:        0 bytes
  4982 ;; Hardware stack levels used:    1
  4983 ;; This function calls:
  4984 ;;		Nothing
  4985 ;; This function is called by:
  4986 ;;		_SYSTEM_Initialize
  4987 ;; This function uses a non-reentrant model
  4988 ;;
  4989                           
  4990                           
  4991                           ;psect for function _SPI_Initialize
  4992  0486                     _SPI_Initialize:
  4993  0486                     l1545:	
  4994                           ;incstack = 0
  4995                           ; Regs used in _SPI_Initialize: [wreg]
  4996                           
  4997                           
  4998                           ;mcc_generated_files/spi.c: 65:     SSP1STAT = 0x40;
  4999  0486  3040               	movlw	64
  5000  0487  0024               	movlb	4	; select bank4
  5001  0488  0094               	movwf	20	;volatile
  5002                           
  5003                           ;mcc_generated_files/spi.c: 66:     SSP1CON1 = 0x02;
  5004  0489  3002               	movlw	2
  5005  048A  0095               	movwf	21	;volatile
  5006                           
  5007                           ;mcc_generated_files/spi.c: 67:     SSP1ADD = 0x01;
  5008  048B  3001               	movlw	1
  5009  048C  0092               	movwf	18	;volatile
  5010  048D                     l1547:
  5011                           
  5012                           ;mcc_generated_files/spi.c: 68:     TRISCbits.TRISC3 = 0;
  5013  048D  0021               	movlb	1	; select bank1
  5014  048E  118E               	bcf	14,3	;volatile
  5015  048F                     l1549:
  5016                           
  5017                           ;mcc_generated_files/spi.c: 69:     SSP1CON1bits.SSPEN = 0;
  5018  048F  0024               	movlb	4	; select bank4
  5019  0490  1295               	bcf	21,5	;volatile
  5020  0491                     l21:
  5021  0491  0008               	return
  5022  0492                     __end_of_SPI_Initialize:
  5023                           
  5024                           	psect	text14
  5025  05D2                     __ptext14:	
  5026 ;; *************** function _PIN_MANAGER_Initialize *****************
  5027 ;; Defined at:
  5028 ;;		line 55 in file "mcc_generated_files/pin_manager.c"
  5029 ;; Parameters:    Size  Location     Type
  5030 ;;		None
  5031 ;; Auto vars:     Size  Location     Type
  5032 ;;		None
  5033 ;; Return value:  Size  Location     Type
  5034 ;;                  1    wreg      void 
  5035 ;; Registers used:
  5036 ;;		wreg, status,2
  5037 ;; Tracked objects:
  5038 ;;		On entry : 0/0
  5039 ;;		On exit  : 0/0
  5040 ;;		Unchanged: 0/0
  5041 ;; Data sizes:     COMMON   BANK0   BANK1   BANK2   BANK3   BANK4   BANK5   BANK6   BANK7   BANK8   BANK9  BANK10  BANK1
      +1  BANK12  BANK13  BANK14  BANK15  BANK16  BANK17  BANK18  BANK19  BANK20  BANK21  BANK22  BANK23  BANK24  BANK25
  5042 ;;      Params:         0       0       0       0       0       0       0       0       0       0       0       0       
      +0       0       0       0       0       0       0       0       0       0       0       0       0       0       0
  5043 ;;      Locals:         0       0       0       0       0       0       0       0       0       0       0       0       
      +0       0       0       0       0       0       0       0       0       0       0       0       0       0       0
  5044 ;;      Temps:          0       0       0       0       0       0       0       0       0       0       0       0       
      +0       0       0       0       0       0       0       0       0       0       0       0       0       0       0
  5045 ;;      Totals:         0       0       0       0       0       0       0       0       0       0       0       0       
      +0       0       0       0       0       0       0       0       0       0       0       0       0       0       0
  5046 ;;Total ram usage:        0 bytes
  5047 ;; Hardware stack levels used:    1
  5048 ;; This function calls:
  5049 ;;		Nothing
  5050 ;; This function is called by:
  5051 ;;		_SYSTEM_Initialize
  5052 ;; This function uses a non-reentrant model
  5053 ;;
  5054                           
  5055                           
  5056                           ;psect for function _PIN_MANAGER_Initialize
  5057  05D2                     _PIN_MANAGER_Initialize:
  5058  05D2                     l1597:	
  5059                           ;incstack = 0
  5060                           ; Regs used in _PIN_MANAGER_Initialize: [wreg+status,2]
  5061                           
  5062                           
  5063                           ;mcc_generated_files/pin_manager.c: 60:     LATE = 0x00;
  5064  05D2  0022               	movlb	2	; select bank2
  5065  05D3  0190               	clrf	16	;volatile
  5066                           
  5067                           ;mcc_generated_files/pin_manager.c: 61:     LATD = 0x00;
  5068  05D4  018F               	clrf	15	;volatile
  5069                           
  5070                           ;mcc_generated_files/pin_manager.c: 62:     LATA = 0x00;
  5071  05D5  018C               	clrf	12	;volatile
  5072                           
  5073                           ;mcc_generated_files/pin_manager.c: 63:     LATB = 0x00;
  5074  05D6  018D               	clrf	13	;volatile
  5075                           
  5076                           ;mcc_generated_files/pin_manager.c: 64:     LATC = 0x00;
  5077  05D7  018E               	clrf	14	;volatile
  5078  05D8                     l1599:
  5079                           
  5080                           ;mcc_generated_files/pin_manager.c: 69:     TRISE = 0x08;
  5081  05D8  3008               	movlw	8
  5082  05D9  0021               	movlb	1	; select bank1
  5083  05DA  0090               	movwf	16	;volatile
  5084  05DB                     l1601:
  5085                           
  5086                           ;mcc_generated_files/pin_manager.c: 70:     TRISA = 0xFF;
  5087  05DB  30FF               	movlw	255
  5088  05DC  008C               	movwf	12	;volatile
  5089  05DD                     l1603:
  5090                           
  5091                           ;mcc_generated_files/pin_manager.c: 71:     TRISB = 0xFF;
  5092  05DD  30FF               	movlw	255
  5093  05DE  008D               	movwf	13	;volatile
  5094  05DF                     l1605:
  5095                           
  5096                           ;mcc_generated_files/pin_manager.c: 72:     TRISC = 0x97;
  5097  05DF  3097               	movlw	151
  5098  05E0  008E               	movwf	14	;volatile
  5099  05E1                     l1607:
  5100                           
  5101                           ;mcc_generated_files/pin_manager.c: 73:     TRISD = 0xFF;
  5102  05E1  30FF               	movlw	255
  5103  05E2  008F               	movwf	15	;volatile
  5104  05E3                     l1609:
  5105                           
  5106                           ;mcc_generated_files/pin_manager.c: 78:     ANSELD = 0x07;
  5107  05E3  3007               	movlw	7
  5108  05E4  0023               	movlb	3	; select bank3
  5109  05E5  008F               	movwf	15	;volatile
  5110  05E6                     l1611:
  5111                           
  5112                           ;mcc_generated_files/pin_manager.c: 79:     ANSELC = 0x07;
  5113  05E6  3007               	movlw	7
  5114  05E7  008E               	movwf	14	;volatile
  5115  05E8                     l1613:
  5116                           
  5117                           ;mcc_generated_files/pin_manager.c: 80:     ANSELB = 0x7F;
  5118  05E8  307F               	movlw	127
  5119  05E9  008D               	movwf	13	;volatile
  5120  05EA                     l1615:
  5121                           
  5122                           ;mcc_generated_files/pin_manager.c: 81:     ANSELE = 0x07;
  5123  05EA  3007               	movlw	7
  5124  05EB  0090               	movwf	16	;volatile
  5125  05EC                     l1617:
  5126                           
  5127                           ;mcc_generated_files/pin_manager.c: 82:     ANSELA = 0xBF;
  5128  05EC  30BF               	movlw	191
  5129  05ED  008C               	movwf	12	;volatile
  5130                           
  5131                           ;mcc_generated_files/pin_manager.c: 87:     WPUD = 0x00;
  5132  05EE  0024               	movlb	4	; select bank4
  5133  05EF  018F               	clrf	15	;volatile
  5134                           
  5135                           ;mcc_generated_files/pin_manager.c: 88:     WPUE = 0x00;
  5136  05F0  0190               	clrf	16	;volatile
  5137                           
  5138                           ;mcc_generated_files/pin_manager.c: 89:     WPUB = 0x00;
  5139  05F1  018D               	clrf	13	;volatile
  5140                           
  5141                           ;mcc_generated_files/pin_manager.c: 90:     WPUA = 0x00;
  5142  05F2  018C               	clrf	12	;volatile
  5143                           
  5144                           ;mcc_generated_files/pin_manager.c: 91:     WPUC = 0x00;
  5145  05F3  018E               	clrf	14	;volatile
  5146  05F4                     l1619:
  5147                           
  5148                           ;mcc_generated_files/pin_manager.c: 92:     OPTION_REGbits.nWPUEN = 1;
  5149  05F4  0021               	movlb	1	; select bank1
  5150  05F5  1795               	bsf	21,7	;volatile
  5151                           
  5152                           ;mcc_generated_files/pin_manager.c: 97:     ODCONE = 0x00;
  5153  05F6  0025               	movlb	5	; select bank5
  5154  05F7  0190               	clrf	16	;volatile
  5155                           
  5156                           ;mcc_generated_files/pin_manager.c: 98:     ODCONA = 0x00;
  5157  05F8  018C               	clrf	12	;volatile
  5158                           
  5159                           ;mcc_generated_files/pin_manager.c: 99:     ODCONB = 0x00;
  5160  05F9  018D               	clrf	13	;volatile
  5161                           
  5162                           ;mcc_generated_files/pin_manager.c: 100:     ODCONC = 0x00;
  5163  05FA  018E               	clrf	14	;volatile
  5164                           
  5165                           ;mcc_generated_files/pin_manager.c: 101:     ODCOND = 0x00;
  5166  05FB  018F               	clrf	15	;volatile
  5167                           
  5168                           ;mcc_generated_files/pin_manager.c: 106:     SLRCONA = 0x00;
  5169  05FC  0026               	movlb	6	; select bank6
  5170  05FD  018C               	clrf	12	;volatile
  5171                           
  5172                           ;mcc_generated_files/pin_manager.c: 107:     SLRCONB = 0x00;
  5173  05FE  018D               	clrf	13	;volatile
  5174                           
  5175                           ;mcc_generated_files/pin_manager.c: 108:     SLRCONC = 0x00;
  5176  05FF  018E               	clrf	14	;volatile
  5177                           
  5178                           ;mcc_generated_files/pin_manager.c: 109:     SLRCOND = 0x00;
  5179  0600  018F               	clrf	15	;volatile
  5180                           
  5181                           ;mcc_generated_files/pin_manager.c: 110:     SLRCONE = 0x00;
  5182  0601  0190               	clrf	16	;volatile
  5183                           
  5184                           ;mcc_generated_files/pin_manager.c: 115:     INLVLA = 0x00;
  5185  0602  0027               	movlb	7	; select bank7
  5186  0603  018C               	clrf	12	;volatile
  5187                           
  5188                           ;mcc_generated_files/pin_manager.c: 116:     INLVLB = 0x00;
  5189  0604  018D               	clrf	13	;volatile
  5190  0605                     l1621:
  5191                           
  5192                           ;mcc_generated_files/pin_manager.c: 117:     INLVLC = 0xFF;
  5193  0605  30FF               	movlw	255
  5194  0606  008E               	movwf	14	;volatile
  5195  0607                     l1623:
  5196                           
  5197                           ;mcc_generated_files/pin_manager.c: 118:     INLVLD = 0xFF;
  5198  0607  30FF               	movlw	255
  5199  0608  008F               	movwf	15	;volatile
  5200  0609                     l1625:
  5201                           
  5202                           ;mcc_generated_files/pin_manager.c: 119:     INLVLE = 0x0F;
  5203  0609  300F               	movlw	15
  5204  060A  0090               	movwf	16	;volatile
  5205  060B                     l1627:
  5206                           
  5207                           ;mcc_generated_files/pin_manager.c: 124:     APFCON1 = 0x00;
  5208  060B  0022               	movlb	2	; select bank2
  5209  060C  019D               	clrf	29	;volatile
  5210  060D                     l1629:
  5211                           
  5212                           ;mcc_generated_files/pin_manager.c: 125:     APFCON2 = 0x00;
  5213  060D  019C               	clrf	28	;volatile
  5214  060E                     l257:
  5215  060E  0008               	return
  5216  060F                     __end_of_PIN_MANAGER_Initialize:
  5217                           
  5218                           	psect	text15
  5219  0474                     __ptext15:	
  5220 ;; *************** function _OSCILLATOR_Initialize *****************
  5221 ;; Defined at:
  5222 ;;		line 60 in file "mcc_generated_files/mcc.c"
  5223 ;; Parameters:    Size  Location     Type
  5224 ;;		None
  5225 ;; Auto vars:     Size  Location     Type
  5226 ;;		None
  5227 ;; Return value:  Size  Location     Type
  5228 ;;                  1    wreg      void 
  5229 ;; Registers used:
  5230 ;;		wreg, status,2
  5231 ;; Tracked objects:
  5232 ;;		On entry : 0/0
  5233 ;;		On exit  : 0/0
  5234 ;;		Unchanged: 0/0
  5235 ;; Data sizes:     COMMON   BANK0   BANK1   BANK2   BANK3   BANK4   BANK5   BANK6   BANK7   BANK8   BANK9  BANK10  BANK1
      +1  BANK12  BANK13  BANK14  BANK15  BANK16  BANK17  BANK18  BANK19  BANK20  BANK21  BANK22  BANK23  BANK24  BANK25
  5236 ;;      Params:         0       0       0       0       0       0       0       0       0       0       0       0       
      +0       0       0       0       0       0       0       0       0       0       0       0       0       0       0
  5237 ;;      Locals:         0       0       0       0       0       0       0       0       0       0       0       0       
      +0       0       0       0       0       0       0       0       0       0       0       0       0       0       0
  5238 ;;      Temps:          0       0       0       0       0       0       0       0       0       0       0       0       
      +0       0       0       0       0       0       0       0       0       0       0       0       0       0       0
  5239 ;;      Totals:         0       0       0       0       0       0       0       0       0       0       0       0       
      +0       0       0       0       0       0       0       0       0       0       0       0       0       0       0
  5240 ;;Total ram usage:        0 bytes
  5241 ;; Hardware stack levels used:    1
  5242 ;; This function calls:
  5243 ;;		Nothing
  5244 ;; This function is called by:
  5245 ;;		_SYSTEM_Initialize
  5246 ;; This function uses a non-reentrant model
  5247 ;;
  5248                           
  5249                           
  5250                           ;psect for function _OSCILLATOR_Initialize
  5251  0474                     _OSCILLATOR_Initialize:
  5252  0474                     l1631:	
  5253                           ;incstack = 0
  5254                           ; Regs used in _OSCILLATOR_Initialize: [wreg+status,2]
  5255                           
  5256                           
  5257                           ;mcc_generated_files/mcc.c: 63:     OSCCON = 0xFA;
  5258  0474  30FA               	movlw	250
  5259  0475  0021               	movlb	1	; select bank1
  5260  0476  0099               	movwf	25	;volatile
  5261  0477                     l1633:
  5262                           
  5263                           ;mcc_generated_files/mcc.c: 65:     OSCSTAT = 0x00;
  5264  0477  019A               	clrf	26	;volatile
  5265  0478                     l1635:
  5266                           
  5267                           ;mcc_generated_files/mcc.c: 67:     OSCTUNE = 0x00;
  5268  0478  0198               	clrf	24	;volatile
  5269  0479                     l1637:
  5270                           
  5271                           ;mcc_generated_files/mcc.c: 69:     BORCON = 0x00;
  5272  0479  0022               	movlb	2	; select bank2
  5273  047A  0196               	clrf	22	;volatile
  5274  047B                     l175:
  5275  047B  0008               	return
  5276  047C                     __end_of_OSCILLATOR_Initialize:
  5277                           
  5278                           	psect	text16
  5279  0554                     __ptext16:	
  5280 ;; *************** function _EUSART_Initialize *****************
  5281 ;; Defined at:
  5282 ;;		line 66 in file "mcc_generated_files/eusart.c"
  5283 ;; Parameters:    Size  Location     Type
  5284 ;;		None
  5285 ;; Auto vars:     Size  Location     Type
  5286 ;;		None
  5287 ;; Return value:  Size  Location     Type
  5288 ;;                  1    wreg      void 
  5289 ;; Registers used:
  5290 ;;		wreg, status,2, status,0, pclath, cstack
  5291 ;; Tracked objects:
  5292 ;;		On entry : 0/0
  5293 ;;		On exit  : 0/0
  5294 ;;		Unchanged: 0/0
  5295 ;; Data sizes:     COMMON   BANK0   BANK1   BANK2   BANK3   BANK4   BANK5   BANK6   BANK7   BANK8   BANK9  BANK10  BANK1
      +1  BANK12  BANK13  BANK14  BANK15  BANK16  BANK17  BANK18  BANK19  BANK20  BANK21  BANK22  BANK23  BANK24  BANK25
  5296 ;;      Params:         0       0       0       0       0       0       0       0       0       0       0       0       
      +0       0       0       0       0       0       0       0       0       0       0       0       0       0       0
  5297 ;;      Locals:         0       0       0       0       0       0       0       0       0       0       0       0       
      +0       0       0       0       0       0       0       0       0       0       0       0       0       0       0
  5298 ;;      Temps:          0       0       0       0       0       0       0       0       0       0       0       0       
      +0       0       0       0       0       0       0       0       0       0       0       0       0       0       0
  5299 ;;      Totals:         0       0       0       0       0       0       0       0       0       0       0       0       
      +0       0       0       0       0       0       0       0       0       0       0       0       0       0       0
  5300 ;;Total ram usage:        0 bytes
  5301 ;; Hardware stack levels used:    1
  5302 ;; Hardware stack levels required when called:    1
  5303 ;; This function calls:
  5304 ;;		_EUSART_SetErrorHandler
  5305 ;;		_EUSART_SetFramingErrorHandler
  5306 ;;		_EUSART_SetOverrunErrorHandler
  5307 ;; This function is called by:
  5308 ;;		_SYSTEM_Initialize
  5309 ;; This function uses a non-reentrant model
  5310 ;;
  5311                           
  5312                           
  5313                           ;psect for function _EUSART_Initialize
  5314  0554                     _EUSART_Initialize:
  5315  0554                     l1551:	
  5316                           ;incstack = 0
  5317                           ; Regs used in _EUSART_Initialize: [wreg+status,2+status,0+pclath+cstack]
  5318                           
  5319                           
  5320                           ;mcc_generated_files/eusart.c: 71:     BAUD1CON = 0x08;
  5321  0554  3008               	movlw	8
  5322  0555  0023               	movlb	3	; select bank3
  5323  0556  009F               	movwf	31	;volatile
  5324                           
  5325                           ;mcc_generated_files/eusart.c: 74:     RC1STA = 0x90;
  5326  0557  3090               	movlw	144
  5327  0558  009D               	movwf	29	;volatile
  5328                           
  5329                           ;mcc_generated_files/eusart.c: 77:     TX1STA = 0x24;
  5330  0559  3024               	movlw	36
  5331  055A  009E               	movwf	30	;volatile
  5332                           
  5333                           ;mcc_generated_files/eusart.c: 80:     SP1BRGL = 0xA0;
  5334  055B  30A0               	movlw	160
  5335  055C  009B               	movwf	27	;volatile
  5336                           
  5337                           ;mcc_generated_files/eusart.c: 83:     SP1BRGH = 0x01;
  5338  055D  3001               	movlw	1
  5339  055E  009C               	movwf	28	;volatile
  5340  055F                     l1553:
  5341                           
  5342                           ;mcc_generated_files/eusart.c: 86:     EUSART_SetFramingErrorHandler(EUSART_DefaultFrami
      +                          ngErrorHandler);
  5343  055F  3000               	movlw	0
  5344  0560  00F0               	movwf	EUSART_SetFramingErrorHandler@interruptHandler
  5345  0561  3000               	movlw	0
  5346  0562  00F1               	movwf	EUSART_SetFramingErrorHandler@interruptHandler+1
  5347  0563  3184  2468  3185   	fcall	_EUSART_SetFramingErrorHandler
  5348  0566                     l1555:
  5349                           
  5350                           ;mcc_generated_files/eusart.c: 87:     EUSART_SetOverrunErrorHandler(EUSART_DefaultOverr
      +                          unErrorHandler);
  5351  0566  3000               	movlw	0
  5352  0567  00F0               	movwf	EUSART_SetOverrunErrorHandler@interruptHandler
  5353  0568  3000               	movlw	0
  5354  0569  00F1               	movwf	EUSART_SetOverrunErrorHandler@interruptHandler+1
  5355  056A  3184  246E  3185   	fcall	_EUSART_SetOverrunErrorHandler
  5356  056D                     l1557:
  5357                           
  5358                           ;mcc_generated_files/eusart.c: 88:     EUSART_SetErrorHandler(EUSART_DefaultErrorHandler
      +                          );
  5359  056D  3000               	movlw	0
  5360  056E  00F0               	movwf	EUSART_SetErrorHandler@interruptHandler
  5361  056F  3000               	movlw	0
  5362  0570  00F1               	movwf	EUSART_SetErrorHandler@interruptHandler+1
  5363  0571  3184  2462  3185   	fcall	_EUSART_SetErrorHandler
  5364  0574                     l1559:
  5365                           
  5366                           ;mcc_generated_files/eusart.c: 90:     eusartRxLastError.status = 0;
  5367  0574  0020               	movlb	0	; select bank0
  5368  0575  01EF               	clrf	_eusartRxLastError	;volatile
  5369  0576                     l104:
  5370  0576  0008               	return
  5371  0577                     __end_of_EUSART_Initialize:
  5372                           
  5373                           	psect	text17
  5374  046E                     __ptext17:	
  5375 ;; *************** function _EUSART_SetOverrunErrorHandler *****************
  5376 ;; Defined at:
  5377 ;;		line 161 in file "mcc_generated_files/eusart.c"
  5378 ;; Parameters:    Size  Location     Type
  5379 ;;  interruptHan    2    0[COMMON] PTR FTN()void 
  5380 ;;		 -> EUSART_DefaultOverrunErrorHandler(1), 
  5381 ;; Auto vars:     Size  Location     Type
  5382 ;;		None
  5383 ;; Return value:  Size  Location     Type
  5384 ;;                  1    wreg      void 
  5385 ;; Registers used:
  5386 ;;		wreg
  5387 ;; Tracked objects:
  5388 ;;		On entry : 0/0
  5389 ;;		On exit  : 0/0
  5390 ;;		Unchanged: 0/0
  5391 ;; Data sizes:     COMMON   BANK0   BANK1   BANK2   BANK3   BANK4   BANK5   BANK6   BANK7   BANK8   BANK9  BANK10  BANK1
      +1  BANK12  BANK13  BANK14  BANK15  BANK16  BANK17  BANK18  BANK19  BANK20  BANK21  BANK22  BANK23  BANK24  BANK25
  5392 ;;      Params:         2       0       0       0       0       0       0       0       0       0       0       0       
      +0       0       0       0       0       0       0       0       0       0       0       0       0       0       0
  5393 ;;      Locals:         0       0       0       0       0       0       0       0       0       0       0       0       
      +0       0       0       0       0       0       0       0       0       0       0       0       0       0       0
  5394 ;;      Temps:          0       0       0       0       0       0       0       0       0       0       0       0       
      +0       0       0       0       0       0       0       0       0       0       0       0       0       0       0
  5395 ;;      Totals:         2       0       0       0       0       0       0       0       0       0       0       0       
      +0       0       0       0       0       0       0       0       0       0       0       0       0       0       0
  5396 ;;Total ram usage:        2 bytes
  5397 ;; Hardware stack levels used:    1
  5398 ;; This function calls:
  5399 ;;		Nothing
  5400 ;; This function is called by:
  5401 ;;		_EUSART_Initialize
  5402 ;; This function uses a non-reentrant model
  5403 ;;
  5404                           
  5405                           
  5406                           ;psect for function _EUSART_SetOverrunErrorHandler
  5407  046E                     _EUSART_SetOverrunErrorHandler:
  5408  046E                     l1541:	
  5409                           ;incstack = 0
  5410                           ; Regs used in _EUSART_SetOverrunErrorHandler: [wreg]
  5411                           
  5412                           
  5413                           ;mcc_generated_files/eusart.c: 162:     EUSART_OverrunErrorHandler = interruptHandler;
  5414  046E  0871               	movf	EUSART_SetOverrunErrorHandler@interruptHandler+1,w
  5415  046F  0021               	movlb	1	; select bank1
  5416  0470  00E7               	movwf	(_EUSART_OverrunErrorHandler+1)^(0+128)
  5417  0471  0870               	movf	EUSART_SetOverrunErrorHandler@interruptHandler,w
  5418  0472  00E6               	movwf	_EUSART_OverrunErrorHandler^(0+128)
  5419  0473                     l146:
  5420  0473  0008               	return
  5421  0474                     __end_of_EUSART_SetOverrunErrorHandler:
  5422                           
  5423                           	psect	text18
  5424  0468                     __ptext18:	
  5425 ;; *************** function _EUSART_SetFramingErrorHandler *****************
  5426 ;; Defined at:
  5427 ;;		line 157 in file "mcc_generated_files/eusart.c"
  5428 ;; Parameters:    Size  Location     Type
  5429 ;;  interruptHan    2    0[COMMON] PTR FTN()void 
  5430 ;;		 -> EUSART_DefaultFramingErrorHandler(1), 
  5431 ;; Auto vars:     Size  Location     Type
  5432 ;;		None
  5433 ;; Return value:  Size  Location     Type
  5434 ;;                  1    wreg      void 
  5435 ;; Registers used:
  5436 ;;		wreg
  5437 ;; Tracked objects:
  5438 ;;		On entry : 0/0
  5439 ;;		On exit  : 0/0
  5440 ;;		Unchanged: 0/0
  5441 ;; Data sizes:     COMMON   BANK0   BANK1   BANK2   BANK3   BANK4   BANK5   BANK6   BANK7   BANK8   BANK9  BANK10  BANK1
      +1  BANK12  BANK13  BANK14  BANK15  BANK16  BANK17  BANK18  BANK19  BANK20  BANK21  BANK22  BANK23  BANK24  BANK25
  5442 ;;      Params:         2       0       0       0       0       0       0       0       0       0       0       0       
      +0       0       0       0       0       0       0       0       0       0       0       0       0       0       0
  5443 ;;      Locals:         0       0       0       0       0       0       0       0       0       0       0       0       
      +0       0       0       0       0       0       0       0       0       0       0       0       0       0       0
  5444 ;;      Temps:          0       0       0       0       0       0       0       0       0       0       0       0       
      +0       0       0       0       0       0       0       0       0       0       0       0       0       0       0
  5445 ;;      Totals:         2       0       0       0       0       0       0       0       0       0       0       0       
      +0       0       0       0       0       0       0       0       0       0       0       0       0       0       0
  5446 ;;Total ram usage:        2 bytes
  5447 ;; Hardware stack levels used:    1
  5448 ;; This function calls:
  5449 ;;		Nothing
  5450 ;; This function is called by:
  5451 ;;		_EUSART_Initialize
  5452 ;; This function uses a non-reentrant model
  5453 ;;
  5454                           
  5455                           
  5456                           ;psect for function _EUSART_SetFramingErrorHandler
  5457  0468                     _EUSART_SetFramingErrorHandler:
  5458  0468                     l1539:	
  5459                           ;incstack = 0
  5460                           ; Regs used in _EUSART_SetFramingErrorHandler: [wreg]
  5461                           
  5462                           
  5463                           ;mcc_generated_files/eusart.c: 158:     EUSART_FramingErrorHandler = interruptHandler;
  5464  0468  0871               	movf	EUSART_SetFramingErrorHandler@interruptHandler+1,w
  5465  0469  0020               	movlb	0	; select bank0
  5466  046A  00EE               	movwf	_EUSART_FramingErrorHandler+1
  5467  046B  0870               	movf	EUSART_SetFramingErrorHandler@interruptHandler,w
  5468  046C  00ED               	movwf	_EUSART_FramingErrorHandler
  5469  046D                     l143:
  5470  046D  0008               	return
  5471  046E                     __end_of_EUSART_SetFramingErrorHandler:
  5472                           
  5473                           	psect	text19
  5474  0462                     __ptext19:	
  5475 ;; *************** function _EUSART_SetErrorHandler *****************
  5476 ;; Defined at:
  5477 ;;		line 165 in file "mcc_generated_files/eusart.c"
  5478 ;; Parameters:    Size  Location     Type
  5479 ;;  interruptHan    2    0[COMMON] PTR FTN()void 
  5480 ;;		 -> EUSART_DefaultErrorHandler(1), 
  5481 ;; Auto vars:     Size  Location     Type
  5482 ;;		None
  5483 ;; Return value:  Size  Location     Type
  5484 ;;                  1    wreg      void 
  5485 ;; Registers used:
  5486 ;;		wreg
  5487 ;; Tracked objects:
  5488 ;;		On entry : 0/0
  5489 ;;		On exit  : 0/0
  5490 ;;		Unchanged: 0/0
  5491 ;; Data sizes:     COMMON   BANK0   BANK1   BANK2   BANK3   BANK4   BANK5   BANK6   BANK7   BANK8   BANK9  BANK10  BANK1
      +1  BANK12  BANK13  BANK14  BANK15  BANK16  BANK17  BANK18  BANK19  BANK20  BANK21  BANK22  BANK23  BANK24  BANK25
  5492 ;;      Params:         2       0       0       0       0       0       0       0       0       0       0       0       
      +0       0       0       0       0       0       0       0       0       0       0       0       0       0       0
  5493 ;;      Locals:         0       0       0       0       0       0       0       0       0       0       0       0       
      +0       0       0       0       0       0       0       0       0       0       0       0       0       0       0
  5494 ;;      Temps:          0       0       0       0       0       0       0       0       0       0       0       0       
      +0       0       0       0       0       0       0       0       0       0       0       0       0       0       0
  5495 ;;      Totals:         2       0       0       0       0       0       0       0       0       0       0       0       
      +0       0       0       0       0       0       0       0       0       0       0       0       0       0       0
  5496 ;;Total ram usage:        2 bytes
  5497 ;; Hardware stack levels used:    1
  5498 ;; This function calls:
  5499 ;;		Nothing
  5500 ;; This function is called by:
  5501 ;;		_EUSART_Initialize
  5502 ;; This function uses a non-reentrant model
  5503 ;;
  5504                           
  5505                           
  5506                           ;psect for function _EUSART_SetErrorHandler
  5507  0462                     _EUSART_SetErrorHandler:
  5508  0462                     l1543:	
  5509                           ;incstack = 0
  5510                           ; Regs used in _EUSART_SetErrorHandler: [wreg]
  5511                           
  5512                           
  5513                           ;mcc_generated_files/eusart.c: 166:     EUSART_ErrorHandler = interruptHandler;
  5514  0462  0871               	movf	EUSART_SetErrorHandler@interruptHandler+1,w
  5515  0463  0021               	movlb	1	; select bank1
  5516  0464  00E5               	movwf	(_EUSART_ErrorHandler+1)^(0+128)
  5517  0465  0870               	movf	EUSART_SetErrorHandler@interruptHandler,w
  5518  0466  00E4               	movwf	_EUSART_ErrorHandler^(0+128)
  5519  0467                     l149:
  5520  0467  0008               	return
  5521  0468                     __end_of_EUSART_SetErrorHandler:
  5522                           
  5523                           	psect	text20
  5524  060F                     __ptext20:	
  5525 ;; *************** function _ReadFromMem *****************
  5526 ;; Defined at:
  5527 ;;		line 37 in file "apps/src/bootloader.c"
  5528 ;; Parameters:    Size  Location     Type
  5529 ;;  recv_frame      1    wreg     PTR unsigned char 
  5530 ;;		 -> main@recv_frame(68), 
  5531 ;;  send_frame      1    5[COMMON] PTR unsigned char 
  5532 ;;		 -> main@send_frame(66), 
  5533 ;; Auto vars:     Size  Location     Type
  5534 ;;  recv_frame      1    2[BANK0 ] PTR unsigned char 
  5535 ;;		 -> main@recv_frame(68), 
  5536 ;;  dbyte           2    3[BANK0 ] unsigned short 
  5537 ;;  def_addr        2    0[BANK0 ] unsigned short 
  5538 ;;  i               1    5[BANK0 ] unsigned char 
  5539 ;; Return value:  Size  Location     Type
  5540 ;;                  1    wreg      _Bool 
  5541 ;; Registers used:
  5542 ;;		wreg, fsr1l, fsr1h, status,2, status,0, pclath, cstack
  5543 ;; Tracked objects:
  5544 ;;		On entry : 0/0
  5545 ;;		On exit  : 0/0
  5546 ;;		Unchanged: 0/0
  5547 ;; Data sizes:     COMMON   BANK0   BANK1   BANK2   BANK3   BANK4   BANK5   BANK6   BANK7   BANK8   BANK9  BANK10  BANK1
      +1  BANK12  BANK13  BANK14  BANK15  BANK16  BANK17  BANK18  BANK19  BANK20  BANK21  BANK22  BANK23  BANK24  BANK25
  5548 ;;      Params:         1       0       0       0       0       0       0       0       0       0       0       0       
      +0       0       0       0       0       0       0       0       0       0       0       0       0       0       0
  5549 ;;      Locals:         0       6       0       0       0       0       0       0       0       0       0       0       
      +0       0       0       0       0       0       0       0       0       0       0       0       0       0       0
  5550 ;;      Temps:          7       0       0       0       0       0       0       0       0       0       0       0       
      +0       0       0       0       0       0       0       0       0       0       0       0       0       0       0
  5551 ;;      Totals:         8       6       0       0       0       0       0       0       0       0       0       0       
      +0       0       0       0       0       0       0       0       0       0       0       0       0       0       0
  5552 ;;Total ram usage:       14 bytes
  5553 ;; Hardware stack levels used:    1
  5554 ;; Hardware stack levels required when called:    1
  5555 ;; This function calls:
  5556 ;;		_FLASH_Read
  5557 ;; This function is called by:
  5558 ;;		_main
  5559 ;; This function uses a non-reentrant model
  5560 ;;
  5561                           
  5562                           
  5563                           ;psect for function _ReadFromMem
  5564  060F                     _ReadFromMem:
  5565                           
  5566                           ;incstack = 0
  5567                           ; Regs used in _ReadFromMem: [wreg+fsr1l+fsr1h+status,2+status,0+pclath+cstack]
  5568                           ;ReadFromMem@recv_frame stored from wreg
  5569  060F  0020               	movlb	0	; select bank0
  5570  0610  00A2               	movwf	ReadFromMem@recv_frame
  5571  0611                     l1823:
  5572                           
  5573                           ;apps/src/bootloader.c: 38:  uint8_t i = 0;
  5574  0611  01A5               	clrf	ReadFromMem@i
  5575                           
  5576                           ;apps/src/bootloader.c: 40:  uint16_t def_addr = 0;
  5577  0612  01A0               	clrf	ReadFromMem@def_addr
  5578  0613  01A1               	clrf	ReadFromMem@def_addr+1
  5579  0614                     l1825:
  5580                           
  5581                           ;apps/src/bootloader.c: 42:  def_addr = (uint16_t)(((recv_frame[2] << 8) & 0xFF00) | (re
      +                          cv_frame[3] & 0x00FF));
  5582  0614  0822               	movf	ReadFromMem@recv_frame,w
  5583  0615  3E03               	addlw	3
  5584  0616  0086               	movwf	6
  5585  0617  0187               	clrf	7
  5586  0618  0801               	movf	1,w
  5587  0619  00F6               	movwf	??_ReadFromMem
  5588  061A  01F7               	clrf	??_ReadFromMem+1
  5589  061B  0822               	movf	ReadFromMem@recv_frame,w
  5590  061C  3E02               	addlw	2
  5591  061D  0086               	movwf	6
  5592  061E  0187               	clrf	7
  5593  061F  0801               	movf	1,w
  5594  0620  00F8               	movwf	??_ReadFromMem+2
  5595  0621  01F9               	clrf	??_ReadFromMem+3
  5596  0622  0878               	movf	??_ReadFromMem+2,w
  5597  0623  00F9               	movwf	??_ReadFromMem+3
  5598  0624  01F8               	clrf	??_ReadFromMem+2
  5599  0625  3000               	movlw	0
  5600  0626  0578               	andwf	??_ReadFromMem+2,w
  5601  0627  00FB               	movwf	??_ReadFromMem+5
  5602  0628  30FF               	movlw	255
  5603  0629  0579               	andwf	??_ReadFromMem+3,w
  5604  062A  00FC               	movwf	??_ReadFromMem+6
  5605  062B  0876               	movf	??_ReadFromMem,w
  5606  062C  047B               	iorwf	??_ReadFromMem+5,w
  5607  062D  00A0               	movwf	ReadFromMem@def_addr
  5608  062E  0877               	movf	??_ReadFromMem+1,w
  5609  062F  047C               	iorwf	??_ReadFromMem+6,w
  5610  0630  00A1               	movwf	ReadFromMem@def_addr+1
  5611  0631                     l1827:
  5612                           
  5613                           ;apps/src/bootloader.c: 44:  if (recv_frame[2] == 0x80){
  5614  0631  0822               	movf	ReadFromMem@recv_frame,w
  5615  0632  3E02               	addlw	2
  5616  0633  0086               	movwf	6
  5617  0634  0187               	clrf	7
  5618  0635  3080               	movlw	128
  5619  0636  0601               	xorwf	1,w
  5620  0637  1D03               	btfss	3,2
  5621  0638  2E3A               	goto	u451
  5622  0639  2E3B               	goto	u450
  5623  063A                     u451:
  5624  063A  2E60               	goto	l1839
  5625  063B                     u450:
  5626  063B                     l1829:
  5627                           
  5628                           ;apps/src/bootloader.c: 45:   dbyte = FLASH_Read(def_addr);
  5629  063B  0821               	movf	ReadFromMem@def_addr+1,w
  5630  063C  00F1               	movwf	FLASH_Read@addr+1
  5631  063D  0820               	movf	ReadFromMem@def_addr,w
  5632  063E  00F0               	movwf	FLASH_Read@addr
  5633  063F  3185  2577  3186   	fcall	_FLASH_Read
  5634  0642  0871               	movf	?_FLASH_Read+1,w
  5635  0643  0020               	movlb	0	; select bank0
  5636  0644  00A4               	movwf	ReadFromMem@dbyte+1
  5637  0645  0870               	movf	?_FLASH_Read,w
  5638  0646  00A3               	movwf	ReadFromMem@dbyte
  5639  0647                     l1831:
  5640                           
  5641                           ;apps/src/bootloader.c: 46:   send_frame[2] = (uint8_t)((dbyte & 0xFF00) >> 8);
  5642  0647  0824               	movf	ReadFromMem@dbyte+1,w
  5643  0648  00F6               	movwf	??_ReadFromMem
  5644  0649  0875               	movf	ReadFromMem@send_frame,w
  5645  064A  3E02               	addlw	2
  5646  064B  0086               	movwf	6
  5647  064C  0187               	clrf	7
  5648  064D  0876               	movf	??_ReadFromMem,w
  5649  064E  0081               	movwf	1
  5650  064F                     l1833:
  5651                           
  5652                           ;apps/src/bootloader.c: 47:   send_frame[3] = (uint8_t)(dbyte & 0x00FF);
  5653  064F  0823               	movf	ReadFromMem@dbyte,w
  5654  0650  00F6               	movwf	??_ReadFromMem
  5655  0651  0875               	movf	ReadFromMem@send_frame,w
  5656  0652  3E03               	addlw	3
  5657  0653  0086               	movwf	6
  5658  0654  0187               	clrf	7
  5659  0655  0876               	movf	??_ReadFromMem,w
  5660  0656  0081               	movwf	1
  5661  0657                     l1835:
  5662                           
  5663                           ;apps/src/bootloader.c: 48:   i++; i++;
  5664  0657  3001               	movlw	1
  5665  0658  00F6               	movwf	??_ReadFromMem
  5666  0659  0876               	movf	??_ReadFromMem,w
  5667  065A  07A5               	addwf	ReadFromMem@i,f
  5668  065B                     l1837:
  5669  065B  3001               	movlw	1
  5670  065C  00F6               	movwf	??_ReadFromMem
  5671  065D  0876               	movf	??_ReadFromMem,w
  5672  065E  07A5               	addwf	ReadFromMem@i,f
  5673                           
  5674                           ;apps/src/bootloader.c: 50:  } else {
  5675  065F  2E91               	goto	l1857
  5676  0660                     l1839:
  5677                           
  5678                           ;apps/src/bootloader.c: 52:   for (i = 0; i < 0x0020 +0x0020; i += 2){
  5679  0660  01A5               	clrf	ReadFromMem@i
  5680  0661                     l1845:
  5681                           
  5682                           ;apps/src/bootloader.c: 53:    dbyte = FLASH_Read(def_addr);
  5683  0661  0821               	movf	ReadFromMem@def_addr+1,w
  5684  0662  00F1               	movwf	FLASH_Read@addr+1
  5685  0663  0820               	movf	ReadFromMem@def_addr,w
  5686  0664  00F0               	movwf	FLASH_Read@addr
  5687  0665  3185  2577  3186   	fcall	_FLASH_Read
  5688  0668  0871               	movf	?_FLASH_Read+1,w
  5689  0669  0020               	movlb	0	; select bank0
  5690  066A  00A4               	movwf	ReadFromMem@dbyte+1
  5691  066B  0870               	movf	?_FLASH_Read,w
  5692  066C  00A3               	movwf	ReadFromMem@dbyte
  5693  066D                     l1847:
  5694                           
  5695                           ;apps/src/bootloader.c: 54:    send_frame[i+2] = (uint8_t)((dbyte & 0xFF00) >> 8);
  5696  066D  0824               	movf	ReadFromMem@dbyte+1,w
  5697  066E  00F6               	movwf	??_ReadFromMem
  5698  066F  0825               	movf	ReadFromMem@i,w
  5699  0670  0775               	addwf	ReadFromMem@send_frame,w
  5700  0671  00F7               	movwf	??_ReadFromMem+1
  5701  0672  0877               	movf	??_ReadFromMem+1,w
  5702  0673  3E02               	addlw	2
  5703  0674  0086               	movwf	6
  5704  0675  0187               	clrf	7
  5705  0676  0876               	movf	??_ReadFromMem,w
  5706  0677  0081               	movwf	1
  5707  0678                     l1849:
  5708                           
  5709                           ;apps/src/bootloader.c: 55:    send_frame[i+3] = (uint8_t)(dbyte & 0x00FF);
  5710  0678  0823               	movf	ReadFromMem@dbyte,w
  5711  0679  00F6               	movwf	??_ReadFromMem
  5712  067A  0825               	movf	ReadFromMem@i,w
  5713  067B  0775               	addwf	ReadFromMem@send_frame,w
  5714  067C  00F7               	movwf	??_ReadFromMem+1
  5715  067D  0877               	movf	??_ReadFromMem+1,w
  5716  067E  3E03               	addlw	3
  5717  067F  0086               	movwf	6
  5718  0680  0187               	clrf	7
  5719  0681  0876               	movf	??_ReadFromMem,w
  5720  0682  0081               	movwf	1
  5721  0683                     l1851:
  5722                           
  5723                           ;apps/src/bootloader.c: 56:    def_addr++;
  5724  0683  3001               	movlw	1
  5725  0684  07A0               	addwf	ReadFromMem@def_addr,f
  5726  0685  3000               	movlw	0
  5727  0686  3DA1               	addwfc	ReadFromMem@def_addr+1,f
  5728  0687                     l1853:
  5729                           
  5730                           ;apps/src/bootloader.c: 57:   }
  5731  0687  3002               	movlw	2
  5732  0688  00F6               	movwf	??_ReadFromMem
  5733  0689  0876               	movf	??_ReadFromMem,w
  5734  068A  07A5               	addwf	ReadFromMem@i,f
  5735  068B                     l1855:
  5736  068B  3040               	movlw	64
  5737  068C  0225               	subwf	ReadFromMem@i,w
  5738  068D  1C03               	skipc
  5739  068E  2E90               	goto	u461
  5740  068F  2E91               	goto	u460
  5741  0690                     u461:
  5742  0690  2E61               	goto	l1845
  5743  0691                     u460:
  5744  0691                     l1857:
  5745                           
  5746                           ;apps/src/bootloader.c: 61:  send_frame[0] = i + 2;
  5747  0691  0825               	movf	ReadFromMem@i,w
  5748  0692  3E02               	addlw	2
  5749  0693  00F6               	movwf	??_ReadFromMem
  5750  0694  0875               	movf	ReadFromMem@send_frame,w
  5751  0695  0086               	movwf	6
  5752  0696  0187               	clrf	7
  5753  0697  0876               	movf	??_ReadFromMem,w
  5754  0698  0081               	movwf	1
  5755  0699                     l1859:
  5756                           
  5757                           ;apps/src/bootloader.c: 62:  send_frame[1] = 0x02;
  5758  0699  3002               	movlw	2
  5759  069A  00F6               	movwf	??_ReadFromMem
  5760  069B  0A75               	incf	ReadFromMem@send_frame,w
  5761  069C  0086               	movwf	6
  5762  069D  0187               	clrf	7
  5763  069E  0876               	movf	??_ReadFromMem,w
  5764  069F  0081               	movwf	1
  5765  06A0                     l1861:
  5766                           
  5767                           ;apps/src/bootloader.c: 64:  return 1;
  5768  06A0  3001               	movlw	1
  5769  06A1                     l339:
  5770  06A1  0008               	return
  5771  06A2                     __end_of_ReadFromMem:
  5772                           
  5773                           	psect	text21
  5774  0577                     __ptext21:	
  5775 ;; *************** function _FLASH_Read *****************
  5776 ;; Defined at:
  5777 ;;		line 42 in file "apps/src/memory.c"
  5778 ;; Parameters:    Size  Location     Type
  5779 ;;  addr            2    0[COMMON] unsigned short 
  5780 ;; Auto vars:     Size  Location     Type
  5781 ;;  INR_state       1    4[COMMON] unsigned char 
  5782 ;; Return value:  Size  Location     Type
  5783 ;;                  2    0[COMMON] unsigned short 
  5784 ;; Registers used:
  5785 ;;		wreg, status,2, status,0
  5786 ;; Tracked objects:
  5787 ;;		On entry : 0/0
  5788 ;;		On exit  : 0/0
  5789 ;;		Unchanged: 0/0
  5790 ;; Data sizes:     COMMON   BANK0   BANK1   BANK2   BANK3   BANK4   BANK5   BANK6   BANK7   BANK8   BANK9  BANK10  BANK1
      +1  BANK12  BANK13  BANK14  BANK15  BANK16  BANK17  BANK18  BANK19  BANK20  BANK21  BANK22  BANK23  BANK24  BANK25
  5791 ;;      Params:         2       0       0       0       0       0       0       0       0       0       0       0       
      +0       0       0       0       0       0       0       0       0       0       0       0       0       0       0
  5792 ;;      Locals:         1       0       0       0       0       0       0       0       0       0       0       0       
      +0       0       0       0       0       0       0       0       0       0       0       0       0       0       0
  5793 ;;      Temps:          2       0       0       0       0       0       0       0       0       0       0       0       
      +0       0       0       0       0       0       0       0       0       0       0       0       0       0       0
  5794 ;;      Totals:         5       0       0       0       0       0       0       0       0       0       0       0       
      +0       0       0       0       0       0       0       0       0       0       0       0       0       0       0
  5795 ;;Total ram usage:        5 bytes
  5796 ;; Hardware stack levels used:    1
  5797 ;; This function calls:
  5798 ;;		Nothing
  5799 ;; This function is called by:
  5800 ;;		_ReadFromMem
  5801 ;; This function uses a non-reentrant model
  5802 ;;
  5803                           
  5804                           
  5805                           ;psect for function _FLASH_Read
  5806  0577                     _FLASH_Read:
  5807  0577                     l1667:	
  5808                           ;incstack = 0
  5809                           ; Regs used in _FLASH_Read: [wreg+status,2+status,0]
  5810                           
  5811                           
  5812                           ;apps/src/memory.c: 43:     uint8_t INR_state;;apps/src/memory.c: 44:     INR_state = IN
      +                          TCONbits.GIE;
  5813  0577  3000               	movlw	0
  5814  0578  1B8B               	btfsc	11,7	;volatile
  5815  0579  3001               	movlw	1
  5816  057A  00F4               	movwf	FLASH_Read@INR_state
  5817  057B                     l1669:
  5818                           
  5819                           ;apps/src/memory.c: 47:     if ((uint8_t)((addr & 0xFF00) >> 8) == 0x80){
  5820  057B  0871               	movf	FLASH_Read@addr+1,w
  5821  057C  00F3               	movwf	??_FLASH_Read+1
  5822  057D  0870               	movf	FLASH_Read@addr,w
  5823  057E  00F2               	movwf	??_FLASH_Read
  5824  057F  0873               	movf	??_FLASH_Read+1,w
  5825  0580  00F2               	movwf	??_FLASH_Read
  5826  0581  01F3               	clrf	??_FLASH_Read+1
  5827  0582  3080               	movlw	128
  5828  0583  0672               	xorwf	??_FLASH_Read,w
  5829  0584  1D03               	btfss	3,2
  5830  0585  2D87               	goto	u371
  5831  0586  2D88               	goto	u370
  5832  0587                     u371:
  5833  0587  2D8C               	goto	l1675
  5834  0588                     u370:
  5835  0588                     l1671:
  5836                           
  5837                           ;apps/src/memory.c: 48:         EEADRH = 0x00;
  5838  0588  0023               	movlb	3	; select bank3
  5839  0589  0192               	clrf	18	;volatile
  5840  058A                     l1673:
  5841                           
  5842                           ;apps/src/memory.c: 49:         EECON1bits.CFGS = 1;
  5843  058A  1715               	bsf	21,6	;volsfr
  5844                           
  5845                           ;apps/src/memory.c: 50:     } else {
  5846  058B  2D90               	goto	l1679
  5847  058C                     l1675:
  5848                           
  5849                           ;apps/src/memory.c: 51:      EEADRH = (uint8_t)((addr & 0xFF00) >> 8);
  5850  058C  0871               	movf	FLASH_Read@addr+1,w
  5851  058D  0023               	movlb	3	; select bank3
  5852  058E  0092               	movwf	18	;volatile
  5853  058F                     l1677:
  5854                           
  5855                           ;apps/src/memory.c: 52:         EECON1bits.CFGS = 0;
  5856  058F  1315               	bcf	21,6	;volsfr
  5857  0590                     l1679:
  5858                           
  5859                           ;apps/src/memory.c: 55:     EEADRL = (uint8_t)(addr & 0x00FF);
  5860  0590  0870               	movf	FLASH_Read@addr,w
  5861  0591  0091               	movwf	17	;volatile
  5862  0592                     l1681:
  5863                           
  5864                           ;apps/src/memory.c: 57:     EECON1bits.EEPGD = 1;
  5865  0592  1795               	bsf	21,7	;volsfr
  5866  0593                     l1683:
  5867                           
  5868                           ;apps/src/memory.c: 58:     INTCONbits.GIE = 0;
  5869  0593  138B               	bcf	11,7	;volatile
  5870  0594                     l1685:
  5871                           
  5872                           ;apps/src/memory.c: 60:     EECON1bits.RD = 1;
  5873  0594  1415               	bsf	21,0	;volsfr
  5874  0595                     l1687:
  5875                           
  5876                           ;apps/src/memory.c: 61:     __nop();
  5877  0595  0000               	nop
  5878  0596                     l1689:
  5879                           
  5880                           ;apps/src/memory.c: 62:     __nop();
  5881  0596  0000               	nop
  5882  0597                     l1691:
  5883                           
  5884                           ;apps/src/memory.c: 64:     INTCONbits.GIE = INR_state;
  5885  0597  0C74               	rrf	FLASH_Read@INR_state,w
  5886  0598  1C03               	skipc
  5887  0599  138B               	bcf	11,7	;volatile
  5888  059A  1803               	skipnc
  5889  059B  178B               	bsf	11,7	;volatile
  5890  059C                     l1693:
  5891                           
  5892                           ;apps/src/memory.c: 67:     return ((uint16_t)((EEDATH << 8) | EEDATL));
  5893  059C  0023               	movlb	3	; select bank3
  5894  059D  0814               	movf	20,w	;volatile
  5895  059E  00F1               	movwf	?_FLASH_Read+1
  5896  059F  0813               	movf	19,w	;volatile
  5897  05A0  00F0               	movwf	?_FLASH_Read
  5898  05A1                     l399:
  5899  05A1  0008               	return
  5900  05A2                     __end_of_FLASH_Read:
  5901                           
  5902                           	psect	text22
  5903  04E6                     __ptext22:	
  5904 ;; *************** function _EraseRowMem *****************
  5905 ;; Defined at:
  5906 ;;		line 24 in file "apps/src/bootloader.c"
  5907 ;; Parameters:    Size  Location     Type
  5908 ;;  recv_frame      1    wreg     PTR unsigned char 
  5909 ;;		 -> main@recv_frame(68), 
  5910 ;;  send_frame      1    2[COMMON] PTR unsigned char 
  5911 ;;		 -> main@send_frame(66), 
  5912 ;; Auto vars:     Size  Location     Type
  5913 ;;  recv_frame      1    4[COMMON] PTR unsigned char 
  5914 ;;		 -> main@recv_frame(68), 
  5915 ;; Return value:  Size  Location     Type
  5916 ;;                  1    wreg      _Bool 
  5917 ;; Registers used:
  5918 ;;		wreg, fsr1l, fsr1h, status,2, status,0, pclath, cstack
  5919 ;; Tracked objects:
  5920 ;;		On entry : 0/0
  5921 ;;		On exit  : 0/0
  5922 ;;		Unchanged: 0/0
  5923 ;; Data sizes:     COMMON   BANK0   BANK1   BANK2   BANK3   BANK4   BANK5   BANK6   BANK7   BANK8   BANK9  BANK10  BANK1
      +1  BANK12  BANK13  BANK14  BANK15  BANK16  BANK17  BANK18  BANK19  BANK20  BANK21  BANK22  BANK23  BANK24  BANK25
  5924 ;;      Params:         1       0       0       0       0       0       0       0       0       0       0       0       
      +0       0       0       0       0       0       0       0       0       0       0       0       0       0       0
  5925 ;;      Locals:         1       0       0       0       0       0       0       0       0       0       0       0       
      +0       0       0       0       0       0       0       0       0       0       0       0       0       0       0
  5926 ;;      Temps:          1       0       0       0       0       0       0       0       0       0       0       0       
      +0       0       0       0       0       0       0       0       0       0       0       0       0       0       0
  5927 ;;      Totals:         3       0       0       0       0       0       0       0       0       0       0       0       
      +0       0       0       0       0       0       0       0       0       0       0       0       0       0       0
  5928 ;;Total ram usage:        3 bytes
  5929 ;; Hardware stack levels used:    1
  5930 ;; Hardware stack levels required when called:    1
  5931 ;; This function calls:
  5932 ;;		_FLASH_Erase
  5933 ;; This function is called by:
  5934 ;;		_main
  5935 ;; This function uses a non-reentrant model
  5936 ;;
  5937                           
  5938                           
  5939                           ;psect for function _EraseRowMem
  5940  04E6                     _EraseRowMem:
  5941                           
  5942                           ;incstack = 0
  5943                           ; Regs used in _EraseRowMem: [wreg+fsr1l+fsr1h+status,2+status,0+pclath+cstack]
  5944                           ;EraseRowMem@recv_frame stored from wreg
  5945  04E6  00F4               	movwf	EraseRowMem@recv_frame
  5946  04E7                     l1865:
  5947                           
  5948                           ;apps/src/bootloader.c: 29:  FLASH_Erase(recv_frame);
  5949  04E7  0874               	movf	EraseRowMem@recv_frame,w
  5950  04E8  3185  2532  3184   	fcall	_FLASH_Erase
  5951  04EB                     l1867:
  5952                           
  5953                           ;apps/src/bootloader.c: 31:  send_frame[0] = 0x02;
  5954  04EB  3002               	movlw	2
  5955  04EC  00F3               	movwf	??_EraseRowMem
  5956  04ED  0872               	movf	EraseRowMem@send_frame,w
  5957  04EE  0086               	movwf	6
  5958  04EF  0187               	clrf	7
  5959  04F0  0873               	movf	??_EraseRowMem,w
  5960  04F1  0081               	movwf	1
  5961  04F2                     l1869:
  5962                           
  5963                           ;apps/src/bootloader.c: 32:  send_frame[1] = 0x03;
  5964  04F2  3003               	movlw	3
  5965  04F3  00F3               	movwf	??_EraseRowMem
  5966  04F4  0A72               	incf	EraseRowMem@send_frame,w
  5967  04F5  0086               	movwf	6
  5968  04F6  0187               	clrf	7
  5969  04F7  0873               	movf	??_EraseRowMem,w
  5970  04F8  0081               	movwf	1
  5971  04F9                     l1871:
  5972                           
  5973                           ;apps/src/bootloader.c: 33:  return 1;
  5974  04F9  3001               	movlw	1
  5975  04FA                     l332:
  5976  04FA  0008               	return
  5977  04FB                     __end_of_EraseRowMem:
  5978                           
  5979                           	psect	text23
  5980  0532                     __ptext23:	
  5981 ;; *************** function _FLASH_Erase *****************
  5982 ;; Defined at:
  5983 ;;		line 11 in file "apps/src/memory.c"
  5984 ;; Parameters:    Size  Location     Type
  5985 ;;  buffer          1    wreg     PTR unsigned char 
  5986 ;;		 -> main@recv_frame(68), 
  5987 ;; Auto vars:     Size  Location     Type
  5988 ;;  buffer          1    1[COMMON] PTR unsigned char 
  5989 ;;		 -> main@recv_frame(68), 
  5990 ;;  INR_state       1    0[COMMON] unsigned char 
  5991 ;; Return value:  Size  Location     Type
  5992 ;;                  1    wreg      _Bool 
  5993 ;; Registers used:
  5994 ;;		wreg, fsr1l, fsr1h, status,2, status,0
  5995 ;; Tracked objects:
  5996 ;;		On entry : 0/0
  5997 ;;		On exit  : 0/0
  5998 ;;		Unchanged: 0/0
  5999 ;; Data sizes:     COMMON   BANK0   BANK1   BANK2   BANK3   BANK4   BANK5   BANK6   BANK7   BANK8   BANK9  BANK10  BANK1
      +1  BANK12  BANK13  BANK14  BANK15  BANK16  BANK17  BANK18  BANK19  BANK20  BANK21  BANK22  BANK23  BANK24  BANK25
  6000 ;;      Params:         0       0       0       0       0       0       0       0       0       0       0       0       
      +0       0       0       0       0       0       0       0       0       0       0       0       0       0       0
  6001 ;;      Locals:         2       0       0       0       0       0       0       0       0       0       0       0       
      +0       0       0       0       0       0       0       0       0       0       0       0       0       0       0
  6002 ;;      Temps:          0       0       0       0       0       0       0       0       0       0       0       0       
      +0       0       0       0       0       0       0       0       0       0       0       0       0       0       0
  6003 ;;      Totals:         2       0       0       0       0       0       0       0       0       0       0       0       
      +0       0       0       0       0       0       0       0       0       0       0       0       0       0       0
  6004 ;;Total ram usage:        2 bytes
  6005 ;; Hardware stack levels used:    1
  6006 ;; This function calls:
  6007 ;;		Nothing
  6008 ;; This function is called by:
  6009 ;;		_EraseRowMem
  6010 ;; This function uses a non-reentrant model
  6011 ;;
  6012                           
  6013                           
  6014                           ;psect for function _FLASH_Erase
  6015  0532                     _FLASH_Erase:
  6016                           
  6017                           ;incstack = 0
  6018                           ; Regs used in _FLASH_Erase: [wreg+fsr1l+fsr1h+status,2+status,0]
  6019                           ;FLASH_Erase@buffer stored from wreg
  6020  0532  00F1               	movwf	FLASH_Erase@buffer
  6021  0533                     l1641:
  6022                           
  6023                           ;apps/src/memory.c: 12:     uint8_t INR_state;;apps/src/memory.c: 13:     INR_state = IN
      +                          TCONbits.GIE;
  6024  0533  3000               	movlw	0
  6025  0534  1B8B               	btfsc	11,7	;volatile
  6026  0535  3001               	movlw	1
  6027  0536  00F0               	movwf	FLASH_Erase@INR_state
  6028  0537                     l1643:
  6029                           
  6030                           ;apps/src/memory.c: 15:     INTCONbits.GIE = 0;
  6031  0537  138B               	bcf	11,7	;volatile
  6032  0538                     l1645:
  6033                           
  6034                           ;apps/src/memory.c: 20:     EEADRH = buffer[2];
  6035  0538  0871               	movf	FLASH_Erase@buffer,w
  6036  0539  0086               	movwf	6
  6037  053A  0187               	clrf	7
  6038  053B  3F42               	moviw [2]fsr1
  6039  053C  0023               	movlb	3	; select bank3
  6040  053D  0092               	movwf	18	;volatile
  6041  053E                     l1647:
  6042                           
  6043                           ;apps/src/memory.c: 21:     EEADRL = buffer[3];
  6044  053E  0871               	movf	FLASH_Erase@buffer,w
  6045  053F  0086               	movwf	6
  6046  0540  0187               	clrf	7
  6047  0541  3F43               	moviw [3]fsr1
  6048  0542  0091               	movwf	17	;volatile
  6049  0543                     l1649:
  6050                           
  6051                           ;apps/src/memory.c: 23:     EECON1 = 0x94;
  6052  0543  3094               	movlw	148
  6053  0544  0095               	movwf	21	;volsfr
  6054  0545                     l1651:
  6055                           
  6056                           ;apps/src/memory.c: 29:     EECON2 = 0x55;
  6057  0545  3055               	movlw	85
  6058  0546  0096               	movwf	22	;volsfr
  6059  0547                     l1653:
  6060                           
  6061                           ;apps/src/memory.c: 30:     EECON2 = 0xAA;
  6062  0547  30AA               	movlw	170
  6063  0548  0096               	movwf	22	;volsfr
  6064  0549                     l1655:
  6065                           
  6066                           ;apps/src/memory.c: 31:     EECON1bits.WR = 1;
  6067  0549  1495               	bsf	21,1	;volsfr
  6068  054A                     l1657:
  6069                           
  6070                           ;apps/src/memory.c: 32:     __nop();
  6071  054A  0000               	nop
  6072  054B                     l1659:
  6073                           
  6074                           ;apps/src/memory.c: 33:     __nop();
  6075  054B  0000               	nop
  6076  054C                     l1661:
  6077                           
  6078                           ;apps/src/memory.c: 35:     EECON1bits.WREN = 0;
  6079  054C  0023               	movlb	3	; select bank3
  6080  054D  1115               	bcf	21,2	;volsfr
  6081  054E                     l1663:
  6082                           
  6083                           ;apps/src/memory.c: 36:     INTCONbits.GIE = INR_state;
  6084  054E  0C70               	rrf	FLASH_Erase@INR_state,w
  6085  054F  1C03               	skipc
  6086  0550  138B               	bcf	11,7	;volatile
  6087  0551  1803               	skipnc
  6088  0552  178B               	bsf	11,7	;volatile
  6089  0553                     l394:
  6090  0553  0008               	return
  6091  0554                     __end_of_FLASH_Erase:
  6092                           
  6093                           	psect	text24
  6094  04C0                     __ptext24:	
  6095 ;; *************** function _DefineError *****************
  6096 ;; Defined at:
  6097 ;;		line 8 in file "apps/src/bootloader.c"
  6098 ;; Parameters:    Size  Location     Type
  6099 ;;  send_frame      1    wreg     PTR unsigned char 
  6100 ;;		 -> main@send_frame(66), 
  6101 ;; Auto vars:     Size  Location     Type
  6102 ;;  send_frame      1    1[COMMON] PTR unsigned char 
  6103 ;;		 -> main@send_frame(66), 
  6104 ;; Return value:  Size  Location     Type
  6105 ;;                  1    wreg      _Bool 
  6106 ;; Registers used:
  6107 ;;		wreg, fsr1l, fsr1h
  6108 ;; Tracked objects:
  6109 ;;		On entry : 0/0
  6110 ;;		On exit  : 0/0
  6111 ;;		Unchanged: 0/0
  6112 ;; Data sizes:     COMMON   BANK0   BANK1   BANK2   BANK3   BANK4   BANK5   BANK6   BANK7   BANK8   BANK9  BANK10  BANK1
      +1  BANK12  BANK13  BANK14  BANK15  BANK16  BANK17  BANK18  BANK19  BANK20  BANK21  BANK22  BANK23  BANK24  BANK25
  6113 ;;      Params:         0       0       0       0       0       0       0       0       0       0       0       0       
      +0       0       0       0       0       0       0       0       0       0       0       0       0       0       0
  6114 ;;      Locals:         1       0       0       0       0       0       0       0       0       0       0       0       
      +0       0       0       0       0       0       0       0       0       0       0       0       0       0       0
  6115 ;;      Temps:          1       0       0       0       0       0       0       0       0       0       0       0       
      +0       0       0       0       0       0       0       0       0       0       0       0       0       0       0
  6116 ;;      Totals:         2       0       0       0       0       0       0       0       0       0       0       0       
      +0       0       0       0       0       0       0       0       0       0       0       0       0       0       0
  6117 ;;Total ram usage:        2 bytes
  6118 ;; Hardware stack levels used:    1
  6119 ;; This function calls:
  6120 ;;		Nothing
  6121 ;; This function is called by:
  6122 ;;		_main
  6123 ;; This function uses a non-reentrant model
  6124 ;;
  6125                           
  6126                           
  6127                           ;psect for function _DefineError
  6128  04C0                     _DefineError:
  6129                           
  6130                           ;incstack = 0
  6131                           ; Regs used in _DefineError: [wregfsr1]
  6132                           ;DefineError@send_frame stored from wreg
  6133  04C0  00F1               	movwf	DefineError@send_frame
  6134  04C1                     l1885:
  6135                           
  6136                           ;apps/src/bootloader.c: 9:  send_frame[0] = 0x02;
  6137  04C1  3002               	movlw	2
  6138  04C2  00F0               	movwf	??_DefineError
  6139  04C3  0871               	movf	DefineError@send_frame,w
  6140  04C4  0086               	movwf	6
  6141  04C5  0187               	clrf	7
  6142  04C6  0870               	movf	??_DefineError,w
  6143  04C7  0081               	movwf	1
  6144                           
  6145                           ;apps/src/bootloader.c: 10:  send_frame[1] = 0xFF;
  6146  04C8  30FF               	movlw	255
  6147  04C9  00F0               	movwf	??_DefineError
  6148  04CA  0A71               	incf	DefineError@send_frame,w
  6149  04CB  0086               	movwf	6
  6150  04CC  0187               	clrf	7
  6151  04CD  0870               	movf	??_DefineError,w
  6152  04CE  0081               	movwf	1
  6153  04CF                     l1887:
  6154                           
  6155                           ;apps/src/bootloader.c: 11:  return 1;
  6156  04CF  3001               	movlw	1
  6157  04D0                     l329:
  6158  04D0  0008               	return
  6159  04D1                     __end_of_DefineError:
  6160                           
  6161                           	psect	text25
  6162  04D1                     __ptext25:	
  6163 ;; *************** function _ClearArray *****************
  6164 ;; Defined at:
  6165 ;;		line 3 in file "apps/src/bootloader.c"
  6166 ;; Parameters:    Size  Location     Type
  6167 ;;  array           1    wreg     PTR unsigned char 
  6168 ;;		 -> main@send_frame(66), main@recv_frame(68), 
  6169 ;; Auto vars:     Size  Location     Type
  6170 ;;  array           1    1[COMMON] PTR unsigned char 
  6171 ;;		 -> main@send_frame(66), main@recv_frame(68), 
  6172 ;;  i               1    2[COMMON] unsigned char 
  6173 ;; Return value:  Size  Location     Type
  6174 ;;                  1    wreg      void 
  6175 ;; Registers used:
  6176 ;;		wreg, fsr1l, fsr1h, status,2, status,0
  6177 ;; Tracked objects:
  6178 ;;		On entry : 0/0
  6179 ;;		On exit  : 0/0
  6180 ;;		Unchanged: 0/0
  6181 ;; Data sizes:     COMMON   BANK0   BANK1   BANK2   BANK3   BANK4   BANK5   BANK6   BANK7   BANK8   BANK9  BANK10  BANK1
      +1  BANK12  BANK13  BANK14  BANK15  BANK16  BANK17  BANK18  BANK19  BANK20  BANK21  BANK22  BANK23  BANK24  BANK25
  6182 ;;      Params:         0       0       0       0       0       0       0       0       0       0       0       0       
      +0       0       0       0       0       0       0       0       0       0       0       0       0       0       0
  6183 ;;      Locals:         2       0       0       0       0       0       0       0       0       0       0       0       
      +0       0       0       0       0       0       0       0       0       0       0       0       0       0       0
  6184 ;;      Temps:          1       0       0       0       0       0       0       0       0       0       0       0       
      +0       0       0       0       0       0       0       0       0       0       0       0       0       0       0
  6185 ;;      Totals:         3       0       0       0       0       0       0       0       0       0       0       0       
      +0       0       0       0       0       0       0       0       0       0       0       0       0       0       0
  6186 ;;Total ram usage:        3 bytes
  6187 ;; Hardware stack levels used:    1
  6188 ;; This function calls:
  6189 ;;		Nothing
  6190 ;; This function is called by:
  6191 ;;		_main
  6192 ;; This function uses a non-reentrant model
  6193 ;;
  6194                           
  6195                           
  6196                           ;psect for function _ClearArray
  6197  04D1                     _ClearArray:
  6198                           
  6199                           ;incstack = 0
  6200                           ; Regs used in _ClearArray: [wreg+fsr1l+fsr1h+status,2+status,0]
  6201                           ;ClearArray@array stored from wreg
  6202  04D1  00F1               	movwf	ClearArray@array
  6203  04D2                     l1791:
  6204                           
  6205                           ;apps/src/bootloader.c: 4:  uint8_t i = 0;
  6206  04D2  01F2               	clrf	ClearArray@i
  6207                           
  6208                           ;apps/src/bootloader.c: 5:     for (i = 0; i < 66; i++){array[i]=0x00;}
  6209  04D3  01F2               	clrf	ClearArray@i
  6210  04D4                     l1797:
  6211  04D4  0872               	movf	ClearArray@i,w
  6212  04D5  0771               	addwf	ClearArray@array,w
  6213  04D6  00F0               	movwf	??_ClearArray
  6214  04D7  0870               	movf	??_ClearArray,w
  6215  04D8  0086               	movwf	6
  6216  04D9  0187               	clrf	7
  6217  04DA  0181               	clrf	1
  6218  04DB                     l1799:
  6219  04DB  3001               	movlw	1
  6220  04DC  00F0               	movwf	??_ClearArray
  6221  04DD  0870               	movf	??_ClearArray,w
  6222  04DE  07F2               	addwf	ClearArray@i,f
  6223  04DF                     l1801:
  6224  04DF  3042               	movlw	66
  6225  04E0  0272               	subwf	ClearArray@i,w
  6226  04E1  1C03               	skipc
  6227  04E2  2CE4               	goto	u421
  6228  04E3  2CE5               	goto	u420
  6229  04E4                     u421:
  6230  04E4  2CD4               	goto	l1797
  6231  04E5                     u420:
  6232  04E5                     l326:
  6233  04E5  0008               	return
  6234  04E6                     __end_of_ClearArray:
  6235  007E                     btemp	set	126	;btemp
  6236  007E                     wtemp0	set	126
  6237                           
  6238                           	psect	config
  6239                           
  6240                           ;Config register CONFIG1 @ 0x8007
  6241                           ;	Oscillator Selection
  6242                           ;	FOSC = INTOSC, INTOSC oscillator: I/O function on CLKIN pin
  6243                           ;	Watchdog Timer Enable
  6244                           ;	WDTE = OFF, WDT disabled
  6245                           ;	Power-up Timer Enable
  6246                           ;	PWRTE = ON, PWRT enabled
  6247                           ;	MCLR Pin Function Select
  6248                           ;	MCLRE = OFF, MCLR/VPP pin function is digital input
  6249                           ;	Flash Program Memory Code Protection
  6250                           ;	CP = OFF, Program memory code protection is disabled
  6251                           ;	Data Memory Code Protection
  6252                           ;	CPD = OFF, Data memory code protection is disabled
  6253                           ;	Brown-out Reset Enable
  6254                           ;	BOREN = OFF, Brown-out Reset disabled
  6255                           ;	Clock Out Enable
  6256                           ;	CLKOUTEN = OFF, CLKOUT function is disabled. I/O or oscillator function on the CLKOUT 
      +                          pin
  6257                           ;	Internal/External Switchover
  6258                           ;	IESO = ON, Internal/External Switchover mode is enabled
  6259                           ;	Fail-Safe Clock Monitor Enable
  6260                           ;	FCMEN = ON, Fail-Safe Clock Monitor is enabled
  6261  8007                     	org	32775
  6262  8007  3984               	dw	14724
  6263                           
  6264                           ;Config register CONFIG2 @ 0x8008
  6265                           ;	Flash Memory Self-Write Protection
  6266                           ;	WRT = OFF, Write protection off
  6267                           ;	Voltage Regulator Capacitor Enable bit
  6268                           ;	VCAPEN = OFF, Vcap functionality is disabled on RA6.
  6269                           ;	PLL Enable
  6270                           ;	PLLEN = ON, 4x PLL enabled
  6271                           ;	Stack Overflow/Underflow Reset Enable
  6272                           ;	STVREN = ON, Stack Overflow or Underflow will cause a Reset
  6273                           ;	Brown-out Reset Voltage Selection
  6274                           ;	BORV = LO, Brown-out Reset Voltage (Vbor), low trip point selected.
  6275                           ;	Low Power Brown-Out Reset Enable Bit
  6276                           ;	LPBOR = OFF, Low power brown-out is disabled
  6277                           ;	Low-Voltage Programming Enable
  6278                           ;	LVP = ON, Low-voltage programming enabled
  6279  8008                     	org	32776
  6280  8008  3FFF               	dw	16383

Data Sizes:
    Strings     0
    Constant    4
    Data        0
    BSS         1
    Persistent  38
    Stack       0

Auto Spaces:
    Space          Size  Autos    Used
    COMMON           14     14      14
    BANK0            80     77      80
    BANK1            80     68      72
    BANK2            80      0       0
    BANK3            80      0       0
    BANK4            80      0       0
    BANK5            80      0       0
    BANK6            80      0       0
    BANK7            80      0       0
    BANK8            80      0       0
    BANK9            80      0       0
    BANK10           80      0       0
    BANK11           80      0       0
    BANK12           80      0       0
    BANK13           80      0       0
    BANK14           80      0       0
    BANK15           80      0       0
    BANK16           80      0       0
    BANK17           80      0       0
    BANK18           80      0       0
    BANK19           80      0       0
    BANK20           80      0       0
    BANK21           80      0       0
    BANK22           80      0       0
    BANK23           80      0       0
    BANK24           80      0       0
    BANK25           32      0       0

Pointer List with Targets:

    FLASH_Write@buffer	PTR unsigned char  size(1) Largest target is 68
		 -> main@recv_frame(BANK1[68]), 

    FLASH_Erase@buffer	PTR unsigned char  size(1) Largest target is 68
		 -> main@recv_frame(BANK1[68]), 

    UART_dataWrite@data_ptr	PTR unsigned char  size(1) Largest target is 66
		 -> main@send_frame(BANK0[66]), 

    WriteToMem@send_frame	PTR unsigned char  size(1) Largest target is 66
		 -> main@send_frame(BANK0[66]), 

    WriteToMem@recv_frame	PTR unsigned char  size(1) Largest target is 68
		 -> main@recv_frame(BANK1[68]), 

    ReadFromMem@send_frame	PTR unsigned char  size(1) Largest target is 66
		 -> main@send_frame(BANK0[66]), 

    ReadFromMem@recv_frame	PTR unsigned char  size(1) Largest target is 68
		 -> main@recv_frame(BANK1[68]), 

    EraseRowMem@send_frame	PTR unsigned char  size(1) Largest target is 66
		 -> main@send_frame(BANK0[66]), 

    EraseRowMem@recv_frame	PTR unsigned char  size(1) Largest target is 68
		 -> main@recv_frame(BANK1[68]), 

    DefineError@send_frame	PTR unsigned char  size(1) Largest target is 66
		 -> main@send_frame(BANK0[66]), 

    ClearArray@array	PTR unsigned char  size(1) Largest target is 68
		 -> main@send_frame(BANK0[66]), main@recv_frame(BANK1[68]), 

    EUSART_SetErrorHandler@interruptHandler	PTR FTN()void  size(2) Largest target is 1
		 -> EUSART_DefaultErrorHandler(), 

    EUSART_ErrorHandler	PTR FTN()void  size(2) Largest target is 1
		 -> Absolute function(), EUSART_DefaultErrorHandler(), 

    EUSART_SetOverrunErrorHandler@interruptHandler	PTR FTN()void  size(2) Largest target is 1
		 -> EUSART_DefaultOverrunErrorHandler(), 

    EUSART_OverrunErrorHandler	PTR FTN()void  size(2) Largest target is 1
		 -> Absolute function(), EUSART_DefaultOverrunErrorHandler(), 

    EUSART_SetFramingErrorHandler@interruptHandler	PTR FTN()void  size(2) Largest target is 1
		 -> EUSART_DefaultFramingErrorHandler(), 

    EUSART_FramingErrorHandler	PTR FTN()void  size(2) Largest target is 1
		 -> Absolute function(), EUSART_DefaultFramingErrorHandler(), 


Critical Paths under _main in COMMON

    _main->_WriteToMem
    _WriteToMem->_FLASH_Write
    _UART_dataWrite->_EUSART_Write
    _UART_dataWrite->_EUSART_is_tx_ready
    _EUSART_Initialize->_EUSART_SetErrorHandler
    _EUSART_Initialize->_EUSART_SetFramingErrorHandler
    _EUSART_Initialize->_EUSART_SetOverrunErrorHandler
    _ReadFromMem->_FLASH_Read
    _EraseRowMem->_FLASH_Erase

Critical Paths under _main in BANK0

    _main->_ReadFromMem

Critical Paths under _main in BANK1

    None.

Critical Paths under _main in BANK2

    None.

Critical Paths under _main in BANK3

    None.

Critical Paths under _main in BANK4

    None.

Critical Paths under _main in BANK5

    None.

Critical Paths under _main in BANK6

    None.

Critical Paths under _main in BANK7

    None.

Critical Paths under _main in BANK8

    None.

Critical Paths under _main in BANK9

    None.

Critical Paths under _main in BANK10

    None.

Critical Paths under _main in BANK11

    None.

Critical Paths under _main in BANK12

    None.

Critical Paths under _main in BANK13

    None.

Critical Paths under _main in BANK14

    None.

Critical Paths under _main in BANK15

    None.

Critical Paths under _main in BANK16

    None.

Critical Paths under _main in BANK17

    None.

Critical Paths under _main in BANK18

    None.

Critical Paths under _main in BANK19

    None.

Critical Paths under _main in BANK20

    None.

Critical Paths under _main in BANK21

    None.

Critical Paths under _main in BANK22

    None.

Critical Paths under _main in BANK23

    None.

Critical Paths under _main in BANK24

    None.

Critical Paths under _main in BANK25

    None.

Call Graph Tables:

 ---------------------------------------------------------------------------------
 (Depth) Function   	        Calls       Base Space   Used Autos Params    Refs
 ---------------------------------------------------------------------------------
 (0) _main                                               139   139      0    3174
                                              6 BANK0     71    71      0
                                              0 BANK1     68    68      0
                         _ClearArray
                        _DefineError
                        _EraseRowMem
                        _ReadFromMem
                  _SYSTEM_Initialize
                      _UART_byteRead
                     _UART_dataWrite
                    _UART_preamFound
                         _WriteToMem
 ---------------------------------------------------------------------------------
 (1) _WriteToMem                                           4     3      1     610
                                             12 COMMON     2     1      1
                                              0 BANK0      2     2      0
                        _FLASH_Write
 ---------------------------------------------------------------------------------
 (2) _FLASH_Write                                         13    13      0     390
                                              0 COMMON    12    12      0
 ---------------------------------------------------------------------------------
 (1) _UART_preamFound                                      2     2      0      24
                                              0 COMMON     2     2      0
                        _EUSART_Read
                 _EUSART_is_rx_ready
 ---------------------------------------------------------------------------------
 (2) _EUSART_is_rx_ready                                   0     0      0       0
 ---------------------------------------------------------------------------------
 (1) _UART_dataWrite                                       4     3      1     252
                                              1 COMMON     4     3      1
                       _EUSART_Write
                  _EUSART_is_tx_done
                 _EUSART_is_tx_ready
 ---------------------------------------------------------------------------------
 (2) _EUSART_is_tx_ready                                   1     1      0      24
                                              0 COMMON     1     1      0
 ---------------------------------------------------------------------------------
 (2) _EUSART_is_tx_done                                    0     0      0       0
 ---------------------------------------------------------------------------------
 (2) _EUSART_Write                                         1     1      0      22
                                              0 COMMON     1     1      0
 ---------------------------------------------------------------------------------
 (1) _UART_byteRead                                        0     0      0       0
                        _EUSART_Read
 ---------------------------------------------------------------------------------
 (2) _EUSART_Read                                          0     0      0       0
 ---------------------------------------------------------------------------------
 (1) _SYSTEM_Initialize                                    0     0      0     294
                  _EUSART_Initialize
              _OSCILLATOR_Initialize
             _PIN_MANAGER_Initialize
                     _SPI_Initialize
                     _WDT_Initialize
 ---------------------------------------------------------------------------------
 (2) _WDT_Initialize                                       0     0      0       0
 ---------------------------------------------------------------------------------
 (2) _SPI_Initialize                                       0     0      0       0
 ---------------------------------------------------------------------------------
 (2) _PIN_MANAGER_Initialize                               0     0      0       0
 ---------------------------------------------------------------------------------
 (2) _OSCILLATOR_Initialize                                0     0      0       0
 ---------------------------------------------------------------------------------
 (2) _EUSART_Initialize                                    0     0      0     294
             _EUSART_SetErrorHandler
      _EUSART_SetFramingErrorHandler
      _EUSART_SetOverrunErrorHandler
 ---------------------------------------------------------------------------------
 (3) _EUSART_SetOverrunErrorHandler                        2     0      2      98
                                              0 COMMON     2     0      2
 ---------------------------------------------------------------------------------
 (3) _EUSART_SetFramingErrorHandler                        2     0      2      98
                                              0 COMMON     2     0      2
 ---------------------------------------------------------------------------------
 (3) _EUSART_SetErrorHandler                               2     0      2      98
                                              0 COMMON     2     0      2
 ---------------------------------------------------------------------------------
 (1) _ReadFromMem                                         14    13      1     801
                                              5 COMMON     8     7      1
                                              0 BANK0      6     6      0
                         _FLASH_Read
 ---------------------------------------------------------------------------------
 (2) _FLASH_Read                                           5     3      2     241
                                              0 COMMON     5     3      2
 ---------------------------------------------------------------------------------
 (1) _EraseRowMem                                          3     2      1     275
                                              2 COMMON     3     2      1
                        _FLASH_Erase
 ---------------------------------------------------------------------------------
 (2) _FLASH_Erase                                          2     2      0     100
                                              0 COMMON     2     2      0
 ---------------------------------------------------------------------------------
 (1) _DefineError                                          2     2      0     110
                                              0 COMMON     2     2      0
 ---------------------------------------------------------------------------------
 (1) _ClearArray                                           3     3      0     223
                                              0 COMMON     3     3      0
 ---------------------------------------------------------------------------------
 Estimated maximum stack depth 3
 ---------------------------------------------------------------------------------

 Call Graph Graphs:

 _main (ROOT)
   _ClearArray
   _DefineError
   _EraseRowMem
     _FLASH_Erase
   _ReadFromMem
     _FLASH_Read
   _SYSTEM_Initialize
     _EUSART_Initialize
       _EUSART_SetErrorHandler
       _EUSART_SetFramingErrorHandler
       _EUSART_SetOverrunErrorHandler
     _OSCILLATOR_Initialize
     _PIN_MANAGER_Initialize
     _SPI_Initialize
     _WDT_Initialize
   _UART_byteRead
     _EUSART_Read
   _UART_dataWrite
     _EUSART_Write
     _EUSART_is_tx_done
     _EUSART_is_tx_ready
   _UART_preamFound
     _EUSART_Read
     _EUSART_is_rx_ready
   _WriteToMem
     _FLASH_Write

 Address spaces:
Name               Size   Autos  Total    Cost      Usage
BIGRAM             7F0      0       0       0        0.0%
EEDATA             100      0       0       0        0.0%
NULL                 0      0       0       0        0.0%
CODE                 0      0       0       0        0.0%
BITCOMMON            E      0       0       1        0.0%
BITSFR0              0      0       0       1        0.0%
SFR0                 0      0       0       1        0.0%
COMMON               E      E       E       2      100.0%
BITSFR1              0      0       0       2        0.0%
SFR1                 0      0       0       2        0.0%
BITSFR2              0      0       0       3        0.0%
SFR2                 0      0       0       3        0.0%
STACK                0      0       0       3        0.0%
BITBANK0            50      0       0       4        0.0%
BITSFR3              0      0       0       4        0.0%
SFR3                 0      0       0       4        0.0%
BANK0               50     4D      50       5      100.0%
BITSFR4              0      0       0       5        0.0%
SFR4                 0      0       0       5        0.0%
BITBANK1            50      0       0       6        0.0%
BITSFR5              0      0       0       6        0.0%
SFR5                 0      0       0       6        0.0%
BANK1               50     44      48       7       90.0%
BITSFR6              0      0       0       7        0.0%
SFR6                 0      0       0       7        0.0%
BITBANK2            50      0       0       8        0.0%
BITSFR7              0      0       0       8        0.0%
SFR7                 0      0       0       8        0.0%
BANK2               50      0       0       9        0.0%
BITSFR8              0      0       0       9        0.0%
SFR8                 0      0       0       9        0.0%
BITBANK3            50      0       0      10        0.0%
BITSFR9              0      0       0      10        0.0%
SFR9                 0      0       0      10        0.0%
BANK3               50      0       0      11        0.0%
BITSFR10             0      0       0      11        0.0%
SFR10                0      0       0      11        0.0%
BITBANK4            50      0       0      12        0.0%
BITSFR11             0      0       0      12        0.0%
SFR11                0      0       0      12        0.0%
BANK4               50      0       0      13        0.0%
BITSFR12             0      0       0      13        0.0%
SFR12                0      0       0      13        0.0%
BITSFR13             0      0       0      14        0.0%
SFR13                0      0       0      14        0.0%
ABS                  0      0      A6      14        0.0%
BITBANK5            50      0       0      15        0.0%
BITSFR14             0      0       0      15        0.0%
SFR14                0      0       0      15        0.0%
BANK5               50      0       0      16        0.0%
BITSFR15             0      0       0      16        0.0%
SFR15                0      0       0      16        0.0%
BITBANK6            50      0       0      17        0.0%
BITSFR16             0      0       0      17        0.0%
SFR16                0      0       0      17        0.0%
BANK6               50      0       0      18        0.0%
BITSFR17             0      0       0      18        0.0%
SFR17                0      0       0      18        0.0%
BITBANK7            50      0       0      19        0.0%
BITSFR18             0      0       0      19        0.0%
SFR18                0      0       0      19        0.0%
BANK7               50      0       0      20        0.0%
BITSFR19             0      0       0      20        0.0%
SFR19                0      0       0      20        0.0%
BITBANK8            50      0       0      21        0.0%
BITSFR20             0      0       0      21        0.0%
SFR20                0      0       0      21        0.0%
BANK8               50      0       0      22        0.0%
BITSFR21             0      0       0      22        0.0%
SFR21                0      0       0      22        0.0%
BITBANK9            50      0       0      23        0.0%
BITSFR22             0      0       0      23        0.0%
SFR22                0      0       0      23        0.0%
BANK9               50      0       0      24        0.0%
BITSFR23             0      0       0      24        0.0%
SFR23                0      0       0      24        0.0%
BITBANK10           50      0       0      25        0.0%
BITSFR24             0      0       0      25        0.0%
SFR24                0      0       0      25        0.0%
BANK10              50      0       0      26        0.0%
BITSFR25             0      0       0      26        0.0%
SFR25                0      0       0      26        0.0%
BITBANK11           50      0       0      27        0.0%
BITSFR26             0      0       0      27        0.0%
SFR26                0      0       0      27        0.0%
BITSFR27             0      0       0      28        0.0%
SFR27                0      0       0      28        0.0%
DATA                 0      0      A6      28        0.0%
BANK11              50      0       0      29        0.0%
BITSFR28             0      0       0      29        0.0%
SFR28                0      0       0      29        0.0%
BITBANK12           50      0       0      30        0.0%
BITSFR29             0      0       0      30        0.0%
SFR29                0      0       0      30        0.0%
BANK12              50      0       0      31        0.0%
BITSFR30             0      0       0      31        0.0%
SFR30                0      0       0      31        0.0%
BITBANK13           50      0       0      32        0.0%
BITSFR31             0      0       0      32        0.0%
SFR31                0      0       0      32        0.0%
BANK13              50      0       0      33        0.0%
BITBANK14           50      0       0      34        0.0%
BANK14              50      0       0      35        0.0%
BITBANK15           50      0       0      36        0.0%
BANK15              50      0       0      37        0.0%
BITBANK16           50      0       0      38        0.0%
BANK16              50      0       0      39        0.0%
BITBANK17           50      0       0      40        0.0%
BANK17              50      0       0      41        0.0%
BITBANK18           50      0       0      42        0.0%
BANK18              50      0       0      43        0.0%
BITBANK19           50      0       0      44        0.0%
BANK19              50      0       0      45        0.0%
BITBANK20           50      0       0      46        0.0%
BANK20              50      0       0      47        0.0%
BITBANK21           50      0       0      48        0.0%
BANK21              50      0       0      49        0.0%
BITBANK22           50      0       0      50        0.0%
BANK22              50      0       0      51        0.0%
BITBANK23           50      0       0      52        0.0%
BANK23              50      0       0      53        0.0%
BITBANK24           50      0       0      54        0.0%
BANK24              50      0       0      55        0.0%
BITBANK25           20      0       0      56        0.0%
BANK25              20      0       0      57        0.0%


Microchip Technology PIC Macro Assembler V2.20 build 20200408173844 
Symbol Table                                                                                   Thu Sep  3 10:35:14 2020

                               _SPI_Initialize 0486                                  ??_EraseRowMem 0073  
                                           l21 0491                            ReadFromMem@def_addr 0020  
                                          l104 0576                                            l112 0461  
                                          l121 0492                                            l131 0485  
                                          l115 045C                                            l125 04A0  
                                          l109 04AF                                            l143 046D  
                                          l128 047D                                            l146 0473  
                                          l402 06E3                                            l332 04FA  
                                          l172 04BF                                            l404 06FA  
                                          l308 07E5                                            l149 0467  
                                          l405 0744                                            l326 04E5  
                                          l175 047B                                            l407 0726  
                                          l343 0531                                            l329 04D0  
                                          l257 060E                                            l178 0454  
                                          l339 06A1                                            l363 05D1  
                                          l371 0512                                            l291 0755  
                                          l293 075E                                            l366 0458  
                                          l294 0760                                            l295 0776  
                                          l394 0553                                            l399 05A1  
                                          u320 04A7                                            u400 0726  
                                          u321 04A6                                            u401 0725  
                                          u330 04AC                                            u410 0742  
                                          u331 04AB                                            u411 0741  
                                          u420 04E5                                            u340 0497  
                                          u500 05D1                                            u421 04E4  
                                          u341 0496                                            u501 05D0  
                                          u350 049D                                            u430 0503  
                                          u510 075E                                            u351 049C  
                                          u431 0502                                            u511 075D  
                                          u360 0482                                            u440 050F  
                                          u520 076F                                            u361 0481  
                                          u441 050E                                            u521 076E  
                                          u370 0588                                            u450 063B  
                                          u530 0774                                            u371 0587  
                                          u451 063A                                            u531 0773  
                                          u460 0691                                            u380 06D7  
                                          u540 0791                                            u461 0690  
                                          u381 06D6                                            u541 0790  
                                          u390 06F8                                            u470 0522  
                                          u550 07DC                                            u391 06F7  
                                          u471 0521                                            u551 07DB  
                                          u480 05AB                                            u560 07E1  
                                          u481 05AA                                            u561 07E0  
                                          u490 05B7                                            u491 05B6  
                                          u577 06EF                                            u587 0732  
                                          u597 05AC                 ?_EUSART_SetFramingErrorHandler 0070  
                                          wreg 0009                                   ?_EUSART_Read 0070  
                                         l1601 05DB                                           l1611 05E6  
                                         l1603 05DD                                           l1541 046E  
                                         l1621 0605                                           l1613 05E8  
                                         l1605 05DF                                           l1701 06A8  
                                         l1543 0462                                           l1551 0554  
                                         l1631 0474                                           l1623 0607  
                                         l1615 05EA                                           l1607 05E1  
                                         l1711 06CC                                           l1703 06C5  
                                         l1801 04DF                                           l1641 0533  
                                         l1553 055F                                           l1633 0477  
                                         l1625 0609                                           l1617 05EC  
                                         l1609 05E3                                           l1545 0486  
                                         l1561 04A1                                           l1721 06E9  
                                         l1713 06CD                                           l1705 06C8  
                                         l1651 0545                                           l1643 0537  
                                         l1539 0468                                           l1555 0566  
                                         l1635 0478                                           l1627 060B  
                                         l1619 05F4                                           l1547 048D  
                                         l1563 04A2                                           l1811 050F  
                                         l1803 04FB                                           l1723 06EA  
                                         l1715 06D7                                           l1707 06CA  
                                         l1661 054C                                           l1653 0547  
                                         l1645 0538                                           l1557 056D  
                                         l1637 0479                                           l1629 060D  
                                         l1549 048F                                           l1581 0492  
                                         l1565 04A7                                           l1901 05BB  
                                         l1573 045D                                           l1805 04FB  
                                         l1741 06FF                                           l1733 06FB  
                                         l1725 06EB                                           l1717 06D8  
                                         l1709 06CB                                           l1663 054E  
                                         l1655 0549                                           l1647 053E  
                                         l1671 0588                                           l1831 0647  
                                         l1823 0611                                           l1559 0574  
                                         l1639 0451                                           l1583 0497  
                                         l1567 04AC                                           l1903 05BD  
                                         l1807 0503                                           l1815 0511  
                                         l1751 0715                                           l1743 0701  
                                         l1727 06F3                                           l1719 06E5  
                                         l1911 0748                                           l1657 054A  
                                         l1649 0543                                           l1681 0592  
                                         l1673 058A                                           l1833 064F  
                                         l1825 0614                                           l1585 0498  
                                         l1593 047D                                           l1577 0459  
                                         l1569 04AE                                           l1905 05C7  
                                         l1809 0509                                           l1761 0720  
                                         l1753 0716                                           l1745 0709  
                                         l1729 06F8                                           l1921 0750  
                                         l1913 0748                                           l1659 054B  
                                         l1691 0597                                           l1683 0593  
                                         l1675 058C                                           l1667 0577  
                                         l1851 0683                                           l1835 0657  
                                         l1827 0631                                           l1587 049D  
                                         l1819 0455                                           l1595 0482  
                                         l1907 05CB                                           l1771 0736  
                                         l1755 0717                                           l1747 0711  
                                         l1739 06FC                                           l1763 0728  
                                         l1931 0769                                           l1923 0752  
                                         l1915 0748                                           l1693 059C  
                                         l1685 0594                                           l1677 058F  
                                         l1669 057B                                           l1861 06A0  
                                         l1853 0687                                           l1845 0661  
                                         l1837 065B                                           l1829 063B  
                                         l1597 05D2                                           l1589 049F  
                                         l1773 0738                                           l1765 072C  
                                         l1757 0718                                           l1749 0713  
                                         l1941 0789                                           l1933 076F  
                                         l1925 0754                                           l1917 0748  
                                         l1909 0745                                           l1791 04D2  
                                         l1871 04F9                                           l1687 0595  
                                         l1679 0590                                           l1855 068B  
                                         l1847 066D                                           l1839 0660  
                                         l1599 05D8                                           l1775 0739  
                                         l1767 072D                                           l1759 071C  
                                         l1943 0792                                           l1951 07C2  
                                         l1935 0774                                           l1927 0756  
                                         l1919 074C                                           l1865 04E7  
                                         l1689 0596                                           l1849 0678  
                                         l1857 0691                                           l1785 0743  
                                         l1777 073E                                           l1769 072E  
                                         l1697 06A3                                           l1881 0530  
                                         l1961 07EE                                           l1945 079F  
                                         l1953 07D7                                           l1937 077A  
                                         l1929 0761                                           l1867 04EB  
                                         l1859 0699                                           l1891 05A3  
                                         l1699 06A7                                           l1875 0515  
                                         l1963 07F2                                           l1955 07DC  
                                         l1947 07AC                                           l1939 0785  
                                         l1797 04D4                                           l1885 04C1  
                                         l1869 04F2                                           l1789 04B0  
                                         l1893 05A3                                           l1877 051D  
                                         l1965 07F6                                           l1957 07E1  
                                         l1949 07B9                                           l1799 04DB  
                                         l1887 04CF                                           l1895 05AB  
                                         l1879 0522                                           l1959 07EE  
                                         l1991 07CC                                           l1897 05AF  
                                         l1899 05B7                                           _LATA 010C  
                                         _LATB 010D                                           _LATC 010E  
                                         _LATD 010F                                           _LATE 0110  
                                         _WPUA 020C                                           _WPUB 020D  
                                         _WPUC 020E                                           _WPUD 020F  
                                         _WPUE 0210                                           _main 0745  
                                         fsr1h 0007                                           indf1 0001  
                                         fsr1l 0006                                           btemp 007E  
                                   _ClearArray 04D1                                           start 0002  
                       __end_of_SPI_Initialize 0492                                  ??_ReadFromMem 0076  
                        EraseRowMem@recv_frame 0074                            __size_of_FLASH_Read 002B  
                              UART_dataWrite@i 0074                                  ?_EUSART_Write 0070  
               __size_of_OSCILLATOR_Initialize 0008                  __end_of_OSCILLATOR_Initialize 047C  
                        EraseRowMem@send_frame 0072                                          ?_main 0070  
                          __end_of_EraseRowMem 04FB                                          _TRISA 008C  
                                        _TRISB 008D                                          _TRISC 008E  
                                        _TRISD 008F                                          _TRISE 0090  
                                  _DefineError 04C0                                 _WDT_Initialize 0451  
                                        main@i 006C                                          status 0003  
                                        wtemp0 007E                                ?_SPI_Initialize 0070  
                              __initialization 07FB                                   __end_of_main 07FB  
                              _UART_preamFound 04FB                           __size_of_FLASH_Erase 0022  
                               ??_EUSART_Write 0070                           __size_of_FLASH_Write 00A3  
                                       ??_main 0026                            __end_of_ReadFromMem 06A2  
                       __end_of_WDT_Initialize 0455              _EUSART_DefaultFramingErrorHandler 0000  
                   _EUSART_OverrunErrorHandler 00E6                                         _EEADRH 0192  
                                       _EEADRL 0191                                         _EEDATH 0194  
                                       _EEDATL 0193                                         _EECON1 0195  
                                       _EECON2 0196                                         _ANSELA 018C  
                                       _ANSELB 018D                                         _ANSELC 018E  
                                       _ANSELD 018F                                         _ANSELE 0190  
                   __end_of_EUSART_is_rx_ready 0462                                         _BORCON 0116  
                                       _RC1REG 0199                                         _RC1STA 019D  
                                       _ODCONA 028C                                         _ODCONB 028D  
                                       _ODCONC 028E                                         _ODCOND 028F  
                                       _ODCONE 0290                                         _INLVLA 038C  
                                       _INLVLB 038D                                         _INLVLC 038E  
                                       _INLVLD 038F                                         _INLVLE 0390  
                   __end_of_EUSART_is_tx_ready 04B0                                         _OSCCON 0099  
                                       _TX1REG 019A                                         _WDTCON 0097  
                                       _TX1STA 019E                                    ?_ClearArray 0070  
                        ReadFromMem@recv_frame 0022                               WriteToMem@result 0021  
                                  _EraseRowMem 04E6                          ReadFromMem@send_frame 0075  
                                 ReadFromMem@i 0025                                ?_WDT_Initialize 0070  
                                 ??_FLASH_Read 0072                                 FLASH_Read@addr 0070  
                         __size_of_EUSART_Read 000F                              _SYSTEM_Initialize 04B0  
                      __end_of__initialization 07FD                             ?_SYSTEM_Initialize 0070  
                      __end_of_UART_preamFound 0513                                 __pcstackCOMMON 0070  
                                  _ReadFromMem 060F                            ??_SYSTEM_Initialize 0072  
                                   _WriteToMem 0513                             __end_of_FLASH_Read 05A2  
                         WriteToMem@recv_frame 0020                           FLASH_Write@writeAddr 0078  
                          __size_of_ClearArray 0015                                 _OPTION_REGbits 0095  
                         WriteToMem@send_frame 007C                          __end_of_UART_byteRead 0459  
                      __size_of_UART_dataWrite 0030                ??_EUSART_SetOverrunErrorHandler 0072  
                    __end_of_SYSTEM_Initialize 04C0                                     __pbssBANK0 006F  
                         __end_of_EUSART_Write 0486                                     __pmaintext 0745  
                                      _APFCON1 011D                                        _APFCON2 011C  
                                 ?_DefineError 0070                                        _SP1BRGH 019C  
                                      _SP1BRGL 019B                                        _OSCSTAT 009A  
                                      _OSCTUNE 0098                                        _SSP1ADD 0212  
                                      _SLRCONA 030C                                        _SLRCONB 030D  
                                      _SLRCONC 030E                                        _SLRCOND 030F  
                                      _SLRCONE 0310                                        _SSP1BUF 0211  
                     ??_EUSART_SetErrorHandler 0072                               ??_SPI_Initialize 0070  
                             ?_UART_preamFound 0070                                 main@recv_frame 00A0  
                                  ?_WriteToMem 007C                                        __ptext1 0513  
                                      __ptext2 06A2                                        __ptext3 04FB  
                                      __ptext4 045D                                        __ptext5 05A2  
                                      __ptext6 04A1                                        __ptext7 0459  
                                      __ptext8 047C                                        __ptext9 0455  
                       UART_dataWrite@data_ptr 0073                                 main@send_frame 0028  
                        _OSCILLATOR_Initialize 0474                       ??_PIN_MANAGER_Initialize 0070  
                   __size_of_SYSTEM_Initialize 0010                           end_of_initialization 07FD  
        __end_of_EUSART_SetOverrunErrorHandler 0474         __size_of_EUSART_SetOverrunErrorHandler 0006  
                _EUSART_SetOverrunErrorHandler 046E                                   ??_ClearArray 0070  
                            _EUSART_Initialize 0554                                  ??_FLASH_Erase 0070  
                           ?_EUSART_Initialize 0070                             _EUSART_is_rx_ready 045D  
                                ??_FLASH_Write 0070                             _EUSART_is_tx_ready 04A1  
                                 ?_EraseRowMem 0072                            ??_EUSART_Initialize 0072  
                             ??_WDT_Initialize 0070                            ?_EUSART_is_rx_ready 0070  
                            _spi_configuration 0800                            ?_EUSART_is_tx_ready 0070  
                           __end_of_ClearArray 04E6                                 _UART_dataWrite 05A2  
                                    _TRISCbits 008E                          __size_of_EUSART_Write 000A  
                             ReadFromMem@dbyte 0023                __size_of_EUSART_SetErrorHandler 0006  
                          __size_of_WriteToMem 001F                      __end_of_EUSART_Initialize 0577  
                         ??_EUSART_is_rx_ready 0070                           ??_EUSART_is_tx_ready 0070  
                            FLASH_Write@buffer 007B                                   ?_ReadFromMem 0075  
                         FLASH_Erase@INR_state 0070                      __end_of_spi_configuration 0804  
                   _EUSART_DefaultErrorHandler 0000                                   _EUSART_Write 047C  
                          __end_of_FLASH_Erase 0554                         ?_OSCILLATOR_Initialize 0070  
                          __end_of_FLASH_Write 0745                         __end_of_UART_dataWrite 05D2  
                          start_initialization 07FB                          main@processing_status 006B  
              __size_of_PIN_MANAGER_Initialize 003D                           __size_of_DefineError 0011  
                                ??_EUSART_Read 0070                         _EUSART_is_tx_ready$283 0070  
                           UART_dataWrite@size 0071                 ?_EUSART_SetOverrunErrorHandler 0070  
                   _EUSART_FramingErrorHandler 006D                         _EUSART_SetErrorHandler 0462  
                              ClearArray@array 0071                                ?_UART_dataWrite 0071  
                                    ___latbits 0003                                  __pcstackBANK0 0020  
                                __pcstackBANK1 00A0                            FLASH_Read@INR_state 0074  
                   __size_of_EUSART_Initialize 0023                            __end_of_EUSART_Read 04A1  
                                    __pnvBANK0 006D                                      __pnvBANK1 00E4  
                       _PIN_MANAGER_Initialize 05D2                                    _FLASH_Erase 0532  
                       __size_of_UART_byteRead 0004                                   ??_WriteToMem 007D  
                                  _FLASH_Write 06A2                           __size_of_EraseRowMem 0015  
                                     _BAUD1CON 019F                             __end_of_WriteToMem 0532  
       EUSART_SetErrorHandler@interruptHandler 0070                                       _LATEbits 0110  
                            _eusartRxLastError 006F                                       _PIR1bits 0011  
              ??_EUSART_SetFramingErrorHandler 0072                              _EUSART_is_tx_done 0459  
                                     _SSP1CON1 0215                                       _SSP1CON2 0216  
            _EUSART_DefaultOverrunErrorHandler 0000                                       _SSP1STAT 0214  
                           ?_EUSART_is_tx_done 0070                       __size_of_UART_preamFound 0018  
                         __size_of_ReadFromMem 0093                            ??_EUSART_is_tx_done 0070  
                          UART_preamFound@byte 0071                                  _UART_byteRead 0455  
                                  _EUSART_Read 0492                                    ClearArray@i 0072  
                                   _EECON1bits 0195                      __end_of_EUSART_is_tx_done 045D  
                      __size_of_SPI_Initialize 000C                        ??_OSCILLATOR_Initialize 0070  
                          _EUSART_ErrorHandler 00E4                                   FLASH_Write@i 007A  
                               ?_UART_byteRead 0070                                     _FLASH_Read 0577  
                                     __ptext10 0492                                       __ptext11 04B0  
                                     __ptext20 060F                                       __ptext12 0451  
                                     __ptext21 0577                                       __ptext13 0486  
                                     __ptext22 04E6                                       __ptext14 05D2  
                                     __ptext23 0532                                       __ptext15 0474  
                                     __ptext24 04C0                                       __ptext16 0554  
                                     __ptext25 04D1                                       __ptext17 046E  
                                     __ptext18 0468                                       __ptext19 0462  
                                 _SSP1CON1bits 0215                              FLASH_Erase@buffer 0071  
                  __size_of_EUSART_is_rx_ready 0005                                  __size_of_main 00B6  
                  __size_of_EUSART_is_tx_ready 000F                        ?_EUSART_SetErrorHandler 0070  
                                   _RC1STAbits 019D  EUSART_SetOverrunErrorHandler@interruptHandler 0070  
                             ??_UART_dataWrite 0072          __end_of_EUSART_SetFramingErrorHandler 046E  
       __size_of_EUSART_SetFramingErrorHandler 0006                  _EUSART_SetFramingErrorHandler 0468  
                                ??_DefineError 0070                                     _INTCONbits 000B  
                            ??_UART_preamFound 0070                        __size_of_WDT_Initialize 0004  
                        DefineError@send_frame 0071                        ?_PIN_MANAGER_Initialize 0070  
               __end_of_EUSART_SetErrorHandler 0468                     __size_of_EUSART_is_tx_done 0004  
                                 ?_FLASH_Erase 0070                                   ?_FLASH_Write 0070  
EUSART_SetFramingErrorHandler@interruptHandler 0070                                  __pstringtext1 0800  
                              ??_UART_byteRead 0070                                    ?_FLASH_Read 0070  
                                   _TX1STAbits 019E                            __end_of_DefineError 04D1  
                           EUSART_Write@txData 0070                 __end_of_PIN_MANAGER_Initialize 060F  
                         FLASH_Write@INR_state 0077  
