

Microchip MPLAB XC8 Assembler V2.20 build 20200408173844 
                                                                                               Tue Sep 15 23:33:53 2020

Microchip MPLAB XC8 C Compiler v2.20 (Free license) build 20200408173844 Og1 
     1                           	processor	16F1789
     2                           	pagewidth 120
     3                           	opt	flic
     4                           	psect	stringtext1,global,class=STRCODE,delta=2,noexec
     5                           	psect	nvBANK1,global,class=BANK1,space=1,delta=1,noexec
     6                           	psect	cinit,global,class=CODE,merge=1,delta=2
     7                           	psect	bssBANK0,global,class=BANK0,space=1,delta=1,noexec
     8                           	psect	bssBANK2,global,class=BANK2,space=1,delta=1,noexec
     9                           	psect	cstackBANK2,global,class=BANK2,space=1,delta=1,noexec
    10                           	psect	cstackBANK1,global,class=BANK1,space=1,delta=1,noexec
    11                           	psect	cstackCOMMON,global,class=COMMON,space=1,delta=1,noexec
    12                           	psect	cstackBANK0,global,class=BANK0,space=1,delta=1,noexec
    13                           	psect	maintext,global,class=CODE,merge=1,split=1,delta=2
    14                           	psect	text1,local,class=CODE,merge=1,delta=2
    15                           	psect	text2,local,class=CODE,merge=1,delta=2
    16                           	psect	text3,local,class=CODE,merge=1,delta=2
    17                           	psect	text4,local,class=CODE,merge=1,delta=2
    18                           	psect	text5,local,class=CODE,merge=1,delta=2
    19                           	psect	text6,local,class=CODE,merge=1,delta=2
    20                           	psect	text7,local,class=CODE,merge=1,delta=2
    21                           	psect	text8,local,class=CODE,merge=1,delta=2
    22                           	psect	text9,local,class=CODE,merge=1,delta=2
    23                           	psect	text10,local,class=CODE,merge=1,delta=2
    24                           	psect	text11,local,class=CODE,merge=1,delta=2
    25                           	psect	text12,local,class=CODE,merge=1,delta=2
    26                           	psect	text13,local,class=CODE,merge=1,delta=2
    27                           	psect	text14,local,class=CODE,merge=1,delta=2
    28                           	psect	text15,local,class=CODE,merge=1,delta=2
    29                           	psect	text16,local,class=CODE,merge=1,delta=2
    30                           	psect	text17,local,class=CODE,merge=1,delta=2
    31                           	psect	text18,local,class=CODE,merge=1,delta=2
    32                           	psect	text19,local,class=CODE,merge=1,delta=2
    33                           	psect	text20,local,class=CODE,merge=1,delta=2
    34                           	psect	text21,local,class=CODE,merge=1,delta=2
    35                           	psect	text22,local,class=CODE,merge=1,delta=2
    36                           	psect	text23,local,class=CODE,merge=1,delta=2
    37                           	psect	text24,local,class=CODE,merge=1,delta=2
    38                           	psect	text25,local,class=CODE,merge=1,delta=2
    39                           	psect	text26,local,class=CODE,merge=1,delta=2
    40                           	psect	text27,local,class=CODE,merge=1,delta=2
    41                           	psect	text28,local,class=CODE,merge=1,delta=2
    42                           	psect	text29,local,class=CODE,merge=1,delta=2
    43                           	psect	text30,local,class=CODE,merge=1,delta=2
    44                           	psect	text31,local,class=CODE,merge=1,delta=2
    45                           	psect	text32,local,class=CODE,merge=1,delta=2
    46                           	psect	text33,local,class=CODE,merge=1,delta=2
    47                           	psect	text34,local,class=CODE,merge=1,delta=2
    48                           	psect	text35,local,class=CODE,merge=1,delta=2
    49                           	psect	config,global,abs,ovrld,class=CONFIG,space=4,delta=2,noexec
    50                           	dabs	1,0x7E,2
    51  0000                     
    52                           ; Version 2.20
    53                           ; Generated 12/02/2020 GMT
    54                           ; 
    55                           ; Copyright © 2020, Microchip Technology Inc. and its subsidiaries ("Microchip")
    56                           ; All rights reserved.
    57                           ; 
    58                           ; This software is developed by Microchip Technology Inc. and its subsidiaries ("Microch
      +                          ip").
    59                           ; 
    60                           ; Redistribution and use in source and binary forms, with or without modification, are
    61                           ; permitted provided that the following conditions are met:
    62                           ; 
    63                           ;     1. Redistributions of source code must retain the above copyright notice, this lis
      +                          t of
    64                           ;        conditions and the following disclaimer.
    65                           ; 
    66                           ;     2. Redistributions in binary form must reproduce the above copyright notice, this 
      +                          list
    67                           ;        of conditions and the following disclaimer in the documentation and/or other
    68                           ;        materials provided with the distribution.
    69                           ; 
    70                           ;     3. Microchip's name may not be used to endorse or promote products derived from th
      +                          is
    71                           ;        software without specific prior written permission.
    72                           ; 
    73                           ; THIS SOFTWARE IS PROVIDED BY MICROCHIP "AS IS" AND ANY EXPRESS OR IMPLIED WARRANTIES,
    74                           ; INCLUDING, BUT NOT LIMITED TO, THE IMPLIED WARRANTIES OF MERCHANTABILITY AND FITNESS F
      +                          OR
    75                           ; PURPOSE ARE DISCLAIMED.  IN NO EVENT SHALL MICROCHIP BE LIABLE FOR ANY DIRECT, INDIREC
      +                          T,
    76                           ; INCIDENTAL, SPECIAL, EXEMPLARY, OR CONSEQUENTIAL DAMAGES (INCLUDING BUT NOT LIMITED TO
    77                           ; PROCUREMENT OF SUBSTITUTE GOODS OR SERVICES; LOSS OF USE, DATA OR PROFITS; OR BUSINESS
    78                           ; INTERRUPTION) HOWSOEVER CAUSED AND ON ANY THEORY OF LIABILITY, WHETHER IN CONTRACT, ST
      +                          RICT
    79                           ; LIABILITY, OR TORT (INCLUDING NEGLIGENCE OR OTHERWISE) ARISING IN ANY WAY OUT OF THE U
      +                          SE OF
    80                           ; THIS SOFTWARE, EVEN IF ADVISED OF THE POSSIBILITY OF SUCH DAMAGE.
    81                           ; 
    82                           ; 
    83                           ; Code-generator required, PIC16F1789 Definitions
    84                           ; 
    85                           ; SFR Addresses
    86  0000                     	;# 
    87  0001                     	;# 
    88  0002                     	;# 
    89  0003                     	;# 
    90  0004                     	;# 
    91  0005                     	;# 
    92  0006                     	;# 
    93  0007                     	;# 
    94  0008                     	;# 
    95  0009                     	;# 
    96  000A                     	;# 
    97  000B                     	;# 
    98  000C                     	;# 
    99  000D                     	;# 
   100  000E                     	;# 
   101  000F                     	;# 
   102  0010                     	;# 
   103  0011                     	;# 
   104  0012                     	;# 
   105  0013                     	;# 
   106  0014                     	;# 
   107  0015                     	;# 
   108  0016                     	;# 
   109  0016                     	;# 
   110  0017                     	;# 
   111  0018                     	;# 
   112  0019                     	;# 
   113  001A                     	;# 
   114  001B                     	;# 
   115  001C                     	;# 
   116  008C                     	;# 
   117  008D                     	;# 
   118  008E                     	;# 
   119  008F                     	;# 
   120  0090                     	;# 
   121  0091                     	;# 
   122  0092                     	;# 
   123  0093                     	;# 
   124  0094                     	;# 
   125  0095                     	;# 
   126  0096                     	;# 
   127  0097                     	;# 
   128  0098                     	;# 
   129  0099                     	;# 
   130  009A                     	;# 
   131  009B                     	;# 
   132  009B                     	;# 
   133  009C                     	;# 
   134  009D                     	;# 
   135  009E                     	;# 
   136  009F                     	;# 
   137  010C                     	;# 
   138  010D                     	;# 
   139  010E                     	;# 
   140  010F                     	;# 
   141  0110                     	;# 
   142  0111                     	;# 
   143  0112                     	;# 
   144  0113                     	;# 
   145  0114                     	;# 
   146  0115                     	;# 
   147  0116                     	;# 
   148  0117                     	;# 
   149  0118                     	;# 
   150  0119                     	;# 
   151  011A                     	;# 
   152  011B                     	;# 
   153  011C                     	;# 
   154  011D                     	;# 
   155  011D                     	;# 
   156  011D                     	;# 
   157  011E                     	;# 
   158  011F                     	;# 
   159  018C                     	;# 
   160  018D                     	;# 
   161  018E                     	;# 
   162  018F                     	;# 
   163  0190                     	;# 
   164  0191                     	;# 
   165  0191                     	;# 
   166  0192                     	;# 
   167  0193                     	;# 
   168  0193                     	;# 
   169  0193                     	;# 
   170  0194                     	;# 
   171  0195                     	;# 
   172  0196                     	;# 
   173  0197                     	;# 
   174  0199                     	;# 
   175  0199                     	;# 
   176  0199                     	;# 
   177  019A                     	;# 
   178  019A                     	;# 
   179  019A                     	;# 
   180  019B                     	;# 
   181  019B                     	;# 
   182  019B                     	;# 
   183  019B                     	;# 
   184  019B                     	;# 
   185  019C                     	;# 
   186  019C                     	;# 
   187  019C                     	;# 
   188  019D                     	;# 
   189  019D                     	;# 
   190  019D                     	;# 
   191  019E                     	;# 
   192  019E                     	;# 
   193  019E                     	;# 
   194  019F                     	;# 
   195  019F                     	;# 
   196  019F                     	;# 
   197  019F                     	;# 
   198  019F                     	;# 
   199  020C                     	;# 
   200  020D                     	;# 
   201  020E                     	;# 
   202  020F                     	;# 
   203  0210                     	;# 
   204  0211                     	;# 
   205  0211                     	;# 
   206  0212                     	;# 
   207  0212                     	;# 
   208  0213                     	;# 
   209  0213                     	;# 
   210  0214                     	;# 
   211  0214                     	;# 
   212  0215                     	;# 
   213  0215                     	;# 
   214  0215                     	;# 
   215  0215                     	;# 
   216  0216                     	;# 
   217  0216                     	;# 
   218  0217                     	;# 
   219  0217                     	;# 
   220  028C                     	;# 
   221  028D                     	;# 
   222  028E                     	;# 
   223  028F                     	;# 
   224  0290                     	;# 
   225  0291                     	;# 
   226  0291                     	;# 
   227  0292                     	;# 
   228  0293                     	;# 
   229  0298                     	;# 
   230  0298                     	;# 
   231  0299                     	;# 
   232  029A                     	;# 
   233  030C                     	;# 
   234  030D                     	;# 
   235  030E                     	;# 
   236  030F                     	;# 
   237  0310                     	;# 
   238  0311                     	;# 
   239  0311                     	;# 
   240  0312                     	;# 
   241  0313                     	;# 
   242  038C                     	;# 
   243  038D                     	;# 
   244  038E                     	;# 
   245  038F                     	;# 
   246  0390                     	;# 
   247  0391                     	;# 
   248  0392                     	;# 
   249  0393                     	;# 
   250  0394                     	;# 
   251  0395                     	;# 
   252  0396                     	;# 
   253  0397                     	;# 
   254  0398                     	;# 
   255  0399                     	;# 
   256  039D                     	;# 
   257  039E                     	;# 
   258  039F                     	;# 
   259  0511                     	;# 
   260  0513                     	;# 
   261  0515                     	;# 
   262  051A                     	;# 
   263  0591                     	;# 
   264  0592                     	;# 
   265  0592                     	;# 
   266  0593                     	;# 
   267  0594                     	;# 
   268  0594                     	;# 
   269  0595                     	;# 
   270  0596                     	;# 
   271  0596                     	;# 
   272  0E91                     	;# 
   273  0E92                     	;# 
   274  0E93                     	;# 
   275  0E94                     	;# 
   276  0E95                     	;# 
   277  0E96                     	;# 
   278  0E97                     	;# 
   279  0E98                     	;# 
   280  0E99                     	;# 
   281  0E9A                     	;# 
   282  0E9B                     	;# 
   283  0E9C                     	;# 
   284  0E9D                     	;# 
   285  0E9E                     	;# 
   286  0E9F                     	;# 
   287  0EA0                     	;# 
   288  0EA1                     	;# 
   289  0EA1                     	;# 
   290  0EA2                     	;# 
   291  0EA3                     	;# 
   292  0EA3                     	;# 
   293  0EA4                     	;# 
   294  0EA5                     	;# 
   295  0EA5                     	;# 
   296  0EA6                     	;# 
   297  0EA7                     	;# 
   298  0EA7                     	;# 
   299  0EA8                     	;# 
   300  0EA9                     	;# 
   301  0EAA                     	;# 
   302  0EAB                     	;# 
   303  0EAC                     	;# 
   304  0EAD                     	;# 
   305  0EAE                     	;# 
   306  0EAF                     	;# 
   307  0EB1                     	;# 
   308  0EB2                     	;# 
   309  0EB3                     	;# 
   310  0EB4                     	;# 
   311  0EB5                     	;# 
   312  0EB6                     	;# 
   313  0EB7                     	;# 
   314  0EB8                     	;# 
   315  0EB9                     	;# 
   316  0EBA                     	;# 
   317  0EBB                     	;# 
   318  0EBC                     	;# 
   319  0EBD                     	;# 
   320  0EBE                     	;# 
   321  0EBF                     	;# 
   322  0EC0                     	;# 
   323  0EC1                     	;# 
   324  0EC1                     	;# 
   325  0EC2                     	;# 
   326  0EC3                     	;# 
   327  0EC3                     	;# 
   328  0EC4                     	;# 
   329  0EC5                     	;# 
   330  0EC5                     	;# 
   331  0EC6                     	;# 
   332  0EC7                     	;# 
   333  0EC7                     	;# 
   334  0EC8                     	;# 
   335  0EC9                     	;# 
   336  0ECA                     	;# 
   337  0ECB                     	;# 
   338  0ECC                     	;# 
   339  0ECD                     	;# 
   340  0ECE                     	;# 
   341  0ECF                     	;# 
   342  0ED1                     	;# 
   343  0ED2                     	;# 
   344  0ED3                     	;# 
   345  0ED4                     	;# 
   346  0ED5                     	;# 
   347  0ED6                     	;# 
   348  0ED7                     	;# 
   349  0ED8                     	;# 
   350  0ED9                     	;# 
   351  0EDA                     	;# 
   352  0EDB                     	;# 
   353  0EDC                     	;# 
   354  0EDD                     	;# 
   355  0EDE                     	;# 
   356  0EDF                     	;# 
   357  0EE0                     	;# 
   358  0EE1                     	;# 
   359  0EE1                     	;# 
   360  0EE2                     	;# 
   361  0EE3                     	;# 
   362  0EE3                     	;# 
   363  0EE4                     	;# 
   364  0EE5                     	;# 
   365  0EE5                     	;# 
   366  0EE6                     	;# 
   367  0EE7                     	;# 
   368  0EE7                     	;# 
   369  0EE8                     	;# 
   370  0EE9                     	;# 
   371  0EEA                     	;# 
   372  0EEB                     	;# 
   373  0EEC                     	;# 
   374  0EED                     	;# 
   375  0EEE                     	;# 
   376  0EEF                     	;# 
   377  0F11                     	;# 
   378  0F12                     	;# 
   379  0F13                     	;# 
   380  0F14                     	;# 
   381  0F15                     	;# 
   382  0F16                     	;# 
   383  0F17                     	;# 
   384  0F18                     	;# 
   385  0F19                     	;# 
   386  0F1A                     	;# 
   387  0F1B                     	;# 
   388  0F1C                     	;# 
   389  0F1D                     	;# 
   390  0F1E                     	;# 
   391  0F1F                     	;# 
   392  0F20                     	;# 
   393  0F21                     	;# 
   394  0F21                     	;# 
   395  0F22                     	;# 
   396  0F23                     	;# 
   397  0F23                     	;# 
   398  0F24                     	;# 
   399  0F25                     	;# 
   400  0F25                     	;# 
   401  0F26                     	;# 
   402  0F27                     	;# 
   403  0F27                     	;# 
   404  0F28                     	;# 
   405  0F29                     	;# 
   406  0F2A                     	;# 
   407  0F2B                     	;# 
   408  0F2C                     	;# 
   409  0F2D                     	;# 
   410  0F2E                     	;# 
   411  0F2F                     	;# 
   412  0FE4                     	;# 
   413  0FE5                     	;# 
   414  0FE6                     	;# 
   415  0FE7                     	;# 
   416  0FE8                     	;# 
   417  0FE9                     	;# 
   418  0FEA                     	;# 
   419  0FEB                     	;# 
   420  0FED                     	;# 
   421  0FEE                     	;# 
   422  0FEF                     	;# 
   423  0000                     	;# 
   424  0001                     	;# 
   425  0002                     	;# 
   426  0003                     	;# 
   427  0004                     	;# 
   428  0005                     	;# 
   429  0006                     	;# 
   430  0007                     	;# 
   431  0008                     	;# 
   432  0009                     	;# 
   433  000A                     	;# 
   434  000B                     	;# 
   435  000C                     	;# 
   436  000D                     	;# 
   437  000E                     	;# 
   438  000F                     	;# 
   439  0010                     	;# 
   440  0011                     	;# 
   441  0012                     	;# 
   442  0013                     	;# 
   443  0014                     	;# 
   444  0015                     	;# 
   445  0016                     	;# 
   446  0016                     	;# 
   447  0017                     	;# 
   448  0018                     	;# 
   449  0019                     	;# 
   450  001A                     	;# 
   451  001B                     	;# 
   452  001C                     	;# 
   453  008C                     	;# 
   454  008D                     	;# 
   455  008E                     	;# 
   456  008F                     	;# 
   457  0090                     	;# 
   458  0091                     	;# 
   459  0092                     	;# 
   460  0093                     	;# 
   461  0094                     	;# 
   462  0095                     	;# 
   463  0096                     	;# 
   464  0097                     	;# 
   465  0098                     	;# 
   466  0099                     	;# 
   467  009A                     	;# 
   468  009B                     	;# 
   469  009B                     	;# 
   470  009C                     	;# 
   471  009D                     	;# 
   472  009E                     	;# 
   473  009F                     	;# 
   474  010C                     	;# 
   475  010D                     	;# 
   476  010E                     	;# 
   477  010F                     	;# 
   478  0110                     	;# 
   479  0111                     	;# 
   480  0112                     	;# 
   481  0113                     	;# 
   482  0114                     	;# 
   483  0115                     	;# 
   484  0116                     	;# 
   485  0117                     	;# 
   486  0118                     	;# 
   487  0119                     	;# 
   488  011A                     	;# 
   489  011B                     	;# 
   490  011C                     	;# 
   491  011D                     	;# 
   492  011D                     	;# 
   493  011D                     	;# 
   494  011E                     	;# 
   495  011F                     	;# 
   496  018C                     	;# 
   497  018D                     	;# 
   498  018E                     	;# 
   499  018F                     	;# 
   500  0190                     	;# 
   501  0191                     	;# 
   502  0191                     	;# 
   503  0192                     	;# 
   504  0193                     	;# 
   505  0193                     	;# 
   506  0193                     	;# 
   507  0194                     	;# 
   508  0195                     	;# 
   509  0196                     	;# 
   510  0197                     	;# 
   511  0199                     	;# 
   512  0199                     	;# 
   513  0199                     	;# 
   514  019A                     	;# 
   515  019A                     	;# 
   516  019A                     	;# 
   517  019B                     	;# 
   518  019B                     	;# 
   519  019B                     	;# 
   520  019B                     	;# 
   521  019B                     	;# 
   522  019C                     	;# 
   523  019C                     	;# 
   524  019C                     	;# 
   525  019D                     	;# 
   526  019D                     	;# 
   527  019D                     	;# 
   528  019E                     	;# 
   529  019E                     	;# 
   530  019E                     	;# 
   531  019F                     	;# 
   532  019F                     	;# 
   533  019F                     	;# 
   534  019F                     	;# 
   535  019F                     	;# 
   536  020C                     	;# 
   537  020D                     	;# 
   538  020E                     	;# 
   539  020F                     	;# 
   540  0210                     	;# 
   541  0211                     	;# 
   542  0211                     	;# 
   543  0212                     	;# 
   544  0212                     	;# 
   545  0213                     	;# 
   546  0213                     	;# 
   547  0214                     	;# 
   548  0214                     	;# 
   549  0215                     	;# 
   550  0215                     	;# 
   551  0215                     	;# 
   552  0215                     	;# 
   553  0216                     	;# 
   554  0216                     	;# 
   555  0217                     	;# 
   556  0217                     	;# 
   557  028C                     	;# 
   558  028D                     	;# 
   559  028E                     	;# 
   560  028F                     	;# 
   561  0290                     	;# 
   562  0291                     	;# 
   563  0291                     	;# 
   564  0292                     	;# 
   565  0293                     	;# 
   566  0298                     	;# 
   567  0298                     	;# 
   568  0299                     	;# 
   569  029A                     	;# 
   570  030C                     	;# 
   571  030D                     	;# 
   572  030E                     	;# 
   573  030F                     	;# 
   574  0310                     	;# 
   575  0311                     	;# 
   576  0311                     	;# 
   577  0312                     	;# 
   578  0313                     	;# 
   579  038C                     	;# 
   580  038D                     	;# 
   581  038E                     	;# 
   582  038F                     	;# 
   583  0390                     	;# 
   584  0391                     	;# 
   585  0392                     	;# 
   586  0393                     	;# 
   587  0394                     	;# 
   588  0395                     	;# 
   589  0396                     	;# 
   590  0397                     	;# 
   591  0398                     	;# 
   592  0399                     	;# 
   593  039D                     	;# 
   594  039E                     	;# 
   595  039F                     	;# 
   596  0511                     	;# 
   597  0513                     	;# 
   598  0515                     	;# 
   599  051A                     	;# 
   600  0591                     	;# 
   601  0592                     	;# 
   602  0592                     	;# 
   603  0593                     	;# 
   604  0594                     	;# 
   605  0594                     	;# 
   606  0595                     	;# 
   607  0596                     	;# 
   608  0596                     	;# 
   609  0E91                     	;# 
   610  0E92                     	;# 
   611  0E93                     	;# 
   612  0E94                     	;# 
   613  0E95                     	;# 
   614  0E96                     	;# 
   615  0E97                     	;# 
   616  0E98                     	;# 
   617  0E99                     	;# 
   618  0E9A                     	;# 
   619  0E9B                     	;# 
   620  0E9C                     	;# 
   621  0E9D                     	;# 
   622  0E9E                     	;# 
   623  0E9F                     	;# 
   624  0EA0                     	;# 
   625  0EA1                     	;# 
   626  0EA1                     	;# 
   627  0EA2                     	;# 
   628  0EA3                     	;# 
   629  0EA3                     	;# 
   630  0EA4                     	;# 
   631  0EA5                     	;# 
   632  0EA5                     	;# 
   633  0EA6                     	;# 
   634  0EA7                     	;# 
   635  0EA7                     	;# 
   636  0EA8                     	;# 
   637  0EA9                     	;# 
   638  0EAA                     	;# 
   639  0EAB                     	;# 
   640  0EAC                     	;# 
   641  0EAD                     	;# 
   642  0EAE                     	;# 
   643  0EAF                     	;# 
   644  0EB1                     	;# 
   645  0EB2                     	;# 
   646  0EB3                     	;# 
   647  0EB4                     	;# 
   648  0EB5                     	;# 
   649  0EB6                     	;# 
   650  0EB7                     	;# 
   651  0EB8                     	;# 
   652  0EB9                     	;# 
   653  0EBA                     	;# 
   654  0EBB                     	;# 
   655  0EBC                     	;# 
   656  0EBD                     	;# 
   657  0EBE                     	;# 
   658  0EBF                     	;# 
   659  0EC0                     	;# 
   660  0EC1                     	;# 
   661  0EC1                     	;# 
   662  0EC2                     	;# 
   663  0EC3                     	;# 
   664  0EC3                     	;# 
   665  0EC4                     	;# 
   666  0EC5                     	;# 
   667  0EC5                     	;# 
   668  0EC6                     	;# 
   669  0EC7                     	;# 
   670  0EC7                     	;# 
   671  0EC8                     	;# 
   672  0EC9                     	;# 
   673  0ECA                     	;# 
   674  0ECB                     	;# 
   675  0ECC                     	;# 
   676  0ECD                     	;# 
   677  0ECE                     	;# 
   678  0ECF                     	;# 
   679  0ED1                     	;# 
   680  0ED2                     	;# 
   681  0ED3                     	;# 
   682  0ED4                     	;# 
   683  0ED5                     	;# 
   684  0ED6                     	;# 
   685  0ED7                     	;# 
   686  0ED8                     	;# 
   687  0ED9                     	;# 
   688  0EDA                     	;# 
   689  0EDB                     	;# 
   690  0EDC                     	;# 
   691  0EDD                     	;# 
   692  0EDE                     	;# 
   693  0EDF                     	;# 
   694  0EE0                     	;# 
   695  0EE1                     	;# 
   696  0EE1                     	;# 
   697  0EE2                     	;# 
   698  0EE3                     	;# 
   699  0EE3                     	;# 
   700  0EE4                     	;# 
   701  0EE5                     	;# 
   702  0EE5                     	;# 
   703  0EE6                     	;# 
   704  0EE7                     	;# 
   705  0EE7                     	;# 
   706  0EE8                     	;# 
   707  0EE9                     	;# 
   708  0EEA                     	;# 
   709  0EEB                     	;# 
   710  0EEC                     	;# 
   711  0EED                     	;# 
   712  0EEE                     	;# 
   713  0EEF                     	;# 
   714  0F11                     	;# 
   715  0F12                     	;# 
   716  0F13                     	;# 
   717  0F14                     	;# 
   718  0F15                     	;# 
   719  0F16                     	;# 
   720  0F17                     	;# 
   721  0F18                     	;# 
   722  0F19                     	;# 
   723  0F1A                     	;# 
   724  0F1B                     	;# 
   725  0F1C                     	;# 
   726  0F1D                     	;# 
   727  0F1E                     	;# 
   728  0F1F                     	;# 
   729  0F20                     	;# 
   730  0F21                     	;# 
   731  0F21                     	;# 
   732  0F22                     	;# 
   733  0F23                     	;# 
   734  0F23                     	;# 
   735  0F24                     	;# 
   736  0F25                     	;# 
   737  0F25                     	;# 
   738  0F26                     	;# 
   739  0F27                     	;# 
   740  0F27                     	;# 
   741  0F28                     	;# 
   742  0F29                     	;# 
   743  0F2A                     	;# 
   744  0F2B                     	;# 
   745  0F2C                     	;# 
   746  0F2D                     	;# 
   747  0F2E                     	;# 
   748  0F2F                     	;# 
   749  0FE4                     	;# 
   750  0FE5                     	;# 
   751  0FE6                     	;# 
   752  0FE7                     	;# 
   753  0FE8                     	;# 
   754  0FE9                     	;# 
   755  0FEA                     	;# 
   756  0FEB                     	;# 
   757  0FED                     	;# 
   758  0FEE                     	;# 
   759  0FEF                     	;# 
   760  0000                     	;# 
   761  0001                     	;# 
   762  0002                     	;# 
   763  0003                     	;# 
   764  0004                     	;# 
   765  0005                     	;# 
   766  0006                     	;# 
   767  0007                     	;# 
   768  0008                     	;# 
   769  0009                     	;# 
   770  000A                     	;# 
   771  000B                     	;# 
   772  000C                     	;# 
   773  000D                     	;# 
   774  000E                     	;# 
   775  000F                     	;# 
   776  0010                     	;# 
   777  0011                     	;# 
   778  0012                     	;# 
   779  0013                     	;# 
   780  0014                     	;# 
   781  0015                     	;# 
   782  0016                     	;# 
   783  0016                     	;# 
   784  0017                     	;# 
   785  0018                     	;# 
   786  0019                     	;# 
   787  001A                     	;# 
   788  001B                     	;# 
   789  001C                     	;# 
   790  008C                     	;# 
   791  008D                     	;# 
   792  008E                     	;# 
   793  008F                     	;# 
   794  0090                     	;# 
   795  0091                     	;# 
   796  0092                     	;# 
   797  0093                     	;# 
   798  0094                     	;# 
   799  0095                     	;# 
   800  0096                     	;# 
   801  0097                     	;# 
   802  0098                     	;# 
   803  0099                     	;# 
   804  009A                     	;# 
   805  009B                     	;# 
   806  009B                     	;# 
   807  009C                     	;# 
   808  009D                     	;# 
   809  009E                     	;# 
   810  009F                     	;# 
   811  010C                     	;# 
   812  010D                     	;# 
   813  010E                     	;# 
   814  010F                     	;# 
   815  0110                     	;# 
   816  0111                     	;# 
   817  0112                     	;# 
   818  0113                     	;# 
   819  0114                     	;# 
   820  0115                     	;# 
   821  0116                     	;# 
   822  0117                     	;# 
   823  0118                     	;# 
   824  0119                     	;# 
   825  011A                     	;# 
   826  011B                     	;# 
   827  011C                     	;# 
   828  011D                     	;# 
   829  011D                     	;# 
   830  011D                     	;# 
   831  011E                     	;# 
   832  011F                     	;# 
   833  018C                     	;# 
   834  018D                     	;# 
   835  018E                     	;# 
   836  018F                     	;# 
   837  0190                     	;# 
   838  0191                     	;# 
   839  0191                     	;# 
   840  0192                     	;# 
   841  0193                     	;# 
   842  0193                     	;# 
   843  0193                     	;# 
   844  0194                     	;# 
   845  0195                     	;# 
   846  0196                     	;# 
   847  0197                     	;# 
   848  0199                     	;# 
   849  0199                     	;# 
   850  0199                     	;# 
   851  019A                     	;# 
   852  019A                     	;# 
   853  019A                     	;# 
   854  019B                     	;# 
   855  019B                     	;# 
   856  019B                     	;# 
   857  019B                     	;# 
   858  019B                     	;# 
   859  019C                     	;# 
   860  019C                     	;# 
   861  019C                     	;# 
   862  019D                     	;# 
   863  019D                     	;# 
   864  019D                     	;# 
   865  019E                     	;# 
   866  019E                     	;# 
   867  019E                     	;# 
   868  019F                     	;# 
   869  019F                     	;# 
   870  019F                     	;# 
   871  019F                     	;# 
   872  019F                     	;# 
   873  020C                     	;# 
   874  020D                     	;# 
   875  020E                     	;# 
   876  020F                     	;# 
   877  0210                     	;# 
   878  0211                     	;# 
   879  0211                     	;# 
   880  0212                     	;# 
   881  0212                     	;# 
   882  0213                     	;# 
   883  0213                     	;# 
   884  0214                     	;# 
   885  0214                     	;# 
   886  0215                     	;# 
   887  0215                     	;# 
   888  0215                     	;# 
   889  0215                     	;# 
   890  0216                     	;# 
   891  0216                     	;# 
   892  0217                     	;# 
   893  0217                     	;# 
   894  028C                     	;# 
   895  028D                     	;# 
   896  028E                     	;# 
   897  028F                     	;# 
   898  0290                     	;# 
   899  0291                     	;# 
   900  0291                     	;# 
   901  0292                     	;# 
   902  0293                     	;# 
   903  0298                     	;# 
   904  0298                     	;# 
   905  0299                     	;# 
   906  029A                     	;# 
   907  030C                     	;# 
   908  030D                     	;# 
   909  030E                     	;# 
   910  030F                     	;# 
   911  0310                     	;# 
   912  0311                     	;# 
   913  0311                     	;# 
   914  0312                     	;# 
   915  0313                     	;# 
   916  038C                     	;# 
   917  038D                     	;# 
   918  038E                     	;# 
   919  038F                     	;# 
   920  0390                     	;# 
   921  0391                     	;# 
   922  0392                     	;# 
   923  0393                     	;# 
   924  0394                     	;# 
   925  0395                     	;# 
   926  0396                     	;# 
   927  0397                     	;# 
   928  0398                     	;# 
   929  0399                     	;# 
   930  039D                     	;# 
   931  039E                     	;# 
   932  039F                     	;# 
   933  0511                     	;# 
   934  0513                     	;# 
   935  0515                     	;# 
   936  051A                     	;# 
   937  0591                     	;# 
   938  0592                     	;# 
   939  0592                     	;# 
   940  0593                     	;# 
   941  0594                     	;# 
   942  0594                     	;# 
   943  0595                     	;# 
   944  0596                     	;# 
   945  0596                     	;# 
   946  0E91                     	;# 
   947  0E92                     	;# 
   948  0E93                     	;# 
   949  0E94                     	;# 
   950  0E95                     	;# 
   951  0E96                     	;# 
   952  0E97                     	;# 
   953  0E98                     	;# 
   954  0E99                     	;# 
   955  0E9A                     	;# 
   956  0E9B                     	;# 
   957  0E9C                     	;# 
   958  0E9D                     	;# 
   959  0E9E                     	;# 
   960  0E9F                     	;# 
   961  0EA0                     	;# 
   962  0EA1                     	;# 
   963  0EA1                     	;# 
   964  0EA2                     	;# 
   965  0EA3                     	;# 
   966  0EA3                     	;# 
   967  0EA4                     	;# 
   968  0EA5                     	;# 
   969  0EA5                     	;# 
   970  0EA6                     	;# 
   971  0EA7                     	;# 
   972  0EA7                     	;# 
   973  0EA8                     	;# 
   974  0EA9                     	;# 
   975  0EAA                     	;# 
   976  0EAB                     	;# 
   977  0EAC                     	;# 
   978  0EAD                     	;# 
   979  0EAE                     	;# 
   980  0EAF                     	;# 
   981  0EB1                     	;# 
   982  0EB2                     	;# 
   983  0EB3                     	;# 
   984  0EB4                     	;# 
   985  0EB5                     	;# 
   986  0EB6                     	;# 
   987  0EB7                     	;# 
   988  0EB8                     	;# 
   989  0EB9                     	;# 
   990  0EBA                     	;# 
   991  0EBB                     	;# 
   992  0EBC                     	;# 
   993  0EBD                     	;# 
   994  0EBE                     	;# 
   995  0EBF                     	;# 
   996  0EC0                     	;# 
   997  0EC1                     	;# 
   998  0EC1                     	;# 
   999  0EC2                     	;# 
  1000  0EC3                     	;# 
  1001  0EC3                     	;# 
  1002  0EC4                     	;# 
  1003  0EC5                     	;# 
  1004  0EC5                     	;# 
  1005  0EC6                     	;# 
  1006  0EC7                     	;# 
  1007  0EC7                     	;# 
  1008  0EC8                     	;# 
  1009  0EC9                     	;# 
  1010  0ECA                     	;# 
  1011  0ECB                     	;# 
  1012  0ECC                     	;# 
  1013  0ECD                     	;# 
  1014  0ECE                     	;# 
  1015  0ECF                     	;# 
  1016  0ED1                     	;# 
  1017  0ED2                     	;# 
  1018  0ED3                     	;# 
  1019  0ED4                     	;# 
  1020  0ED5                     	;# 
  1021  0ED6                     	;# 
  1022  0ED7                     	;# 
  1023  0ED8                     	;# 
  1024  0ED9                     	;# 
  1025  0EDA                     	;# 
  1026  0EDB                     	;# 
  1027  0EDC                     	;# 
  1028  0EDD                     	;# 
  1029  0EDE                     	;# 
  1030  0EDF                     	;# 
  1031  0EE0                     	;# 
  1032  0EE1                     	;# 
  1033  0EE1                     	;# 
  1034  0EE2                     	;# 
  1035  0EE3                     	;# 
  1036  0EE3                     	;# 
  1037  0EE4                     	;# 
  1038  0EE5                     	;# 
  1039  0EE5                     	;# 
  1040  0EE6                     	;# 
  1041  0EE7                     	;# 
  1042  0EE7                     	;# 
  1043  0EE8                     	;# 
  1044  0EE9                     	;# 
  1045  0EEA                     	;# 
  1046  0EEB                     	;# 
  1047  0EEC                     	;# 
  1048  0EED                     	;# 
  1049  0EEE                     	;# 
  1050  0EEF                     	;# 
  1051  0F11                     	;# 
  1052  0F12                     	;# 
  1053  0F13                     	;# 
  1054  0F14                     	;# 
  1055  0F15                     	;# 
  1056  0F16                     	;# 
  1057  0F17                     	;# 
  1058  0F18                     	;# 
  1059  0F19                     	;# 
  1060  0F1A                     	;# 
  1061  0F1B                     	;# 
  1062  0F1C                     	;# 
  1063  0F1D                     	;# 
  1064  0F1E                     	;# 
  1065  0F1F                     	;# 
  1066  0F20                     	;# 
  1067  0F21                     	;# 
  1068  0F21                     	;# 
  1069  0F22                     	;# 
  1070  0F23                     	;# 
  1071  0F23                     	;# 
  1072  0F24                     	;# 
  1073  0F25                     	;# 
  1074  0F25                     	;# 
  1075  0F26                     	;# 
  1076  0F27                     	;# 
  1077  0F27                     	;# 
  1078  0F28                     	;# 
  1079  0F29                     	;# 
  1080  0F2A                     	;# 
  1081  0F2B                     	;# 
  1082  0F2C                     	;# 
  1083  0F2D                     	;# 
  1084  0F2E                     	;# 
  1085  0F2F                     	;# 
  1086  0FE4                     	;# 
  1087  0FE5                     	;# 
  1088  0FE6                     	;# 
  1089  0FE7                     	;# 
  1090  0FE8                     	;# 
  1091  0FE9                     	;# 
  1092  0FEA                     	;# 
  1093  0FEB                     	;# 
  1094  0FED                     	;# 
  1095  0FEE                     	;# 
  1096  0FEF                     	;# 
  1097  0000                     	;# 
  1098  0001                     	;# 
  1099  0002                     	;# 
  1100  0003                     	;# 
  1101  0004                     	;# 
  1102  0005                     	;# 
  1103  0006                     	;# 
  1104  0007                     	;# 
  1105  0008                     	;# 
  1106  0009                     	;# 
  1107  000A                     	;# 
  1108  000B                     	;# 
  1109  000C                     	;# 
  1110  000D                     	;# 
  1111  000E                     	;# 
  1112  000F                     	;# 
  1113  0010                     	;# 
  1114  0011                     	;# 
  1115  0012                     	;# 
  1116  0013                     	;# 
  1117  0014                     	;# 
  1118  0015                     	;# 
  1119  0016                     	;# 
  1120  0016                     	;# 
  1121  0017                     	;# 
  1122  0018                     	;# 
  1123  0019                     	;# 
  1124  001A                     	;# 
  1125  001B                     	;# 
  1126  001C                     	;# 
  1127  008C                     	;# 
  1128  008D                     	;# 
  1129  008E                     	;# 
  1130  008F                     	;# 
  1131  0090                     	;# 
  1132  0091                     	;# 
  1133  0092                     	;# 
  1134  0093                     	;# 
  1135  0094                     	;# 
  1136  0095                     	;# 
  1137  0096                     	;# 
  1138  0097                     	;# 
  1139  0098                     	;# 
  1140  0099                     	;# 
  1141  009A                     	;# 
  1142  009B                     	;# 
  1143  009B                     	;# 
  1144  009C                     	;# 
  1145  009D                     	;# 
  1146  009E                     	;# 
  1147  009F                     	;# 
  1148  010C                     	;# 
  1149  010D                     	;# 
  1150  010E                     	;# 
  1151  010F                     	;# 
  1152  0110                     	;# 
  1153  0111                     	;# 
  1154  0112                     	;# 
  1155  0113                     	;# 
  1156  0114                     	;# 
  1157  0115                     	;# 
  1158  0116                     	;# 
  1159  0117                     	;# 
  1160  0118                     	;# 
  1161  0119                     	;# 
  1162  011A                     	;# 
  1163  011B                     	;# 
  1164  011C                     	;# 
  1165  011D                     	;# 
  1166  011D                     	;# 
  1167  011D                     	;# 
  1168  011E                     	;# 
  1169  011F                     	;# 
  1170  018C                     	;# 
  1171  018D                     	;# 
  1172  018E                     	;# 
  1173  018F                     	;# 
  1174  0190                     	;# 
  1175  0191                     	;# 
  1176  0191                     	;# 
  1177  0192                     	;# 
  1178  0193                     	;# 
  1179  0193                     	;# 
  1180  0193                     	;# 
  1181  0194                     	;# 
  1182  0195                     	;# 
  1183  0196                     	;# 
  1184  0197                     	;# 
  1185  0199                     	;# 
  1186  0199                     	;# 
  1187  0199                     	;# 
  1188  019A                     	;# 
  1189  019A                     	;# 
  1190  019A                     	;# 
  1191  019B                     	;# 
  1192  019B                     	;# 
  1193  019B                     	;# 
  1194  019B                     	;# 
  1195  019B                     	;# 
  1196  019C                     	;# 
  1197  019C                     	;# 
  1198  019C                     	;# 
  1199  019D                     	;# 
  1200  019D                     	;# 
  1201  019D                     	;# 
  1202  019E                     	;# 
  1203  019E                     	;# 
  1204  019E                     	;# 
  1205  019F                     	;# 
  1206  019F                     	;# 
  1207  019F                     	;# 
  1208  019F                     	;# 
  1209  019F                     	;# 
  1210  020C                     	;# 
  1211  020D                     	;# 
  1212  020E                     	;# 
  1213  020F                     	;# 
  1214  0210                     	;# 
  1215  0211                     	;# 
  1216  0211                     	;# 
  1217  0212                     	;# 
  1218  0212                     	;# 
  1219  0213                     	;# 
  1220  0213                     	;# 
  1221  0214                     	;# 
  1222  0214                     	;# 
  1223  0215                     	;# 
  1224  0215                     	;# 
  1225  0215                     	;# 
  1226  0215                     	;# 
  1227  0216                     	;# 
  1228  0216                     	;# 
  1229  0217                     	;# 
  1230  0217                     	;# 
  1231  028C                     	;# 
  1232  028D                     	;# 
  1233  028E                     	;# 
  1234  028F                     	;# 
  1235  0290                     	;# 
  1236  0291                     	;# 
  1237  0291                     	;# 
  1238  0292                     	;# 
  1239  0293                     	;# 
  1240  0298                     	;# 
  1241  0298                     	;# 
  1242  0299                     	;# 
  1243  029A                     	;# 
  1244  030C                     	;# 
  1245  030D                     	;# 
  1246  030E                     	;# 
  1247  030F                     	;# 
  1248  0310                     	;# 
  1249  0311                     	;# 
  1250  0311                     	;# 
  1251  0312                     	;# 
  1252  0313                     	;# 
  1253  038C                     	;# 
  1254  038D                     	;# 
  1255  038E                     	;# 
  1256  038F                     	;# 
  1257  0390                     	;# 
  1258  0391                     	;# 
  1259  0392                     	;# 
  1260  0393                     	;# 
  1261  0394                     	;# 
  1262  0395                     	;# 
  1263  0396                     	;# 
  1264  0397                     	;# 
  1265  0398                     	;# 
  1266  0399                     	;# 
  1267  039D                     	;# 
  1268  039E                     	;# 
  1269  039F                     	;# 
  1270  0511                     	;# 
  1271  0513                     	;# 
  1272  0515                     	;# 
  1273  051A                     	;# 
  1274  0591                     	;# 
  1275  0592                     	;# 
  1276  0592                     	;# 
  1277  0593                     	;# 
  1278  0594                     	;# 
  1279  0594                     	;# 
  1280  0595                     	;# 
  1281  0596                     	;# 
  1282  0596                     	;# 
  1283  0E91                     	;# 
  1284  0E92                     	;# 
  1285  0E93                     	;# 
  1286  0E94                     	;# 
  1287  0E95                     	;# 
  1288  0E96                     	;# 
  1289  0E97                     	;# 
  1290  0E98                     	;# 
  1291  0E99                     	;# 
  1292  0E9A                     	;# 
  1293  0E9B                     	;# 
  1294  0E9C                     	;# 
  1295  0E9D                     	;# 
  1296  0E9E                     	;# 
  1297  0E9F                     	;# 
  1298  0EA0                     	;# 
  1299  0EA1                     	;# 
  1300  0EA1                     	;# 
  1301  0EA2                     	;# 
  1302  0EA3                     	;# 
  1303  0EA3                     	;# 
  1304  0EA4                     	;# 
  1305  0EA5                     	;# 
  1306  0EA5                     	;# 
  1307  0EA6                     	;# 
  1308  0EA7                     	;# 
  1309  0EA7                     	;# 
  1310  0EA8                     	;# 
  1311  0EA9                     	;# 
  1312  0EAA                     	;# 
  1313  0EAB                     	;# 
  1314  0EAC                     	;# 
  1315  0EAD                     	;# 
  1316  0EAE                     	;# 
  1317  0EAF                     	;# 
  1318  0EB1                     	;# 
  1319  0EB2                     	;# 
  1320  0EB3                     	;# 
  1321  0EB4                     	;# 
  1322  0EB5                     	;# 
  1323  0EB6                     	;# 
  1324  0EB7                     	;# 
  1325  0EB8                     	;# 
  1326  0EB9                     	;# 
  1327  0EBA                     	;# 
  1328  0EBB                     	;# 
  1329  0EBC                     	;# 
  1330  0EBD                     	;# 
  1331  0EBE                     	;# 
  1332  0EBF                     	;# 
  1333  0EC0                     	;# 
  1334  0EC1                     	;# 
  1335  0EC1                     	;# 
  1336  0EC2                     	;# 
  1337  0EC3                     	;# 
  1338  0EC3                     	;# 
  1339  0EC4                     	;# 
  1340  0EC5                     	;# 
  1341  0EC5                     	;# 
  1342  0EC6                     	;# 
  1343  0EC7                     	;# 
  1344  0EC7                     	;# 
  1345  0EC8                     	;# 
  1346  0EC9                     	;# 
  1347  0ECA                     	;# 
  1348  0ECB                     	;# 
  1349  0ECC                     	;# 
  1350  0ECD                     	;# 
  1351  0ECE                     	;# 
  1352  0ECF                     	;# 
  1353  0ED1                     	;# 
  1354  0ED2                     	;# 
  1355  0ED3                     	;# 
  1356  0ED4                     	;# 
  1357  0ED5                     	;# 
  1358  0ED6                     	;# 
  1359  0ED7                     	;# 
  1360  0ED8                     	;# 
  1361  0ED9                     	;# 
  1362  0EDA                     	;# 
  1363  0EDB                     	;# 
  1364  0EDC                     	;# 
  1365  0EDD                     	;# 
  1366  0EDE                     	;# 
  1367  0EDF                     	;# 
  1368  0EE0                     	;# 
  1369  0EE1                     	;# 
  1370  0EE1                     	;# 
  1371  0EE2                     	;# 
  1372  0EE3                     	;# 
  1373  0EE3                     	;# 
  1374  0EE4                     	;# 
  1375  0EE5                     	;# 
  1376  0EE5                     	;# 
  1377  0EE6                     	;# 
  1378  0EE7                     	;# 
  1379  0EE7                     	;# 
  1380  0EE8                     	;# 
  1381  0EE9                     	;# 
  1382  0EEA                     	;# 
  1383  0EEB                     	;# 
  1384  0EEC                     	;# 
  1385  0EED                     	;# 
  1386  0EEE                     	;# 
  1387  0EEF                     	;# 
  1388  0F11                     	;# 
  1389  0F12                     	;# 
  1390  0F13                     	;# 
  1391  0F14                     	;# 
  1392  0F15                     	;# 
  1393  0F16                     	;# 
  1394  0F17                     	;# 
  1395  0F18                     	;# 
  1396  0F19                     	;# 
  1397  0F1A                     	;# 
  1398  0F1B                     	;# 
  1399  0F1C                     	;# 
  1400  0F1D                     	;# 
  1401  0F1E                     	;# 
  1402  0F1F                     	;# 
  1403  0F20                     	;# 
  1404  0F21                     	;# 
  1405  0F21                     	;# 
  1406  0F22                     	;# 
  1407  0F23                     	;# 
  1408  0F23                     	;# 
  1409  0F24                     	;# 
  1410  0F25                     	;# 
  1411  0F25                     	;# 
  1412  0F26                     	;# 
  1413  0F27                     	;# 
  1414  0F27                     	;# 
  1415  0F28                     	;# 
  1416  0F29                     	;# 
  1417  0F2A                     	;# 
  1418  0F2B                     	;# 
  1419  0F2C                     	;# 
  1420  0F2D                     	;# 
  1421  0F2E                     	;# 
  1422  0F2F                     	;# 
  1423  0FE4                     	;# 
  1424  0FE5                     	;# 
  1425  0FE6                     	;# 
  1426  0FE7                     	;# 
  1427  0FE8                     	;# 
  1428  0FE9                     	;# 
  1429  0FEA                     	;# 
  1430  0FEB                     	;# 
  1431  0FED                     	;# 
  1432  0FEE                     	;# 
  1433  0FEF                     	;# 
  1434  0000                     	;# 
  1435  0001                     	;# 
  1436  0002                     	;# 
  1437  0003                     	;# 
  1438  0004                     	;# 
  1439  0005                     	;# 
  1440  0006                     	;# 
  1441  0007                     	;# 
  1442  0008                     	;# 
  1443  0009                     	;# 
  1444  000A                     	;# 
  1445  000B                     	;# 
  1446  000C                     	;# 
  1447  000D                     	;# 
  1448  000E                     	;# 
  1449  000F                     	;# 
  1450  0010                     	;# 
  1451  0011                     	;# 
  1452  0012                     	;# 
  1453  0013                     	;# 
  1454  0014                     	;# 
  1455  0015                     	;# 
  1456  0016                     	;# 
  1457  0016                     	;# 
  1458  0017                     	;# 
  1459  0018                     	;# 
  1460  0019                     	;# 
  1461  001A                     	;# 
  1462  001B                     	;# 
  1463  001C                     	;# 
  1464  008C                     	;# 
  1465  008D                     	;# 
  1466  008E                     	;# 
  1467  008F                     	;# 
  1468  0090                     	;# 
  1469  0091                     	;# 
  1470  0092                     	;# 
  1471  0093                     	;# 
  1472  0094                     	;# 
  1473  0095                     	;# 
  1474  0096                     	;# 
  1475  0097                     	;# 
  1476  0098                     	;# 
  1477  0099                     	;# 
  1478  009A                     	;# 
  1479  009B                     	;# 
  1480  009B                     	;# 
  1481  009C                     	;# 
  1482  009D                     	;# 
  1483  009E                     	;# 
  1484  009F                     	;# 
  1485  010C                     	;# 
  1486  010D                     	;# 
  1487  010E                     	;# 
  1488  010F                     	;# 
  1489  0110                     	;# 
  1490  0111                     	;# 
  1491  0112                     	;# 
  1492  0113                     	;# 
  1493  0114                     	;# 
  1494  0115                     	;# 
  1495  0116                     	;# 
  1496  0117                     	;# 
  1497  0118                     	;# 
  1498  0119                     	;# 
  1499  011A                     	;# 
  1500  011B                     	;# 
  1501  011C                     	;# 
  1502  011D                     	;# 
  1503  011D                     	;# 
  1504  011D                     	;# 
  1505  011E                     	;# 
  1506  011F                     	;# 
  1507  018C                     	;# 
  1508  018D                     	;# 
  1509  018E                     	;# 
  1510  018F                     	;# 
  1511  0190                     	;# 
  1512  0191                     	;# 
  1513  0191                     	;# 
  1514  0192                     	;# 
  1515  0193                     	;# 
  1516  0193                     	;# 
  1517  0193                     	;# 
  1518  0194                     	;# 
  1519  0195                     	;# 
  1520  0196                     	;# 
  1521  0197                     	;# 
  1522  0199                     	;# 
  1523  0199                     	;# 
  1524  0199                     	;# 
  1525  019A                     	;# 
  1526  019A                     	;# 
  1527  019A                     	;# 
  1528  019B                     	;# 
  1529  019B                     	;# 
  1530  019B                     	;# 
  1531  019B                     	;# 
  1532  019B                     	;# 
  1533  019C                     	;# 
  1534  019C                     	;# 
  1535  019C                     	;# 
  1536  019D                     	;# 
  1537  019D                     	;# 
  1538  019D                     	;# 
  1539  019E                     	;# 
  1540  019E                     	;# 
  1541  019E                     	;# 
  1542  019F                     	;# 
  1543  019F                     	;# 
  1544  019F                     	;# 
  1545  019F                     	;# 
  1546  019F                     	;# 
  1547  020C                     	;# 
  1548  020D                     	;# 
  1549  020E                     	;# 
  1550  020F                     	;# 
  1551  0210                     	;# 
  1552  0211                     	;# 
  1553  0211                     	;# 
  1554  0212                     	;# 
  1555  0212                     	;# 
  1556  0213                     	;# 
  1557  0213                     	;# 
  1558  0214                     	;# 
  1559  0214                     	;# 
  1560  0215                     	;# 
  1561  0215                     	;# 
  1562  0215                     	;# 
  1563  0215                     	;# 
  1564  0216                     	;# 
  1565  0216                     	;# 
  1566  0217                     	;# 
  1567  0217                     	;# 
  1568  028C                     	;# 
  1569  028D                     	;# 
  1570  028E                     	;# 
  1571  028F                     	;# 
  1572  0290                     	;# 
  1573  0291                     	;# 
  1574  0291                     	;# 
  1575  0292                     	;# 
  1576  0293                     	;# 
  1577  0298                     	;# 
  1578  0298                     	;# 
  1579  0299                     	;# 
  1580  029A                     	;# 
  1581  030C                     	;# 
  1582  030D                     	;# 
  1583  030E                     	;# 
  1584  030F                     	;# 
  1585  0310                     	;# 
  1586  0311                     	;# 
  1587  0311                     	;# 
  1588  0312                     	;# 
  1589  0313                     	;# 
  1590  038C                     	;# 
  1591  038D                     	;# 
  1592  038E                     	;# 
  1593  038F                     	;# 
  1594  0390                     	;# 
  1595  0391                     	;# 
  1596  0392                     	;# 
  1597  0393                     	;# 
  1598  0394                     	;# 
  1599  0395                     	;# 
  1600  0396                     	;# 
  1601  0397                     	;# 
  1602  0398                     	;# 
  1603  0399                     	;# 
  1604  039D                     	;# 
  1605  039E                     	;# 
  1606  039F                     	;# 
  1607  0511                     	;# 
  1608  0513                     	;# 
  1609  0515                     	;# 
  1610  051A                     	;# 
  1611  0591                     	;# 
  1612  0592                     	;# 
  1613  0592                     	;# 
  1614  0593                     	;# 
  1615  0594                     	;# 
  1616  0594                     	;# 
  1617  0595                     	;# 
  1618  0596                     	;# 
  1619  0596                     	;# 
  1620  0E91                     	;# 
  1621  0E92                     	;# 
  1622  0E93                     	;# 
  1623  0E94                     	;# 
  1624  0E95                     	;# 
  1625  0E96                     	;# 
  1626  0E97                     	;# 
  1627  0E98                     	;# 
  1628  0E99                     	;# 
  1629  0E9A                     	;# 
  1630  0E9B                     	;# 
  1631  0E9C                     	;# 
  1632  0E9D                     	;# 
  1633  0E9E                     	;# 
  1634  0E9F                     	;# 
  1635  0EA0                     	;# 
  1636  0EA1                     	;# 
  1637  0EA1                     	;# 
  1638  0EA2                     	;# 
  1639  0EA3                     	;# 
  1640  0EA3                     	;# 
  1641  0EA4                     	;# 
  1642  0EA5                     	;# 
  1643  0EA5                     	;# 
  1644  0EA6                     	;# 
  1645  0EA7                     	;# 
  1646  0EA7                     	;# 
  1647  0EA8                     	;# 
  1648  0EA9                     	;# 
  1649  0EAA                     	;# 
  1650  0EAB                     	;# 
  1651  0EAC                     	;# 
  1652  0EAD                     	;# 
  1653  0EAE                     	;# 
  1654  0EAF                     	;# 
  1655  0EB1                     	;# 
  1656  0EB2                     	;# 
  1657  0EB3                     	;# 
  1658  0EB4                     	;# 
  1659  0EB5                     	;# 
  1660  0EB6                     	;# 
  1661  0EB7                     	;# 
  1662  0EB8                     	;# 
  1663  0EB9                     	;# 
  1664  0EBA                     	;# 
  1665  0EBB                     	;# 
  1666  0EBC                     	;# 
  1667  0EBD                     	;# 
  1668  0EBE                     	;# 
  1669  0EBF                     	;# 
  1670  0EC0                     	;# 
  1671  0EC1                     	;# 
  1672  0EC1                     	;# 
  1673  0EC2                     	;# 
  1674  0EC3                     	;# 
  1675  0EC3                     	;# 
  1676  0EC4                     	;# 
  1677  0EC5                     	;# 
  1678  0EC5                     	;# 
  1679  0EC6                     	;# 
  1680  0EC7                     	;# 
  1681  0EC7                     	;# 
  1682  0EC8                     	;# 
  1683  0EC9                     	;# 
  1684  0ECA                     	;# 
  1685  0ECB                     	;# 
  1686  0ECC                     	;# 
  1687  0ECD                     	;# 
  1688  0ECE                     	;# 
  1689  0ECF                     	;# 
  1690  0ED1                     	;# 
  1691  0ED2                     	;# 
  1692  0ED3                     	;# 
  1693  0ED4                     	;# 
  1694  0ED5                     	;# 
  1695  0ED6                     	;# 
  1696  0ED7                     	;# 
  1697  0ED8                     	;# 
  1698  0ED9                     	;# 
  1699  0EDA                     	;# 
  1700  0EDB                     	;# 
  1701  0EDC                     	;# 
  1702  0EDD                     	;# 
  1703  0EDE                     	;# 
  1704  0EDF                     	;# 
  1705  0EE0                     	;# 
  1706  0EE1                     	;# 
  1707  0EE1                     	;# 
  1708  0EE2                     	;# 
  1709  0EE3                     	;# 
  1710  0EE3                     	;# 
  1711  0EE4                     	;# 
  1712  0EE5                     	;# 
  1713  0EE5                     	;# 
  1714  0EE6                     	;# 
  1715  0EE7                     	;# 
  1716  0EE7                     	;# 
  1717  0EE8                     	;# 
  1718  0EE9                     	;# 
  1719  0EEA                     	;# 
  1720  0EEB                     	;# 
  1721  0EEC                     	;# 
  1722  0EED                     	;# 
  1723  0EEE                     	;# 
  1724  0EEF                     	;# 
  1725  0F11                     	;# 
  1726  0F12                     	;# 
  1727  0F13                     	;# 
  1728  0F14                     	;# 
  1729  0F15                     	;# 
  1730  0F16                     	;# 
  1731  0F17                     	;# 
  1732  0F18                     	;# 
  1733  0F19                     	;# 
  1734  0F1A                     	;# 
  1735  0F1B                     	;# 
  1736  0F1C                     	;# 
  1737  0F1D                     	;# 
  1738  0F1E                     	;# 
  1739  0F1F                     	;# 
  1740  0F20                     	;# 
  1741  0F21                     	;# 
  1742  0F21                     	;# 
  1743  0F22                     	;# 
  1744  0F23                     	;# 
  1745  0F23                     	;# 
  1746  0F24                     	;# 
  1747  0F25                     	;# 
  1748  0F25                     	;# 
  1749  0F26                     	;# 
  1750  0F27                     	;# 
  1751  0F27                     	;# 
  1752  0F28                     	;# 
  1753  0F29                     	;# 
  1754  0F2A                     	;# 
  1755  0F2B                     	;# 
  1756  0F2C                     	;# 
  1757  0F2D                     	;# 
  1758  0F2E                     	;# 
  1759  0F2F                     	;# 
  1760  0FE4                     	;# 
  1761  0FE5                     	;# 
  1762  0FE6                     	;# 
  1763  0FE7                     	;# 
  1764  0FE8                     	;# 
  1765  0FE9                     	;# 
  1766  0FEA                     	;# 
  1767  0FEB                     	;# 
  1768  0FED                     	;# 
  1769  0FEE                     	;# 
  1770  0FEF                     	;# 
  1771  0000                     	;# 
  1772  0001                     	;# 
  1773  0002                     	;# 
  1774  0003                     	;# 
  1775  0004                     	;# 
  1776  0005                     	;# 
  1777  0006                     	;# 
  1778  0007                     	;# 
  1779  0008                     	;# 
  1780  0009                     	;# 
  1781  000A                     	;# 
  1782  000B                     	;# 
  1783  000C                     	;# 
  1784  000D                     	;# 
  1785  000E                     	;# 
  1786  000F                     	;# 
  1787  0010                     	;# 
  1788  0011                     	;# 
  1789  0012                     	;# 
  1790  0013                     	;# 
  1791  0014                     	;# 
  1792  0015                     	;# 
  1793  0016                     	;# 
  1794  0016                     	;# 
  1795  0017                     	;# 
  1796  0018                     	;# 
  1797  0019                     	;# 
  1798  001A                     	;# 
  1799  001B                     	;# 
  1800  001C                     	;# 
  1801  008C                     	;# 
  1802  008D                     	;# 
  1803  008E                     	;# 
  1804  008F                     	;# 
  1805  0090                     	;# 
  1806  0091                     	;# 
  1807  0092                     	;# 
  1808  0093                     	;# 
  1809  0094                     	;# 
  1810  0095                     	;# 
  1811  0096                     	;# 
  1812  0097                     	;# 
  1813  0098                     	;# 
  1814  0099                     	;# 
  1815  009A                     	;# 
  1816  009B                     	;# 
  1817  009B                     	;# 
  1818  009C                     	;# 
  1819  009D                     	;# 
  1820  009E                     	;# 
  1821  009F                     	;# 
  1822  010C                     	;# 
  1823  010D                     	;# 
  1824  010E                     	;# 
  1825  010F                     	;# 
  1826  0110                     	;# 
  1827  0111                     	;# 
  1828  0112                     	;# 
  1829  0113                     	;# 
  1830  0114                     	;# 
  1831  0115                     	;# 
  1832  0116                     	;# 
  1833  0117                     	;# 
  1834  0118                     	;# 
  1835  0119                     	;# 
  1836  011A                     	;# 
  1837  011B                     	;# 
  1838  011C                     	;# 
  1839  011D                     	;# 
  1840  011D                     	;# 
  1841  011D                     	;# 
  1842  011E                     	;# 
  1843  011F                     	;# 
  1844  018C                     	;# 
  1845  018D                     	;# 
  1846  018E                     	;# 
  1847  018F                     	;# 
  1848  0190                     	;# 
  1849  0191                     	;# 
  1850  0191                     	;# 
  1851  0192                     	;# 
  1852  0193                     	;# 
  1853  0193                     	;# 
  1854  0193                     	;# 
  1855  0194                     	;# 
  1856  0195                     	;# 
  1857  0196                     	;# 
  1858  0197                     	;# 
  1859  0199                     	;# 
  1860  0199                     	;# 
  1861  0199                     	;# 
  1862  019A                     	;# 
  1863  019A                     	;# 
  1864  019A                     	;# 
  1865  019B                     	;# 
  1866  019B                     	;# 
  1867  019B                     	;# 
  1868  019B                     	;# 
  1869  019B                     	;# 
  1870  019C                     	;# 
  1871  019C                     	;# 
  1872  019C                     	;# 
  1873  019D                     	;# 
  1874  019D                     	;# 
  1875  019D                     	;# 
  1876  019E                     	;# 
  1877  019E                     	;# 
  1878  019E                     	;# 
  1879  019F                     	;# 
  1880  019F                     	;# 
  1881  019F                     	;# 
  1882  019F                     	;# 
  1883  019F                     	;# 
  1884  020C                     	;# 
  1885  020D                     	;# 
  1886  020E                     	;# 
  1887  020F                     	;# 
  1888  0210                     	;# 
  1889  0211                     	;# 
  1890  0211                     	;# 
  1891  0212                     	;# 
  1892  0212                     	;# 
  1893  0213                     	;# 
  1894  0213                     	;# 
  1895  0214                     	;# 
  1896  0214                     	;# 
  1897  0215                     	;# 
  1898  0215                     	;# 
  1899  0215                     	;# 
  1900  0215                     	;# 
  1901  0216                     	;# 
  1902  0216                     	;# 
  1903  0217                     	;# 
  1904  0217                     	;# 
  1905  028C                     	;# 
  1906  028D                     	;# 
  1907  028E                     	;# 
  1908  028F                     	;# 
  1909  0290                     	;# 
  1910  0291                     	;# 
  1911  0291                     	;# 
  1912  0292                     	;# 
  1913  0293                     	;# 
  1914  0298                     	;# 
  1915  0298                     	;# 
  1916  0299                     	;# 
  1917  029A                     	;# 
  1918  030C                     	;# 
  1919  030D                     	;# 
  1920  030E                     	;# 
  1921  030F                     	;# 
  1922  0310                     	;# 
  1923  0311                     	;# 
  1924  0311                     	;# 
  1925  0312                     	;# 
  1926  0313                     	;# 
  1927  038C                     	;# 
  1928  038D                     	;# 
  1929  038E                     	;# 
  1930  038F                     	;# 
  1931  0390                     	;# 
  1932  0391                     	;# 
  1933  0392                     	;# 
  1934  0393                     	;# 
  1935  0394                     	;# 
  1936  0395                     	;# 
  1937  0396                     	;# 
  1938  0397                     	;# 
  1939  0398                     	;# 
  1940  0399                     	;# 
  1941  039D                     	;# 
  1942  039E                     	;# 
  1943  039F                     	;# 
  1944  0511                     	;# 
  1945  0513                     	;# 
  1946  0515                     	;# 
  1947  051A                     	;# 
  1948  0591                     	;# 
  1949  0592                     	;# 
  1950  0592                     	;# 
  1951  0593                     	;# 
  1952  0594                     	;# 
  1953  0594                     	;# 
  1954  0595                     	;# 
  1955  0596                     	;# 
  1956  0596                     	;# 
  1957  0E91                     	;# 
  1958  0E92                     	;# 
  1959  0E93                     	;# 
  1960  0E94                     	;# 
  1961  0E95                     	;# 
  1962  0E96                     	;# 
  1963  0E97                     	;# 
  1964  0E98                     	;# 
  1965  0E99                     	;# 
  1966  0E9A                     	;# 
  1967  0E9B                     	;# 
  1968  0E9C                     	;# 
  1969  0E9D                     	;# 
  1970  0E9E                     	;# 
  1971  0E9F                     	;# 
  1972  0EA0                     	;# 
  1973  0EA1                     	;# 
  1974  0EA1                     	;# 
  1975  0EA2                     	;# 
  1976  0EA3                     	;# 
  1977  0EA3                     	;# 
  1978  0EA4                     	;# 
  1979  0EA5                     	;# 
  1980  0EA5                     	;# 
  1981  0EA6                     	;# 
  1982  0EA7                     	;# 
  1983  0EA7                     	;# 
  1984  0EA8                     	;# 
  1985  0EA9                     	;# 
  1986  0EAA                     	;# 
  1987  0EAB                     	;# 
  1988  0EAC                     	;# 
  1989  0EAD                     	;# 
  1990  0EAE                     	;# 
  1991  0EAF                     	;# 
  1992  0EB1                     	;# 
  1993  0EB2                     	;# 
  1994  0EB3                     	;# 
  1995  0EB4                     	;# 
  1996  0EB5                     	;# 
  1997  0EB6                     	;# 
  1998  0EB7                     	;# 
  1999  0EB8                     	;# 
  2000  0EB9                     	;# 
  2001  0EBA                     	;# 
  2002  0EBB                     	;# 
  2003  0EBC                     	;# 
  2004  0EBD                     	;# 
  2005  0EBE                     	;# 
  2006  0EBF                     	;# 
  2007  0EC0                     	;# 
  2008  0EC1                     	;# 
  2009  0EC1                     	;# 
  2010  0EC2                     	;# 
  2011  0EC3                     	;# 
  2012  0EC3                     	;# 
  2013  0EC4                     	;# 
  2014  0EC5                     	;# 
  2015  0EC5                     	;# 
  2016  0EC6                     	;# 
  2017  0EC7                     	;# 
  2018  0EC7                     	;# 
  2019  0EC8                     	;# 
  2020  0EC9                     	;# 
  2021  0ECA                     	;# 
  2022  0ECB                     	;# 
  2023  0ECC                     	;# 
  2024  0ECD                     	;# 
  2025  0ECE                     	;# 
  2026  0ECF                     	;# 
  2027  0ED1                     	;# 
  2028  0ED2                     	;# 
  2029  0ED3                     	;# 
  2030  0ED4                     	;# 
  2031  0ED5                     	;# 
  2032  0ED6                     	;# 
  2033  0ED7                     	;# 
  2034  0ED8                     	;# 
  2035  0ED9                     	;# 
  2036  0EDA                     	;# 
  2037  0EDB                     	;# 
  2038  0EDC                     	;# 
  2039  0EDD                     	;# 
  2040  0EDE                     	;# 
  2041  0EDF                     	;# 
  2042  0EE0                     	;# 
  2043  0EE1                     	;# 
  2044  0EE1                     	;# 
  2045  0EE2                     	;# 
  2046  0EE3                     	;# 
  2047  0EE3                     	;# 
  2048  0EE4                     	;# 
  2049  0EE5                     	;# 
  2050  0EE5                     	;# 
  2051  0EE6                     	;# 
  2052  0EE7                     	;# 
  2053  0EE7                     	;# 
  2054  0EE8                     	;# 
  2055  0EE9                     	;# 
  2056  0EEA                     	;# 
  2057  0EEB                     	;# 
  2058  0EEC                     	;# 
  2059  0EED                     	;# 
  2060  0EEE                     	;# 
  2061  0EEF                     	;# 
  2062  0F11                     	;# 
  2063  0F12                     	;# 
  2064  0F13                     	;# 
  2065  0F14                     	;# 
  2066  0F15                     	;# 
  2067  0F16                     	;# 
  2068  0F17                     	;# 
  2069  0F18                     	;# 
  2070  0F19                     	;# 
  2071  0F1A                     	;# 
  2072  0F1B                     	;# 
  2073  0F1C                     	;# 
  2074  0F1D                     	;# 
  2075  0F1E                     	;# 
  2076  0F1F                     	;# 
  2077  0F20                     	;# 
  2078  0F21                     	;# 
  2079  0F21                     	;# 
  2080  0F22                     	;# 
  2081  0F23                     	;# 
  2082  0F23                     	;# 
  2083  0F24                     	;# 
  2084  0F25                     	;# 
  2085  0F25                     	;# 
  2086  0F26                     	;# 
  2087  0F27                     	;# 
  2088  0F27                     	;# 
  2089  0F28                     	;# 
  2090  0F29                     	;# 
  2091  0F2A                     	;# 
  2092  0F2B                     	;# 
  2093  0F2C                     	;# 
  2094  0F2D                     	;# 
  2095  0F2E                     	;# 
  2096  0F2F                     	;# 
  2097  0FE4                     	;# 
  2098  0FE5                     	;# 
  2099  0FE6                     	;# 
  2100  0FE7                     	;# 
  2101  0FE8                     	;# 
  2102  0FE9                     	;# 
  2103  0FEA                     	;# 
  2104  0FEB                     	;# 
  2105  0FED                     	;# 
  2106  0FEE                     	;# 
  2107  0FEF                     	;# 
  2108  0000                     	;# 
  2109  0001                     	;# 
  2110  0002                     	;# 
  2111  0003                     	;# 
  2112  0004                     	;# 
  2113  0005                     	;# 
  2114  0006                     	;# 
  2115  0007                     	;# 
  2116  0008                     	;# 
  2117  0009                     	;# 
  2118  000A                     	;# 
  2119  000B                     	;# 
  2120  000C                     	;# 
  2121  000D                     	;# 
  2122  000E                     	;# 
  2123  000F                     	;# 
  2124  0010                     	;# 
  2125  0011                     	;# 
  2126  0012                     	;# 
  2127  0013                     	;# 
  2128  0014                     	;# 
  2129  0015                     	;# 
  2130  0016                     	;# 
  2131  0016                     	;# 
  2132  0017                     	;# 
  2133  0018                     	;# 
  2134  0019                     	;# 
  2135  001A                     	;# 
  2136  001B                     	;# 
  2137  001C                     	;# 
  2138  008C                     	;# 
  2139  008D                     	;# 
  2140  008E                     	;# 
  2141  008F                     	;# 
  2142  0090                     	;# 
  2143  0091                     	;# 
  2144  0092                     	;# 
  2145  0093                     	;# 
  2146  0094                     	;# 
  2147  0095                     	;# 
  2148  0096                     	;# 
  2149  0097                     	;# 
  2150  0098                     	;# 
  2151  0099                     	;# 
  2152  009A                     	;# 
  2153  009B                     	;# 
  2154  009B                     	;# 
  2155  009C                     	;# 
  2156  009D                     	;# 
  2157  009E                     	;# 
  2158  009F                     	;# 
  2159  010C                     	;# 
  2160  010D                     	;# 
  2161  010E                     	;# 
  2162  010F                     	;# 
  2163  0110                     	;# 
  2164  0111                     	;# 
  2165  0112                     	;# 
  2166  0113                     	;# 
  2167  0114                     	;# 
  2168  0115                     	;# 
  2169  0116                     	;# 
  2170  0117                     	;# 
  2171  0118                     	;# 
  2172  0119                     	;# 
  2173  011A                     	;# 
  2174  011B                     	;# 
  2175  011C                     	;# 
  2176  011D                     	;# 
  2177  011D                     	;# 
  2178  011D                     	;# 
  2179  011E                     	;# 
  2180  011F                     	;# 
  2181  018C                     	;# 
  2182  018D                     	;# 
  2183  018E                     	;# 
  2184  018F                     	;# 
  2185  0190                     	;# 
  2186  0191                     	;# 
  2187  0191                     	;# 
  2188  0192                     	;# 
  2189  0193                     	;# 
  2190  0193                     	;# 
  2191  0193                     	;# 
  2192  0194                     	;# 
  2193  0195                     	;# 
  2194  0196                     	;# 
  2195  0197                     	;# 
  2196  0199                     	;# 
  2197  0199                     	;# 
  2198  0199                     	;# 
  2199  019A                     	;# 
  2200  019A                     	;# 
  2201  019A                     	;# 
  2202  019B                     	;# 
  2203  019B                     	;# 
  2204  019B                     	;# 
  2205  019B                     	;# 
  2206  019B                     	;# 
  2207  019C                     	;# 
  2208  019C                     	;# 
  2209  019C                     	;# 
  2210  019D                     	;# 
  2211  019D                     	;# 
  2212  019D                     	;# 
  2213  019E                     	;# 
  2214  019E                     	;# 
  2215  019E                     	;# 
  2216  019F                     	;# 
  2217  019F                     	;# 
  2218  019F                     	;# 
  2219  019F                     	;# 
  2220  019F                     	;# 
  2221  020C                     	;# 
  2222  020D                     	;# 
  2223  020E                     	;# 
  2224  020F                     	;# 
  2225  0210                     	;# 
  2226  0211                     	;# 
  2227  0211                     	;# 
  2228  0212                     	;# 
  2229  0212                     	;# 
  2230  0213                     	;# 
  2231  0213                     	;# 
  2232  0214                     	;# 
  2233  0214                     	;# 
  2234  0215                     	;# 
  2235  0215                     	;# 
  2236  0215                     	;# 
  2237  0215                     	;# 
  2238  0216                     	;# 
  2239  0216                     	;# 
  2240  0217                     	;# 
  2241  0217                     	;# 
  2242  028C                     	;# 
  2243  028D                     	;# 
  2244  028E                     	;# 
  2245  028F                     	;# 
  2246  0290                     	;# 
  2247  0291                     	;# 
  2248  0291                     	;# 
  2249  0292                     	;# 
  2250  0293                     	;# 
  2251  0298                     	;# 
  2252  0298                     	;# 
  2253  0299                     	;# 
  2254  029A                     	;# 
  2255  030C                     	;# 
  2256  030D                     	;# 
  2257  030E                     	;# 
  2258  030F                     	;# 
  2259  0310                     	;# 
  2260  0311                     	;# 
  2261  0311                     	;# 
  2262  0312                     	;# 
  2263  0313                     	;# 
  2264  038C                     	;# 
  2265  038D                     	;# 
  2266  038E                     	;# 
  2267  038F                     	;# 
  2268  0390                     	;# 
  2269  0391                     	;# 
  2270  0392                     	;# 
  2271  0393                     	;# 
  2272  0394                     	;# 
  2273  0395                     	;# 
  2274  0396                     	;# 
  2275  0397                     	;# 
  2276  0398                     	;# 
  2277  0399                     	;# 
  2278  039D                     	;# 
  2279  039E                     	;# 
  2280  039F                     	;# 
  2281  0511                     	;# 
  2282  0513                     	;# 
  2283  0515                     	;# 
  2284  051A                     	;# 
  2285  0591                     	;# 
  2286  0592                     	;# 
  2287  0592                     	;# 
  2288  0593                     	;# 
  2289  0594                     	;# 
  2290  0594                     	;# 
  2291  0595                     	;# 
  2292  0596                     	;# 
  2293  0596                     	;# 
  2294  0E91                     	;# 
  2295  0E92                     	;# 
  2296  0E93                     	;# 
  2297  0E94                     	;# 
  2298  0E95                     	;# 
  2299  0E96                     	;# 
  2300  0E97                     	;# 
  2301  0E98                     	;# 
  2302  0E99                     	;# 
  2303  0E9A                     	;# 
  2304  0E9B                     	;# 
  2305  0E9C                     	;# 
  2306  0E9D                     	;# 
  2307  0E9E                     	;# 
  2308  0E9F                     	;# 
  2309  0EA0                     	;# 
  2310  0EA1                     	;# 
  2311  0EA1                     	;# 
  2312  0EA2                     	;# 
  2313  0EA3                     	;# 
  2314  0EA3                     	;# 
  2315  0EA4                     	;# 
  2316  0EA5                     	;# 
  2317  0EA5                     	;# 
  2318  0EA6                     	;# 
  2319  0EA7                     	;# 
  2320  0EA7                     	;# 
  2321  0EA8                     	;# 
  2322  0EA9                     	;# 
  2323  0EAA                     	;# 
  2324  0EAB                     	;# 
  2325  0EAC                     	;# 
  2326  0EAD                     	;# 
  2327  0EAE                     	;# 
  2328  0EAF                     	;# 
  2329  0EB1                     	;# 
  2330  0EB2                     	;# 
  2331  0EB3                     	;# 
  2332  0EB4                     	;# 
  2333  0EB5                     	;# 
  2334  0EB6                     	;# 
  2335  0EB7                     	;# 
  2336  0EB8                     	;# 
  2337  0EB9                     	;# 
  2338  0EBA                     	;# 
  2339  0EBB                     	;# 
  2340  0EBC                     	;# 
  2341  0EBD                     	;# 
  2342  0EBE                     	;# 
  2343  0EBF                     	;# 
  2344  0EC0                     	;# 
  2345  0EC1                     	;# 
  2346  0EC1                     	;# 
  2347  0EC2                     	;# 
  2348  0EC3                     	;# 
  2349  0EC3                     	;# 
  2350  0EC4                     	;# 
  2351  0EC5                     	;# 
  2352  0EC5                     	;# 
  2353  0EC6                     	;# 
  2354  0EC7                     	;# 
  2355  0EC7                     	;# 
  2356  0EC8                     	;# 
  2357  0EC9                     	;# 
  2358  0ECA                     	;# 
  2359  0ECB                     	;# 
  2360  0ECC                     	;# 
  2361  0ECD                     	;# 
  2362  0ECE                     	;# 
  2363  0ECF                     	;# 
  2364  0ED1                     	;# 
  2365  0ED2                     	;# 
  2366  0ED3                     	;# 
  2367  0ED4                     	;# 
  2368  0ED5                     	;# 
  2369  0ED6                     	;# 
  2370  0ED7                     	;# 
  2371  0ED8                     	;# 
  2372  0ED9                     	;# 
  2373  0EDA                     	;# 
  2374  0EDB                     	;# 
  2375  0EDC                     	;# 
  2376  0EDD                     	;# 
  2377  0EDE                     	;# 
  2378  0EDF                     	;# 
  2379  0EE0                     	;# 
  2380  0EE1                     	;# 
  2381  0EE1                     	;# 
  2382  0EE2                     	;# 
  2383  0EE3                     	;# 
  2384  0EE3                     	;# 
  2385  0EE4                     	;# 
  2386  0EE5                     	;# 
  2387  0EE5                     	;# 
  2388  0EE6                     	;# 
  2389  0EE7                     	;# 
  2390  0EE7                     	;# 
  2391  0EE8                     	;# 
  2392  0EE9                     	;# 
  2393  0EEA                     	;# 
  2394  0EEB                     	;# 
  2395  0EEC                     	;# 
  2396  0EED                     	;# 
  2397  0EEE                     	;# 
  2398  0EEF                     	;# 
  2399  0F11                     	;# 
  2400  0F12                     	;# 
  2401  0F13                     	;# 
  2402  0F14                     	;# 
  2403  0F15                     	;# 
  2404  0F16                     	;# 
  2405  0F17                     	;# 
  2406  0F18                     	;# 
  2407  0F19                     	;# 
  2408  0F1A                     	;# 
  2409  0F1B                     	;# 
  2410  0F1C                     	;# 
  2411  0F1D                     	;# 
  2412  0F1E                     	;# 
  2413  0F1F                     	;# 
  2414  0F20                     	;# 
  2415  0F21                     	;# 
  2416  0F21                     	;# 
  2417  0F22                     	;# 
  2418  0F23                     	;# 
  2419  0F23                     	;# 
  2420  0F24                     	;# 
  2421  0F25                     	;# 
  2422  0F25                     	;# 
  2423  0F26                     	;# 
  2424  0F27                     	;# 
  2425  0F27                     	;# 
  2426  0F28                     	;# 
  2427  0F29                     	;# 
  2428  0F2A                     	;# 
  2429  0F2B                     	;# 
  2430  0F2C                     	;# 
  2431  0F2D                     	;# 
  2432  0F2E                     	;# 
  2433  0F2F                     	;# 
  2434  0FE4                     	;# 
  2435  0FE5                     	;# 
  2436  0FE6                     	;# 
  2437  0FE7                     	;# 
  2438  0FE8                     	;# 
  2439  0FE9                     	;# 
  2440  0FEA                     	;# 
  2441  0FEB                     	;# 
  2442  0FED                     	;# 
  2443  0FEE                     	;# 
  2444  0FEF                     	;# 
  2445  0000                     	;# 
  2446  0001                     	;# 
  2447  0002                     	;# 
  2448  0003                     	;# 
  2449  0004                     	;# 
  2450  0005                     	;# 
  2451  0006                     	;# 
  2452  0007                     	;# 
  2453  0008                     	;# 
  2454  0009                     	;# 
  2455  000A                     	;# 
  2456  000B                     	;# 
  2457  000C                     	;# 
  2458  000D                     	;# 
  2459  000E                     	;# 
  2460  000F                     	;# 
  2461  0010                     	;# 
  2462  0011                     	;# 
  2463  0012                     	;# 
  2464  0013                     	;# 
  2465  0014                     	;# 
  2466  0015                     	;# 
  2467  0016                     	;# 
  2468  0016                     	;# 
  2469  0017                     	;# 
  2470  0018                     	;# 
  2471  0019                     	;# 
  2472  001A                     	;# 
  2473  001B                     	;# 
  2474  001C                     	;# 
  2475  008C                     	;# 
  2476  008D                     	;# 
  2477  008E                     	;# 
  2478  008F                     	;# 
  2479  0090                     	;# 
  2480  0091                     	;# 
  2481  0092                     	;# 
  2482  0093                     	;# 
  2483  0094                     	;# 
  2484  0095                     	;# 
  2485  0096                     	;# 
  2486  0097                     	;# 
  2487  0098                     	;# 
  2488  0099                     	;# 
  2489  009A                     	;# 
  2490  009B                     	;# 
  2491  009B                     	;# 
  2492  009C                     	;# 
  2493  009D                     	;# 
  2494  009E                     	;# 
  2495  009F                     	;# 
  2496  010C                     	;# 
  2497  010D                     	;# 
  2498  010E                     	;# 
  2499  010F                     	;# 
  2500  0110                     	;# 
  2501  0111                     	;# 
  2502  0112                     	;# 
  2503  0113                     	;# 
  2504  0114                     	;# 
  2505  0115                     	;# 
  2506  0116                     	;# 
  2507  0117                     	;# 
  2508  0118                     	;# 
  2509  0119                     	;# 
  2510  011A                     	;# 
  2511  011B                     	;# 
  2512  011C                     	;# 
  2513  011D                     	;# 
  2514  011D                     	;# 
  2515  011D                     	;# 
  2516  011E                     	;# 
  2517  011F                     	;# 
  2518  018C                     	;# 
  2519  018D                     	;# 
  2520  018E                     	;# 
  2521  018F                     	;# 
  2522  0190                     	;# 
  2523  0191                     	;# 
  2524  0191                     	;# 
  2525  0192                     	;# 
  2526  0193                     	;# 
  2527  0193                     	;# 
  2528  0193                     	;# 
  2529  0194                     	;# 
  2530  0195                     	;# 
  2531  0196                     	;# 
  2532  0197                     	;# 
  2533  0199                     	;# 
  2534  0199                     	;# 
  2535  0199                     	;# 
  2536  019A                     	;# 
  2537  019A                     	;# 
  2538  019A                     	;# 
  2539  019B                     	;# 
  2540  019B                     	;# 
  2541  019B                     	;# 
  2542  019B                     	;# 
  2543  019B                     	;# 
  2544  019C                     	;# 
  2545  019C                     	;# 
  2546  019C                     	;# 
  2547  019D                     	;# 
  2548  019D                     	;# 
  2549  019D                     	;# 
  2550  019E                     	;# 
  2551  019E                     	;# 
  2552  019E                     	;# 
  2553  019F                     	;# 
  2554  019F                     	;# 
  2555  019F                     	;# 
  2556  019F                     	;# 
  2557  019F                     	;# 
  2558  020C                     	;# 
  2559  020D                     	;# 
  2560  020E                     	;# 
  2561  020F                     	;# 
  2562  0210                     	;# 
  2563  0211                     	;# 
  2564  0211                     	;# 
  2565  0212                     	;# 
  2566  0212                     	;# 
  2567  0213                     	;# 
  2568  0213                     	;# 
  2569  0214                     	;# 
  2570  0214                     	;# 
  2571  0215                     	;# 
  2572  0215                     	;# 
  2573  0215                     	;# 
  2574  0215                     	;# 
  2575  0216                     	;# 
  2576  0216                     	;# 
  2577  0217                     	;# 
  2578  0217                     	;# 
  2579  028C                     	;# 
  2580  028D                     	;# 
  2581  028E                     	;# 
  2582  028F                     	;# 
  2583  0290                     	;# 
  2584  0291                     	;# 
  2585  0291                     	;# 
  2586  0292                     	;# 
  2587  0293                     	;# 
  2588  0298                     	;# 
  2589  0298                     	;# 
  2590  0299                     	;# 
  2591  029A                     	;# 
  2592  030C                     	;# 
  2593  030D                     	;# 
  2594  030E                     	;# 
  2595  030F                     	;# 
  2596  0310                     	;# 
  2597  0311                     	;# 
  2598  0311                     	;# 
  2599  0312                     	;# 
  2600  0313                     	;# 
  2601  038C                     	;# 
  2602  038D                     	;# 
  2603  038E                     	;# 
  2604  038F                     	;# 
  2605  0390                     	;# 
  2606  0391                     	;# 
  2607  0392                     	;# 
  2608  0393                     	;# 
  2609  0394                     	;# 
  2610  0395                     	;# 
  2611  0396                     	;# 
  2612  0397                     	;# 
  2613  0398                     	;# 
  2614  0399                     	;# 
  2615  039D                     	;# 
  2616  039E                     	;# 
  2617  039F                     	;# 
  2618  0511                     	;# 
  2619  0513                     	;# 
  2620  0515                     	;# 
  2621  051A                     	;# 
  2622  0591                     	;# 
  2623  0592                     	;# 
  2624  0592                     	;# 
  2625  0593                     	;# 
  2626  0594                     	;# 
  2627  0594                     	;# 
  2628  0595                     	;# 
  2629  0596                     	;# 
  2630  0596                     	;# 
  2631  0E91                     	;# 
  2632  0E92                     	;# 
  2633  0E93                     	;# 
  2634  0E94                     	;# 
  2635  0E95                     	;# 
  2636  0E96                     	;# 
  2637  0E97                     	;# 
  2638  0E98                     	;# 
  2639  0E99                     	;# 
  2640  0E9A                     	;# 
  2641  0E9B                     	;# 
  2642  0E9C                     	;# 
  2643  0E9D                     	;# 
  2644  0E9E                     	;# 
  2645  0E9F                     	;# 
  2646  0EA0                     	;# 
  2647  0EA1                     	;# 
  2648  0EA1                     	;# 
  2649  0EA2                     	;# 
  2650  0EA3                     	;# 
  2651  0EA3                     	;# 
  2652  0EA4                     	;# 
  2653  0EA5                     	;# 
  2654  0EA5                     	;# 
  2655  0EA6                     	;# 
  2656  0EA7                     	;# 
  2657  0EA7                     	;# 
  2658  0EA8                     	;# 
  2659  0EA9                     	;# 
  2660  0EAA                     	;# 
  2661  0EAB                     	;# 
  2662  0EAC                     	;# 
  2663  0EAD                     	;# 
  2664  0EAE                     	;# 
  2665  0EAF                     	;# 
  2666  0EB1                     	;# 
  2667  0EB2                     	;# 
  2668  0EB3                     	;# 
  2669  0EB4                     	;# 
  2670  0EB5                     	;# 
  2671  0EB6                     	;# 
  2672  0EB7                     	;# 
  2673  0EB8                     	;# 
  2674  0EB9                     	;# 
  2675  0EBA                     	;# 
  2676  0EBB                     	;# 
  2677  0EBC                     	;# 
  2678  0EBD                     	;# 
  2679  0EBE                     	;# 
  2680  0EBF                     	;# 
  2681  0EC0                     	;# 
  2682  0EC1                     	;# 
  2683  0EC1                     	;# 
  2684  0EC2                     	;# 
  2685  0EC3                     	;# 
  2686  0EC3                     	;# 
  2687  0EC4                     	;# 
  2688  0EC5                     	;# 
  2689  0EC5                     	;# 
  2690  0EC6                     	;# 
  2691  0EC7                     	;# 
  2692  0EC7                     	;# 
  2693  0EC8                     	;# 
  2694  0EC9                     	;# 
  2695  0ECA                     	;# 
  2696  0ECB                     	;# 
  2697  0ECC                     	;# 
  2698  0ECD                     	;# 
  2699  0ECE                     	;# 
  2700  0ECF                     	;# 
  2701  0ED1                     	;# 
  2702  0ED2                     	;# 
  2703  0ED3                     	;# 
  2704  0ED4                     	;# 
  2705  0ED5                     	;# 
  2706  0ED6                     	;# 
  2707  0ED7                     	;# 
  2708  0ED8                     	;# 
  2709  0ED9                     	;# 
  2710  0EDA                     	;# 
  2711  0EDB                     	;# 
  2712  0EDC                     	;# 
  2713  0EDD                     	;# 
  2714  0EDE                     	;# 
  2715  0EDF                     	;# 
  2716  0EE0                     	;# 
  2717  0EE1                     	;# 
  2718  0EE1                     	;# 
  2719  0EE2                     	;# 
  2720  0EE3                     	;# 
  2721  0EE3                     	;# 
  2722  0EE4                     	;# 
  2723  0EE5                     	;# 
  2724  0EE5                     	;# 
  2725  0EE6                     	;# 
  2726  0EE7                     	;# 
  2727  0EE7                     	;# 
  2728  0EE8                     	;# 
  2729  0EE9                     	;# 
  2730  0EEA                     	;# 
  2731  0EEB                     	;# 
  2732  0EEC                     	;# 
  2733  0EED                     	;# 
  2734  0EEE                     	;# 
  2735  0EEF                     	;# 
  2736  0F11                     	;# 
  2737  0F12                     	;# 
  2738  0F13                     	;# 
  2739  0F14                     	;# 
  2740  0F15                     	;# 
  2741  0F16                     	;# 
  2742  0F17                     	;# 
  2743  0F18                     	;# 
  2744  0F19                     	;# 
  2745  0F1A                     	;# 
  2746  0F1B                     	;# 
  2747  0F1C                     	;# 
  2748  0F1D                     	;# 
  2749  0F1E                     	;# 
  2750  0F1F                     	;# 
  2751  0F20                     	;# 
  2752  0F21                     	;# 
  2753  0F21                     	;# 
  2754  0F22                     	;# 
  2755  0F23                     	;# 
  2756  0F23                     	;# 
  2757  0F24                     	;# 
  2758  0F25                     	;# 
  2759  0F25                     	;# 
  2760  0F26                     	;# 
  2761  0F27                     	;# 
  2762  0F27                     	;# 
  2763  0F28                     	;# 
  2764  0F29                     	;# 
  2765  0F2A                     	;# 
  2766  0F2B                     	;# 
  2767  0F2C                     	;# 
  2768  0F2D                     	;# 
  2769  0F2E                     	;# 
  2770  0F2F                     	;# 
  2771  0FE4                     	;# 
  2772  0FE5                     	;# 
  2773  0FE6                     	;# 
  2774  0FE7                     	;# 
  2775  0FE8                     	;# 
  2776  0FE9                     	;# 
  2777  0FEA                     	;# 
  2778  0FEB                     	;# 
  2779  0FED                     	;# 
  2780  0FEE                     	;# 
  2781  0FEF                     	;# 
  2782  0000                     	;# 
  2783  0001                     	;# 
  2784  0002                     	;# 
  2785  0003                     	;# 
  2786  0004                     	;# 
  2787  0005                     	;# 
  2788  0006                     	;# 
  2789  0007                     	;# 
  2790  0008                     	;# 
  2791  0009                     	;# 
  2792  000A                     	;# 
  2793  000B                     	;# 
  2794  000C                     	;# 
  2795  000D                     	;# 
  2796  000E                     	;# 
  2797  000F                     	;# 
  2798  0010                     	;# 
  2799  0011                     	;# 
  2800  0012                     	;# 
  2801  0013                     	;# 
  2802  0014                     	;# 
  2803  0015                     	;# 
  2804  0016                     	;# 
  2805  0016                     	;# 
  2806  0017                     	;# 
  2807  0018                     	;# 
  2808  0019                     	;# 
  2809  001A                     	;# 
  2810  001B                     	;# 
  2811  001C                     	;# 
  2812  008C                     	;# 
  2813  008D                     	;# 
  2814  008E                     	;# 
  2815  008F                     	;# 
  2816  0090                     	;# 
  2817  0091                     	;# 
  2818  0092                     	;# 
  2819  0093                     	;# 
  2820  0094                     	;# 
  2821  0095                     	;# 
  2822  0096                     	;# 
  2823  0097                     	;# 
  2824  0098                     	;# 
  2825  0099                     	;# 
  2826  009A                     	;# 
  2827  009B                     	;# 
  2828  009B                     	;# 
  2829  009C                     	;# 
  2830  009D                     	;# 
  2831  009E                     	;# 
  2832  009F                     	;# 
  2833  010C                     	;# 
  2834  010D                     	;# 
  2835  010E                     	;# 
  2836  010F                     	;# 
  2837  0110                     	;# 
  2838  0111                     	;# 
  2839  0112                     	;# 
  2840  0113                     	;# 
  2841  0114                     	;# 
  2842  0115                     	;# 
  2843  0116                     	;# 
  2844  0117                     	;# 
  2845  0118                     	;# 
  2846  0119                     	;# 
  2847  011A                     	;# 
  2848  011B                     	;# 
  2849  011C                     	;# 
  2850  011D                     	;# 
  2851  011D                     	;# 
  2852  011D                     	;# 
  2853  011E                     	;# 
  2854  011F                     	;# 
  2855  018C                     	;# 
  2856  018D                     	;# 
  2857  018E                     	;# 
  2858  018F                     	;# 
  2859  0190                     	;# 
  2860  0191                     	;# 
  2861  0191                     	;# 
  2862  0192                     	;# 
  2863  0193                     	;# 
  2864  0193                     	;# 
  2865  0193                     	;# 
  2866  0194                     	;# 
  2867  0195                     	;# 
  2868  0196                     	;# 
  2869  0197                     	;# 
  2870  0199                     	;# 
  2871  0199                     	;# 
  2872  0199                     	;# 
  2873  019A                     	;# 
  2874  019A                     	;# 
  2875  019A                     	;# 
  2876  019B                     	;# 
  2877  019B                     	;# 
  2878  019B                     	;# 
  2879  019B                     	;# 
  2880  019B                     	;# 
  2881  019C                     	;# 
  2882  019C                     	;# 
  2883  019C                     	;# 
  2884  019D                     	;# 
  2885  019D                     	;# 
  2886  019D                     	;# 
  2887  019E                     	;# 
  2888  019E                     	;# 
  2889  019E                     	;# 
  2890  019F                     	;# 
  2891  019F                     	;# 
  2892  019F                     	;# 
  2893  019F                     	;# 
  2894  019F                     	;# 
  2895  020C                     	;# 
  2896  020D                     	;# 
  2897  020E                     	;# 
  2898  020F                     	;# 
  2899  0210                     	;# 
  2900  0211                     	;# 
  2901  0211                     	;# 
  2902  0212                     	;# 
  2903  0212                     	;# 
  2904  0213                     	;# 
  2905  0213                     	;# 
  2906  0214                     	;# 
  2907  0214                     	;# 
  2908  0215                     	;# 
  2909  0215                     	;# 
  2910  0215                     	;# 
  2911  0215                     	;# 
  2912  0216                     	;# 
  2913  0216                     	;# 
  2914  0217                     	;# 
  2915  0217                     	;# 
  2916  028C                     	;# 
  2917  028D                     	;# 
  2918  028E                     	;# 
  2919  028F                     	;# 
  2920  0290                     	;# 
  2921  0291                     	;# 
  2922  0291                     	;# 
  2923  0292                     	;# 
  2924  0293                     	;# 
  2925  0298                     	;# 
  2926  0298                     	;# 
  2927  0299                     	;# 
  2928  029A                     	;# 
  2929  030C                     	;# 
  2930  030D                     	;# 
  2931  030E                     	;# 
  2932  030F                     	;# 
  2933  0310                     	;# 
  2934  0311                     	;# 
  2935  0311                     	;# 
  2936  0312                     	;# 
  2937  0313                     	;# 
  2938  038C                     	;# 
  2939  038D                     	;# 
  2940  038E                     	;# 
  2941  038F                     	;# 
  2942  0390                     	;# 
  2943  0391                     	;# 
  2944  0392                     	;# 
  2945  0393                     	;# 
  2946  0394                     	;# 
  2947  0395                     	;# 
  2948  0396                     	;# 
  2949  0397                     	;# 
  2950  0398                     	;# 
  2951  0399                     	;# 
  2952  039D                     	;# 
  2953  039E                     	;# 
  2954  039F                     	;# 
  2955  0511                     	;# 
  2956  0513                     	;# 
  2957  0515                     	;# 
  2958  051A                     	;# 
  2959  0591                     	;# 
  2960  0592                     	;# 
  2961  0592                     	;# 
  2962  0593                     	;# 
  2963  0594                     	;# 
  2964  0594                     	;# 
  2965  0595                     	;# 
  2966  0596                     	;# 
  2967  0596                     	;# 
  2968  0E91                     	;# 
  2969  0E92                     	;# 
  2970  0E93                     	;# 
  2971  0E94                     	;# 
  2972  0E95                     	;# 
  2973  0E96                     	;# 
  2974  0E97                     	;# 
  2975  0E98                     	;# 
  2976  0E99                     	;# 
  2977  0E9A                     	;# 
  2978  0E9B                     	;# 
  2979  0E9C                     	;# 
  2980  0E9D                     	;# 
  2981  0E9E                     	;# 
  2982  0E9F                     	;# 
  2983  0EA0                     	;# 
  2984  0EA1                     	;# 
  2985  0EA1                     	;# 
  2986  0EA2                     	;# 
  2987  0EA3                     	;# 
  2988  0EA3                     	;# 
  2989  0EA4                     	;# 
  2990  0EA5                     	;# 
  2991  0EA5                     	;# 
  2992  0EA6                     	;# 
  2993  0EA7                     	;# 
  2994  0EA7                     	;# 
  2995  0EA8                     	;# 
  2996  0EA9                     	;# 
  2997  0EAA                     	;# 
  2998  0EAB                     	;# 
  2999  0EAC                     	;# 
  3000  0EAD                     	;# 
  3001  0EAE                     	;# 
  3002  0EAF                     	;# 
  3003  0EB1                     	;# 
  3004  0EB2                     	;# 
  3005  0EB3                     	;# 
  3006  0EB4                     	;# 
  3007  0EB5                     	;# 
  3008  0EB6                     	;# 
  3009  0EB7                     	;# 
  3010  0EB8                     	;# 
  3011  0EB9                     	;# 
  3012  0EBA                     	;# 
  3013  0EBB                     	;# 
  3014  0EBC                     	;# 
  3015  0EBD                     	;# 
  3016  0EBE                     	;# 
  3017  0EBF                     	;# 
  3018  0EC0                     	;# 
  3019  0EC1                     	;# 
  3020  0EC1                     	;# 
  3021  0EC2                     	;# 
  3022  0EC3                     	;# 
  3023  0EC3                     	;# 
  3024  0EC4                     	;# 
  3025  0EC5                     	;# 
  3026  0EC5                     	;# 
  3027  0EC6                     	;# 
  3028  0EC7                     	;# 
  3029  0EC7                     	;# 
  3030  0EC8                     	;# 
  3031  0EC9                     	;# 
  3032  0ECA                     	;# 
  3033  0ECB                     	;# 
  3034  0ECC                     	;# 
  3035  0ECD                     	;# 
  3036  0ECE                     	;# 
  3037  0ECF                     	;# 
  3038  0ED1                     	;# 
  3039  0ED2                     	;# 
  3040  0ED3                     	;# 
  3041  0ED4                     	;# 
  3042  0ED5                     	;# 
  3043  0ED6                     	;# 
  3044  0ED7                     	;# 
  3045  0ED8                     	;# 
  3046  0ED9                     	;# 
  3047  0EDA                     	;# 
  3048  0EDB                     	;# 
  3049  0EDC                     	;# 
  3050  0EDD                     	;# 
  3051  0EDE                     	;# 
  3052  0EDF                     	;# 
  3053  0EE0                     	;# 
  3054  0EE1                     	;# 
  3055  0EE1                     	;# 
  3056  0EE2                     	;# 
  3057  0EE3                     	;# 
  3058  0EE3                     	;# 
  3059  0EE4                     	;# 
  3060  0EE5                     	;# 
  3061  0EE5                     	;# 
  3062  0EE6                     	;# 
  3063  0EE7                     	;# 
  3064  0EE7                     	;# 
  3065  0EE8                     	;# 
  3066  0EE9                     	;# 
  3067  0EEA                     	;# 
  3068  0EEB                     	;# 
  3069  0EEC                     	;# 
  3070  0EED                     	;# 
  3071  0EEE                     	;# 
  3072  0EEF                     	;# 
  3073  0F11                     	;# 
  3074  0F12                     	;# 
  3075  0F13                     	;# 
  3076  0F14                     	;# 
  3077  0F15                     	;# 
  3078  0F16                     	;# 
  3079  0F17                     	;# 
  3080  0F18                     	;# 
  3081  0F19                     	;# 
  3082  0F1A                     	;# 
  3083  0F1B                     	;# 
  3084  0F1C                     	;# 
  3085  0F1D                     	;# 
  3086  0F1E                     	;# 
  3087  0F1F                     	;# 
  3088  0F20                     	;# 
  3089  0F21                     	;# 
  3090  0F21                     	;# 
  3091  0F22                     	;# 
  3092  0F23                     	;# 
  3093  0F23                     	;# 
  3094  0F24                     	;# 
  3095  0F25                     	;# 
  3096  0F25                     	;# 
  3097  0F26                     	;# 
  3098  0F27                     	;# 
  3099  0F27                     	;# 
  3100  0F28                     	;# 
  3101  0F29                     	;# 
  3102  0F2A                     	;# 
  3103  0F2B                     	;# 
  3104  0F2C                     	;# 
  3105  0F2D                     	;# 
  3106  0F2E                     	;# 
  3107  0F2F                     	;# 
  3108  0FE4                     	;# 
  3109  0FE5                     	;# 
  3110  0FE6                     	;# 
  3111  0FE7                     	;# 
  3112  0FE8                     	;# 
  3113  0FE9                     	;# 
  3114  0FEA                     	;# 
  3115  0FEB                     	;# 
  3116  0FED                     	;# 
  3117  0FEE                     	;# 
  3118  0FEF                     	;# 
  3119  0000                     	;# 
  3120  0001                     	;# 
  3121  0002                     	;# 
  3122  0003                     	;# 
  3123  0004                     	;# 
  3124  0005                     	;# 
  3125  0006                     	;# 
  3126  0007                     	;# 
  3127  0008                     	;# 
  3128  0009                     	;# 
  3129  000A                     	;# 
  3130  000B                     	;# 
  3131  000C                     	;# 
  3132  000D                     	;# 
  3133  000E                     	;# 
  3134  000F                     	;# 
  3135  0010                     	;# 
  3136  0011                     	;# 
  3137  0012                     	;# 
  3138  0013                     	;# 
  3139  0014                     	;# 
  3140  0015                     	;# 
  3141  0016                     	;# 
  3142  0016                     	;# 
  3143  0017                     	;# 
  3144  0018                     	;# 
  3145  0019                     	;# 
  3146  001A                     	;# 
  3147  001B                     	;# 
  3148  001C                     	;# 
  3149  008C                     	;# 
  3150  008D                     	;# 
  3151  008E                     	;# 
  3152  008F                     	;# 
  3153  0090                     	;# 
  3154  0091                     	;# 
  3155  0092                     	;# 
  3156  0093                     	;# 
  3157  0094                     	;# 
  3158  0095                     	;# 
  3159  0096                     	;# 
  3160  0097                     	;# 
  3161  0098                     	;# 
  3162  0099                     	;# 
  3163  009A                     	;# 
  3164  009B                     	;# 
  3165  009B                     	;# 
  3166  009C                     	;# 
  3167  009D                     	;# 
  3168  009E                     	;# 
  3169  009F                     	;# 
  3170  010C                     	;# 
  3171  010D                     	;# 
  3172  010E                     	;# 
  3173  010F                     	;# 
  3174  0110                     	;# 
  3175  0111                     	;# 
  3176  0112                     	;# 
  3177  0113                     	;# 
  3178  0114                     	;# 
  3179  0115                     	;# 
  3180  0116                     	;# 
  3181  0117                     	;# 
  3182  0118                     	;# 
  3183  0119                     	;# 
  3184  011A                     	;# 
  3185  011B                     	;# 
  3186  011C                     	;# 
  3187  011D                     	;# 
  3188  011D                     	;# 
  3189  011D                     	;# 
  3190  011E                     	;# 
  3191  011F                     	;# 
  3192  018C                     	;# 
  3193  018D                     	;# 
  3194  018E                     	;# 
  3195  018F                     	;# 
  3196  0190                     	;# 
  3197  0191                     	;# 
  3198  0191                     	;# 
  3199  0192                     	;# 
  3200  0193                     	;# 
  3201  0193                     	;# 
  3202  0193                     	;# 
  3203  0194                     	;# 
  3204  0195                     	;# 
  3205  0196                     	;# 
  3206  0197                     	;# 
  3207  0199                     	;# 
  3208  0199                     	;# 
  3209  0199                     	;# 
  3210  019A                     	;# 
  3211  019A                     	;# 
  3212  019A                     	;# 
  3213  019B                     	;# 
  3214  019B                     	;# 
  3215  019B                     	;# 
  3216  019B                     	;# 
  3217  019B                     	;# 
  3218  019C                     	;# 
  3219  019C                     	;# 
  3220  019C                     	;# 
  3221  019D                     	;# 
  3222  019D                     	;# 
  3223  019D                     	;# 
  3224  019E                     	;# 
  3225  019E                     	;# 
  3226  019E                     	;# 
  3227  019F                     	;# 
  3228  019F                     	;# 
  3229  019F                     	;# 
  3230  019F                     	;# 
  3231  019F                     	;# 
  3232  020C                     	;# 
  3233  020D                     	;# 
  3234  020E                     	;# 
  3235  020F                     	;# 
  3236  0210                     	;# 
  3237  0211                     	;# 
  3238  0211                     	;# 
  3239  0212                     	;# 
  3240  0212                     	;# 
  3241  0213                     	;# 
  3242  0213                     	;# 
  3243  0214                     	;# 
  3244  0214                     	;# 
  3245  0215                     	;# 
  3246  0215                     	;# 
  3247  0215                     	;# 
  3248  0215                     	;# 
  3249  0216                     	;# 
  3250  0216                     	;# 
  3251  0217                     	;# 
  3252  0217                     	;# 
  3253  028C                     	;# 
  3254  028D                     	;# 
  3255  028E                     	;# 
  3256  028F                     	;# 
  3257  0290                     	;# 
  3258  0291                     	;# 
  3259  0291                     	;# 
  3260  0292                     	;# 
  3261  0293                     	;# 
  3262  0298                     	;# 
  3263  0298                     	;# 
  3264  0299                     	;# 
  3265  029A                     	;# 
  3266  030C                     	;# 
  3267  030D                     	;# 
  3268  030E                     	;# 
  3269  030F                     	;# 
  3270  0310                     	;# 
  3271  0311                     	;# 
  3272  0311                     	;# 
  3273  0312                     	;# 
  3274  0313                     	;# 
  3275  038C                     	;# 
  3276  038D                     	;# 
  3277  038E                     	;# 
  3278  038F                     	;# 
  3279  0390                     	;# 
  3280  0391                     	;# 
  3281  0392                     	;# 
  3282  0393                     	;# 
  3283  0394                     	;# 
  3284  0395                     	;# 
  3285  0396                     	;# 
  3286  0397                     	;# 
  3287  0398                     	;# 
  3288  0399                     	;# 
  3289  039D                     	;# 
  3290  039E                     	;# 
  3291  039F                     	;# 
  3292  0511                     	;# 
  3293  0513                     	;# 
  3294  0515                     	;# 
  3295  051A                     	;# 
  3296  0591                     	;# 
  3297  0592                     	;# 
  3298  0592                     	;# 
  3299  0593                     	;# 
  3300  0594                     	;# 
  3301  0594                     	;# 
  3302  0595                     	;# 
  3303  0596                     	;# 
  3304  0596                     	;# 
  3305  0E91                     	;# 
  3306  0E92                     	;# 
  3307  0E93                     	;# 
  3308  0E94                     	;# 
  3309  0E95                     	;# 
  3310  0E96                     	;# 
  3311  0E97                     	;# 
  3312  0E98                     	;# 
  3313  0E99                     	;# 
  3314  0E9A                     	;# 
  3315  0E9B                     	;# 
  3316  0E9C                     	;# 
  3317  0E9D                     	;# 
  3318  0E9E                     	;# 
  3319  0E9F                     	;# 
  3320  0EA0                     	;# 
  3321  0EA1                     	;# 
  3322  0EA1                     	;# 
  3323  0EA2                     	;# 
  3324  0EA3                     	;# 
  3325  0EA3                     	;# 
  3326  0EA4                     	;# 
  3327  0EA5                     	;# 
  3328  0EA5                     	;# 
  3329  0EA6                     	;# 
  3330  0EA7                     	;# 
  3331  0EA7                     	;# 
  3332  0EA8                     	;# 
  3333  0EA9                     	;# 
  3334  0EAA                     	;# 
  3335  0EAB                     	;# 
  3336  0EAC                     	;# 
  3337  0EAD                     	;# 
  3338  0EAE                     	;# 
  3339  0EAF                     	;# 
  3340  0EB1                     	;# 
  3341  0EB2                     	;# 
  3342  0EB3                     	;# 
  3343  0EB4                     	;# 
  3344  0EB5                     	;# 
  3345  0EB6                     	;# 
  3346  0EB7                     	;# 
  3347  0EB8                     	;# 
  3348  0EB9                     	;# 
  3349  0EBA                     	;# 
  3350  0EBB                     	;# 
  3351  0EBC                     	;# 
  3352  0EBD                     	;# 
  3353  0EBE                     	;# 
  3354  0EBF                     	;# 
  3355  0EC0                     	;# 
  3356  0EC1                     	;# 
  3357  0EC1                     	;# 
  3358  0EC2                     	;# 
  3359  0EC3                     	;# 
  3360  0EC3                     	;# 
  3361  0EC4                     	;# 
  3362  0EC5                     	;# 
  3363  0EC5                     	;# 
  3364  0EC6                     	;# 
  3365  0EC7                     	;# 
  3366  0EC7                     	;# 
  3367  0EC8                     	;# 
  3368  0EC9                     	;# 
  3369  0ECA                     	;# 
  3370  0ECB                     	;# 
  3371  0ECC                     	;# 
  3372  0ECD                     	;# 
  3373  0ECE                     	;# 
  3374  0ECF                     	;# 
  3375  0ED1                     	;# 
  3376  0ED2                     	;# 
  3377  0ED3                     	;# 
  3378  0ED4                     	;# 
  3379  0ED5                     	;# 
  3380  0ED6                     	;# 
  3381  0ED7                     	;# 
  3382  0ED8                     	;# 
  3383  0ED9                     	;# 
  3384  0EDA                     	;# 
  3385  0EDB                     	;# 
  3386  0EDC                     	;# 
  3387  0EDD                     	;# 
  3388  0EDE                     	;# 
  3389  0EDF                     	;# 
  3390  0EE0                     	;# 
  3391  0EE1                     	;# 
  3392  0EE1                     	;# 
  3393  0EE2                     	;# 
  3394  0EE3                     	;# 
  3395  0EE3                     	;# 
  3396  0EE4                     	;# 
  3397  0EE5                     	;# 
  3398  0EE5                     	;# 
  3399  0EE6                     	;# 
  3400  0EE7                     	;# 
  3401  0EE7                     	;# 
  3402  0EE8                     	;# 
  3403  0EE9                     	;# 
  3404  0EEA                     	;# 
  3405  0EEB                     	;# 
  3406  0EEC                     	;# 
  3407  0EED                     	;# 
  3408  0EEE                     	;# 
  3409  0EEF                     	;# 
  3410  0F11                     	;# 
  3411  0F12                     	;# 
  3412  0F13                     	;# 
  3413  0F14                     	;# 
  3414  0F15                     	;# 
  3415  0F16                     	;# 
  3416  0F17                     	;# 
  3417  0F18                     	;# 
  3418  0F19                     	;# 
  3419  0F1A                     	;# 
  3420  0F1B                     	;# 
  3421  0F1C                     	;# 
  3422  0F1D                     	;# 
  3423  0F1E                     	;# 
  3424  0F1F                     	;# 
  3425  0F20                     	;# 
  3426  0F21                     	;# 
  3427  0F21                     	;# 
  3428  0F22                     	;# 
  3429  0F23                     	;# 
  3430  0F23                     	;# 
  3431  0F24                     	;# 
  3432  0F25                     	;# 
  3433  0F25                     	;# 
  3434  0F26                     	;# 
  3435  0F27                     	;# 
  3436  0F27                     	;# 
  3437  0F28                     	;# 
  3438  0F29                     	;# 
  3439  0F2A                     	;# 
  3440  0F2B                     	;# 
  3441  0F2C                     	;# 
  3442  0F2D                     	;# 
  3443  0F2E                     	;# 
  3444  0F2F                     	;# 
  3445  0FE4                     	;# 
  3446  0FE5                     	;# 
  3447  0FE6                     	;# 
  3448  0FE7                     	;# 
  3449  0FE8                     	;# 
  3450  0FE9                     	;# 
  3451  0FEA                     	;# 
  3452  0FEB                     	;# 
  3453  0FED                     	;# 
  3454  0FEE                     	;# 
  3455  0FEF                     	;# 
  3456                           
  3457 ;; Function _EUSART_DefaultFramingErrorHandler is unused but had its address taken
  3458  0000                     
  3459 ;; Function _EUSART_DefaultOverrunErrorHandler is unused but had its address taken
  3460  0000                     
  3461 ;; Function _EUSART_DefaultErrorHandler is unused but had its address taken
  3462  0000                     
  3463                           	psect	stringtext1
  3464  0800                     __pstringtext1:
  3465  0800                     _spi_configuration:
  3466  0800  3402               	retlw	2
  3467  0801  3440               	retlw	64
  3468  0802  3401               	retlw	1
  3469  0803  3400               	retlw	0
  3470  0804                     __end_of_spi_configuration:
  3471                           
  3472                           	psect	nvBANK1
  3473  00E2                     __pnvBANK1:
  3474  00E2                     _EUSART_ErrorHandler:
  3475  00E2                     	ds	2
  3476  00E4                     _EUSART_OverrunErrorHandler:
  3477  00E4                     	ds	2
  3478  00E6                     _EUSART_FramingErrorHandler:
  3479  00E6                     	ds	2
  3480  000B                     _INTCONbits	set	11
  3481  000D                     _PORTBbits	set	13
  3482  0011                     _PIR1bits	set	17
  3483  0095                     _OPTION_REGbits	set	149
  3484  008F                     _TRISD	set	143
  3485  008E                     _TRISC	set	142
  3486  008D                     _TRISB	set	141
  3487  008C                     _TRISA	set	140
  3488  0090                     _TRISE	set	144
  3489  0097                     _WDTCON	set	151
  3490  0098                     _OSCTUNE	set	152
  3491  009A                     _OSCSTAT	set	154
  3492  0099                     _OSCCON	set	153
  3493  008E                     _TRISCbits	set	142
  3494  010C                     _LATAbits	set	268
  3495  0110                     _LATEbits	set	272
  3496  011C                     _APFCON2	set	284
  3497  011D                     _APFCON1	set	285
  3498  010E                     _LATC	set	270
  3499  010D                     _LATB	set	269
  3500  010C                     _LATA	set	268
  3501  010F                     _LATD	set	271
  3502  0110                     _LATE	set	272
  3503  0116                     _BORCON	set	278
  3504  0193                     _EEDATL	set	403
  3505  0194                     _EEDATH	set	404
  3506  0191                     _EEADRL	set	401
  3507  0192                     _EEADRH	set	402
  3508  0195                     _EECON1bits	set	405
  3509  0196                     _EECON2	set	406
  3510  018C                     _ANSELA	set	396
  3511  0190                     _ANSELE	set	400
  3512  018D                     _ANSELB	set	397
  3513  018E                     _ANSELC	set	398
  3514  018F                     _ANSELD	set	399
  3515  019A                     _TX1REG	set	410
  3516  0199                     _RC1REG	set	409
  3517  019D                     _RC1STAbits	set	413
  3518  019E                     _TX1STAbits	set	414
  3519  019C                     _SP1BRGH	set	412
  3520  019B                     _SP1BRGL	set	411
  3521  019E                     _TX1STA	set	414
  3522  019D                     _RC1STA	set	413
  3523  019F                     _BAUD1CON	set	415
  3524  020E                     _WPUC	set	526
  3525  020C                     _WPUA	set	524
  3526  020D                     _WPUB	set	525
  3527  0210                     _WPUE	set	528
  3528  020F                     _WPUD	set	527
  3529  0211                     _SSP1BUF	set	529
  3530  0216                     _SSP1CON2	set	534
  3531  0215                     _SSP1CON1bits	set	533
  3532  0212                     _SSP1ADD	set	530
  3533  0215                     _SSP1CON1	set	533
  3534  0214                     _SSP1STAT	set	532
  3535  028F                     _ODCOND	set	655
  3536  028E                     _ODCONC	set	654
  3537  028D                     _ODCONB	set	653
  3538  028C                     _ODCONA	set	652
  3539  0290                     _ODCONE	set	656
  3540  0310                     _SLRCONE	set	784
  3541  030F                     _SLRCOND	set	783
  3542  030E                     _SLRCONC	set	782
  3543  030D                     _SLRCONB	set	781
  3544  030C                     _SLRCONA	set	780
  3545  0390                     _INLVLE	set	912
  3546  038F                     _INLVLD	set	911
  3547  038E                     _INLVLC	set	910
  3548  038D                     _INLVLB	set	909
  3549  038C                     _INLVLA	set	908
  3550                           
  3551                           	psect	cinit
  3552  07F3                     start_initialization:	
  3553                           ; #config settings
  3554                           
  3555  07F3                     __initialization:
  3556                           
  3557                           ; Clear objects allocated to BANK0
  3558  07F3  0020               	movlb	0	; select bank0
  3559  07F4  01EE               	clrf	__pbssBANK0& (0+127)
  3560                           
  3561                           ; Clear objects allocated to BANK2
  3562  07F5  0022               	movlb	2	; select bank2
  3563  07F6  01E4               	clrf	__pbssBANK2& (0+127)
  3564  07F7  01E5               	clrf	(__pbssBANK2+1)& (0+127)
  3565  07F8  01E6               	clrf	(__pbssBANK2+2)& (0+127)
  3566  07F9  01E7               	clrf	(__pbssBANK2+3)& (0+127)
  3567  07FA  01E8               	clrf	(__pbssBANK2+4)& (0+127)
  3568  07FB  01E9               	clrf	(__pbssBANK2+5)& (0+127)
  3569  07FC  01EA               	clrf	(__pbssBANK2+6)& (0+127)
  3570  07FD                     end_of_initialization:	
  3571                           ;End of C runtime variable initialization code
  3572                           
  3573  07FD                     __end_of__initialization:
  3574  07FD  0020               	movlb	0
  3575  07FE  3186  2EE6         	ljmp	_main	;jump to C main() function
  3576                           
  3577                           	psect	bssBANK0
  3578  006E                     __pbssBANK0:
  3579  006E                     _eusartRxLastError:
  3580  006E                     	ds	1
  3581                           
  3582                           	psect	bssBANK2
  3583  0164                     __pbssBANK2:
  3584  0164                     _BLFlags:
  3585  0164                     	ds	7
  3586                           
  3587                           	psect	cstackBANK2
  3588  0120                     __pcstackBANK2:
  3589  0120                     main@recv_frame:
  3590                           
  3591                           ; 68 bytes @ 0x0
  3592  0120                     	ds	68
  3593                           
  3594                           	psect	cstackBANK1
  3595  00A0                     __pcstackBANK1:
  3596  00A0                     main@send_frame:
  3597                           
  3598                           ; 66 bytes @ 0x0
  3599  00A0                     	ds	66
  3600                           
  3601                           	psect	cstackCOMMON
  3602  0070                     __pcstackCOMMON:
  3603  0070                     ?_EUSART_SetFramingErrorHandler:
  3604  0070                     ?_EUSART_SetOverrunErrorHandler:	
  3605                           ; 1 bytes @ 0x0
  3606                           
  3607  0070                     ?_EUSART_SetErrorHandler:	
  3608                           ; 1 bytes @ 0x0
  3609                           
  3610  0070                     ?_PIN_MANAGER_Initialize:	
  3611                           ; 1 bytes @ 0x0
  3612                           
  3613  0070                     ??_PIN_MANAGER_Initialize:	
  3614                           ; 1 bytes @ 0x0
  3615                           
  3616  0070                     ?_OSCILLATOR_Initialize:	
  3617                           ; 1 bytes @ 0x0
  3618                           
  3619  0070                     ??_OSCILLATOR_Initialize:	
  3620                           ; 1 bytes @ 0x0
  3621                           
  3622  0070                     ?_WDT_Initialize:	
  3623                           ; 1 bytes @ 0x0
  3624                           
  3625  0070                     ??_WDT_Initialize:	
  3626                           ; 1 bytes @ 0x0
  3627                           
  3628  0070                     ?_ClearArray:	
  3629                           ; 1 bytes @ 0x0
  3630                           
  3631  0070                     ?_ReadBootloaderFlags:	
  3632                           ; 1 bytes @ 0x0
  3633                           
  3634  0070                     ?_WriteBootloaderFlags:	
  3635                           ; 1 bytes @ 0x0
  3636                           
  3637  0070                     ?_StartApp:	
  3638                           ; 1 bytes @ 0x0
  3639                           
  3640  0070                     ??_StartApp:	
  3641                           ; 1 bytes @ 0x0
  3642                           
  3643  0070                     ?_KeyBLRequired:	
  3644                           ; 1 bytes @ 0x0
  3645                           
  3646  0070                     ??_KeyBLRequired:	
  3647                           ; 1 bytes @ 0x0
  3648                           
  3649  0070                     ?_UART_preamFound:	
  3650                           ; 1 bytes @ 0x0
  3651                           
  3652  0070                     ??_UART_preamFound:	
  3653                           ; 1 bytes @ 0x0
  3654                           
  3655  0070                     ?_UART_byteRead:	
  3656                           ; 1 bytes @ 0x0
  3657                           
  3658  0070                     ??_UART_byteRead:	
  3659                           ; 1 bytes @ 0x0
  3660                           
  3661  0070                     ?_DefineError:	
  3662                           ; 1 bytes @ 0x0
  3663                           
  3664  0070                     ??_DefineError:	
  3665                           ; 1 bytes @ 0x0
  3666                           
  3667  0070                     ?_FLASH_Write:	
  3668                           ; 1 bytes @ 0x0
  3669                           
  3670  0070                     ?_SPI_Initialize:	
  3671                           ; 1 bytes @ 0x0
  3672                           
  3673  0070                     ??_SPI_Initialize:	
  3674                           ; 1 bytes @ 0x0
  3675                           
  3676  0070                     ?_SPI_Open:	
  3677                           ; 1 bytes @ 0x0
  3678                           
  3679  0070                     ??_SPI_Open:	
  3680                           ; 1 bytes @ 0x0
  3681                           
  3682  0070                     ?_SPI_Close:	
  3683                           ; 1 bytes @ 0x0
  3684                           
  3685  0070                     ??_SPI_Close:	
  3686                           ; 1 bytes @ 0x0
  3687                           
  3688  0070                     ?_SPI_ExchangeByte:	
  3689                           ; 1 bytes @ 0x0
  3690                           
  3691  0070                     ??_SPI_ExchangeByte:	
  3692                           ; 1 bytes @ 0x0
  3693                           
  3694  0070                     ?_EUSART_Initialize:	
  3695                           ; 1 bytes @ 0x0
  3696                           
  3697  0070                     ?_EUSART_is_tx_ready:	
  3698                           ; 1 bytes @ 0x0
  3699                           
  3700  0070                     ??_EUSART_is_tx_ready:	
  3701                           ; 1 bytes @ 0x0
  3702                           
  3703  0070                     ?_EUSART_is_rx_ready:	
  3704                           ; 1 bytes @ 0x0
  3705                           
  3706  0070                     ??_EUSART_is_rx_ready:	
  3707                           ; 1 bytes @ 0x0
  3708                           
  3709  0070                     ?_EUSART_is_tx_done:	
  3710                           ; 1 bytes @ 0x0
  3711                           
  3712  0070                     ??_EUSART_is_tx_done:	
  3713                           ; 1 bytes @ 0x0
  3714                           
  3715  0070                     ?_EUSART_Read:	
  3716                           ; 1 bytes @ 0x0
  3717                           
  3718  0070                     ??_EUSART_Read:	
  3719                           ; 1 bytes @ 0x0
  3720                           
  3721  0070                     ?_EUSART_Write:	
  3722                           ; 1 bytes @ 0x0
  3723                           
  3724  0070                     ??_EUSART_Write:	
  3725                           ; 1 bytes @ 0x0
  3726                           
  3727  0070                     ?_SYSTEM_Initialize:	
  3728                           ; 1 bytes @ 0x0
  3729                           
  3730  0070                     ?_main:	
  3731                           ; 1 bytes @ 0x0
  3732                           
  3733  0070                     ?_UnlockFlashWrite:	
  3734                           ; 1 bytes @ 0x0
  3735                           
  3736  0070                     ??_UnlockFlashWrite:	
  3737                           ; 1 bytes @ 0x0
  3738                           
  3739  0070                     ?_FLASH_Read:	
  3740                           ; 1 bytes @ 0x0
  3741                           
  3742  0070                     SPI_ExchangeByte@data:	
  3743                           ; 2 bytes @ 0x0
  3744                           
  3745  0070                     _EUSART_is_tx_ready$283:	
  3746                           ; 1 bytes @ 0x0
  3747                           
  3748  0070                     EUSART_Write@txData:	
  3749                           ; 1 bytes @ 0x0
  3750                           
  3751  0070                     EUSART_SetFramingErrorHandler@interruptHandler:	
  3752                           ; 1 bytes @ 0x0
  3753                           
  3754  0070                     EUSART_SetOverrunErrorHandler@interruptHandler:	
  3755                           ; 2 bytes @ 0x0
  3756                           
  3757  0070                     EUSART_SetErrorHandler@interruptHandler:	
  3758                           ; 2 bytes @ 0x0
  3759                           
  3760  0070                     ClearArray@array:	
  3761                           ; 2 bytes @ 0x0
  3762                           
  3763  0070                     FLASH_Read@addr:	
  3764                           ; 2 bytes @ 0x0
  3765                           
  3766  0070                     FLASH_Write@buffer:	
  3767                           ; 2 bytes @ 0x0
  3768                           
  3769                           
  3770                           ; 2 bytes @ 0x0
  3771  0070                     	ds	1
  3772  0071                     ?_UART_dataWrite:
  3773  0071                     ?_SPI_WriteBlock:	
  3774                           ; 1 bytes @ 0x1
  3775                           
  3776  0071                     ?_SPI_ReadBlock:	
  3777                           ; 1 bytes @ 0x1
  3778                           
  3779  0071                     DefineError@send_frame:	
  3780                           ; 1 bytes @ 0x1
  3781                           
  3782  0071                     UART_dataWrite@size:	
  3783                           ; 1 bytes @ 0x1
  3784                           
  3785  0071                     UART_preamFound@byte:	
  3786                           ; 1 bytes @ 0x1
  3787                           
  3788  0071                     SPI_WriteBlock@blockSize:	
  3789                           ; 1 bytes @ 0x1
  3790                           
  3791  0071                     SPI_ReadBlock@blockSize:	
  3792                           ; 2 bytes @ 0x1
  3793                           
  3794                           
  3795                           ; 2 bytes @ 0x1
  3796  0071                     	ds	1
  3797  0072                     ??_EUSART_SetFramingErrorHandler:
  3798  0072                     ??_EUSART_SetOverrunErrorHandler:	
  3799                           ; 1 bytes @ 0x2
  3800                           
  3801  0072                     ??_EUSART_SetErrorHandler:	
  3802                           ; 1 bytes @ 0x2
  3803                           
  3804  0072                     ??_ClearArray:	
  3805                           ; 1 bytes @ 0x2
  3806                           
  3807  0072                     ??_UART_dataWrite:	
  3808                           ; 1 bytes @ 0x2
  3809                           
  3810  0072                     ??_FLASH_Read:	
  3811                           ; 1 bytes @ 0x2
  3812                           
  3813  0072                     ??_FLASH_Write:	
  3814                           ; 1 bytes @ 0x2
  3815                           
  3816  0072                     ??_EUSART_Initialize:	
  3817                           ; 1 bytes @ 0x2
  3818                           
  3819  0072                     ??_SYSTEM_Initialize:	
  3820                           ; 1 bytes @ 0x2
  3821                           
  3822                           
  3823                           ; 1 bytes @ 0x2
  3824  0072                     	ds	1
  3825  0073                     ??_SPI_WriteBlock:
  3826  0073                     ??_SPI_ReadBlock:	
  3827                           ; 1 bytes @ 0x3
  3828                           
  3829  0073                     SPI_Open@spiUniqueConfiguration:	
  3830                           ; 1 bytes @ 0x3
  3831                           
  3832  0073                     UART_dataWrite@data_ptr:	
  3833                           ; 1 bytes @ 0x3
  3834                           
  3835                           
  3836                           ; 1 bytes @ 0x3
  3837  0073                     	ds	1
  3838  0074                     SPI_WriteBlock@data:
  3839  0074                     SPI_ReadBlock@block:	
  3840                           ; 1 bytes @ 0x4
  3841                           
  3842  0074                     ClearArray@i:	
  3843                           ; 1 bytes @ 0x4
  3844                           
  3845  0074                     UART_dataWrite@i:	
  3846                           ; 1 bytes @ 0x4
  3847                           
  3848  0074                     FLASH_Read@INR_state:	
  3849                           ; 1 bytes @ 0x4
  3850                           
  3851                           
  3852                           ; 1 bytes @ 0x4
  3853  0074                     	ds	1
  3854  0075                     ??_ReadBootloaderFlags:
  3855  0075                     ?_ReadFromMem:	
  3856                           ; 1 bytes @ 0x5
  3857                           
  3858  0075                     SPI_WriteBlock@block:	
  3859                           ; 1 bytes @ 0x5
  3860                           
  3861  0075                     SPI_ReadBlock@data:	
  3862                           ; 1 bytes @ 0x5
  3863                           
  3864  0075                     ReadFromMem@send_frame:	
  3865                           ; 1 bytes @ 0x5
  3866                           
  3867                           
  3868                           ; 1 bytes @ 0x5
  3869  0075                     	ds	1
  3870  0076                     ??_ReadFromMem:
  3871  0076                     ?_ReadFromSerialEEPROM:	
  3872                           ; 1 bytes @ 0x6
  3873                           
  3874  0076                     ?_WriteToSerialEEPROM:	
  3875                           ; 1 bytes @ 0x6
  3876                           
  3877  0076                     ReadFromSerialEEPROM@send_frame:	
  3878                           ; 1 bytes @ 0x6
  3879                           
  3880  0076                     WriteToSerialEEPROM@send_frame:	
  3881                           ; 1 bytes @ 0x6
  3882                           
  3883                           
  3884                           ; 1 bytes @ 0x6
  3885  0076                     	ds	1
  3886  0077                     ??_ReadFromSerialEEPROM:
  3887  0077                     ??_WriteToSerialEEPROM:	
  3888                           ; 1 bytes @ 0x7
  3889                           
  3890                           
  3891                           ; 1 bytes @ 0x7
  3892  0077                     	ds	2
  3893  0079                     FLASH_Write@INR_state:
  3894                           
  3895                           ; 1 bytes @ 0x9
  3896  0079                     	ds	1
  3897  007A                     FLASH_Write@writeAddr:
  3898                           
  3899                           ; 2 bytes @ 0xA
  3900  007A                     	ds	2
  3901  007C                     FLASH_Write@i:
  3902                           
  3903                           ; 1 bytes @ 0xC
  3904  007C                     	ds	1
  3905  007D                     ??_WriteBootloaderFlags:
  3906  007D                     ?_WriteToMem:	
  3907                           ; 1 bytes @ 0xD
  3908                           
  3909  007D                     WriteToMem@send_frame:	
  3910                           ; 1 bytes @ 0xD
  3911                           
  3912                           
  3913                           ; 1 bytes @ 0xD
  3914  007D                     	ds	1
  3915                           
  3916                           	psect	cstackBANK0
  3917  0020                     __pcstackBANK0:
  3918  0020                     ??_WriteToMem:
  3919  0020                     ReadFromMem@def_addr:	
  3920                           ; 1 bytes @ 0x0
  3921                           
  3922  0020                     ReadBootloaderFlags@buf:	
  3923                           ; 2 bytes @ 0x0
  3924                           
  3925  0020                     ReadFromSerialEEPROM@buffer:	
  3926                           ; 64 bytes @ 0x0
  3927                           
  3928  0020                     WriteToSerialEEPROM@buffer:	
  3929                           ; 64 bytes @ 0x0
  3930                           
  3931  0020                     WriteBootloaderFlags@buf:	
  3932                           ; 67 bytes @ 0x0
  3933                           
  3934                           
  3935                           ; 68 bytes @ 0x0
  3936  0020                     	ds	1
  3937  0021                     WriteToMem@recv_frame:
  3938                           
  3939                           ; 1 bytes @ 0x1
  3940  0021                     	ds	1
  3941  0022                     ReadFromMem@recv_frame:
  3942  0022                     WriteToMem@result:	
  3943                           ; 1 bytes @ 0x2
  3944                           
  3945                           
  3946                           ; 1 bytes @ 0x2
  3947  0022                     	ds	1
  3948  0023                     ReadFromMem@dbyte:
  3949                           
  3950                           ; 2 bytes @ 0x3
  3951  0023                     	ds	2
  3952  0025                     ReadFromMem@i:
  3953                           
  3954                           ; 1 bytes @ 0x5
  3955  0025                     	ds	59
  3956  0060                     ReadFromSerialEEPROM@SPI1:
  3957  0060                     ReadBootloaderFlags@dbyte:	
  3958                           ; 1 bytes @ 0x40
  3959                           
  3960                           
  3961                           ; 2 bytes @ 0x40
  3962  0060                     	ds	1
  3963  0061                     ReadFromSerialEEPROM@recv_frame:
  3964                           
  3965                           ; 1 bytes @ 0x41
  3966  0061                     	ds	1
  3967  0062                     ReadFromSerialEEPROM@i:
  3968  0062                     ReadBootloaderFlags@def_addr:	
  3969                           ; 1 bytes @ 0x42
  3970                           
  3971                           
  3972                           ; 2 bytes @ 0x42
  3973  0062                     	ds	1
  3974  0063                     WriteToSerialEEPROM@SPI1:
  3975                           
  3976                           ; 1 bytes @ 0x43
  3977  0063                     	ds	1
  3978  0064                     ReadBootloaderFlags@i:
  3979  0064                     WriteToSerialEEPROM@i:	
  3980                           ; 1 bytes @ 0x44
  3981                           
  3982  0064                     WriteBootloaderFlags@def_addr:	
  3983                           ; 1 bytes @ 0x44
  3984                           
  3985                           
  3986                           ; 2 bytes @ 0x44
  3987  0064                     	ds	1
  3988  0065                     WriteToSerialEEPROM@recv_frame:
  3989                           
  3990                           ; 1 bytes @ 0x45
  3991  0065                     	ds	1
  3992  0066                     WriteBootloaderFlags@dbyte:
  3993                           
  3994                           ; 2 bytes @ 0x46
  3995  0066                     	ds	2
  3996  0068                     WriteBootloaderFlags@i:
  3997                           
  3998                           ; 1 bytes @ 0x48
  3999  0068                     	ds	1
  4000  0069                     ??_main:
  4001                           
  4002                           ; 1 bytes @ 0x49
  4003  0069                     	ds	3
  4004  006C                     main@i:
  4005                           
  4006                           ; 1 bytes @ 0x4C
  4007  006C                     	ds	1
  4008  006D                     main@processing_status:
  4009                           
  4010                           ; 1 bytes @ 0x4D
  4011  006D                     	ds	1
  4012                           
  4013                           	psect	maintext
  4014  06E6                     __pmaintext:	
  4015 ;;
  4016 ;;Main: autosize = 0, tempsize = 2, incstack = 0, save=0
  4017 ;;
  4018 ;; *************** function _main *****************
  4019 ;; Defined at:
  4020 ;;		line 49 in file "main.c"
  4021 ;; Parameters:    Size  Location     Type
  4022 ;;		None
  4023 ;; Auto vars:     Size  Location     Type
  4024 ;;  recv_frame     68    0[BANK2 ] unsigned char [68]
  4025 ;;  send_frame     66    0[BANK1 ] unsigned char [66]
  4026 ;;  processing_s    1   77[BANK0 ] _Bool 
  4027 ;;  i               1   76[BANK0 ] unsigned char 
  4028 ;;  byte            1    0        unsigned char 
  4029 ;; Return value:  Size  Location     Type
  4030 ;;                  1    wreg      void 
  4031 ;; Registers used:
  4032 ;;		wreg, fsr0l, fsr0h, fsr1l, fsr1h, status,2, status,0, pclath, cstack
  4033 ;; Tracked objects:
  4034 ;;		On entry : B1F/0
  4035 ;;		On exit  : 0/0
  4036 ;;		Unchanged: 0/0
  4037 ;; Data sizes:     COMMON   BANK0   BANK1   BANK2   BANK3   BANK4   BANK5   BANK6   BANK7   BANK8   BANK9  BANK10  BANK1
      +1  BANK12  BANK13  BANK14  BANK15  BANK16  BANK17  BANK18  BANK19  BANK20  BANK21  BANK22  BANK23  BANK24  BANK25
  4038 ;;      Params:         0       0       0       0       0       0       0       0       0       0       0       0       
      +0       0       0       0       0       0       0       0       0       0       0       0       0       0       0
  4039 ;;      Locals:         0       3      66      68       0       0       0       0       0       0       0       0       
      +0       0       0       0       0       0       0       0       0       0       0       0       0       0       0
  4040 ;;      Temps:          0       2       0       0       0       0       0       0       0       0       0       0       
      +0       0       0       0       0       0       0       0       0       0       0       0       0       0       0
  4041 ;;      Totals:         0       5      66      68       0       0       0       0       0       0       0       0       
      +0       0       0       0       0       0       0       0       0       0       0       0       0       0       0
  4042 ;;Total ram usage:      139 bytes
  4043 ;; Hardware stack levels required when called:    3
  4044 ;; This function calls:
  4045 ;;		_ClearArray
  4046 ;;		_DefineError
  4047 ;;		_KeyBLRequired
  4048 ;;		_ReadBootloaderFlags
  4049 ;;		_ReadFromMem
  4050 ;;		_ReadFromSerialEEPROM
  4051 ;;		_SYSTEM_Initialize
  4052 ;;		_StartApp
  4053 ;;		_UART_byteRead
  4054 ;;		_UART_dataWrite
  4055 ;;		_UART_preamFound
  4056 ;;		_WriteBootloaderFlags
  4057 ;;		_WriteToMem
  4058 ;;		_WriteToSerialEEPROM
  4059 ;; This function is called by:
  4060 ;;		Startup code after reset
  4061 ;; This function uses a non-reentrant model
  4062 ;;
  4063                           
  4064                           
  4065                           ;psect for function _main
  4066  06E6                     _main:
  4067  06E6                     l2407:	
  4068                           ;incstack = 0
  4069                           ; Regs used in _main: [wreg-fsr1h+status,2+status,0+pclath+cstack]
  4070                           
  4071                           
  4072                           ;main.c: 53:     SYSTEM_Initialize();
  4073  06E6  3182  220D  3186   	fcall	_SYSTEM_Initialize
  4074  06E9                     l2409:
  4075  06E9                     l2411:
  4076  06E9                     l2413:
  4077                           
  4078                           ;main.c: 59:     _Bool processing_status = 0;
  4079  06E9  0020               	movlb	0	; select bank0
  4080  06EA  01ED               	clrf	main@processing_status
  4081  06EB                     l2415:
  4082                           
  4083                           ;main.c: 61:     ClearArray(recv_frame);
  4084  06EB  3020               	movlw	low main@recv_frame
  4085  06EC  00F0               	movwf	ClearArray@array
  4086  06ED  3001               	movlw	high main@recv_frame
  4087  06EE  00F1               	movwf	ClearArray@array+1
  4088  06EF  3182  222E  3186   	fcall	_ClearArray
  4089  06F2                     l2417:
  4090                           
  4091                           ;main.c: 62:     ClearArray(send_frame);
  4092  06F2  30A0               	movlw	low main@send_frame
  4093  06F3  00F0               	movwf	ClearArray@array
  4094  06F4  3000               	movlw	high main@send_frame
  4095  06F5  00F1               	movwf	ClearArray@array+1
  4096  06F6  3182  222E  3186   	fcall	_ClearArray
  4097  06F9                     l2419:
  4098                           
  4099                           ;main.c: 66:     TRISA = 0x00;
  4100  06F9  0021               	movlb	1	; select bank1
  4101  06FA  018C               	clrf	12	;volatile
  4102  06FB                     l2421:
  4103                           
  4104                           ;main.c: 67:     TRISB = 0x03;
  4105  06FB  3003               	movlw	3
  4106  06FC  008D               	movwf	13	;volatile
  4107  06FD                     l2423:
  4108                           
  4109                           ;main.c: 68:     TRISE = 0x00;
  4110  06FD  0190               	clrf	16	;volatile
  4111  06FE                     l2425:
  4112                           
  4113                           ;main.c: 70:     LATA = 0xFF;
  4114  06FE  30FF               	movlw	255
  4115  06FF  0022               	movlb	2	; select bank2
  4116  0700  008C               	movwf	12	;volatile
  4117  0701                     l2427:
  4118                           
  4119                           ;main.c: 71:     LATE = 0x00;
  4120  0701  0190               	clrf	16	;volatile
  4121  0702                     l2429:
  4122                           
  4123                           ;main.c: 89:     ReadBootloaderFlags();
  4124  0702  3184  2486  3186   	fcall	_ReadBootloaderFlags
  4125  0705                     l2431:
  4126                           
  4127                           ;main.c: 91:     if (BLFlags.IsExtUpgrade){
  4128  0705  0022               	movlb	2	; select bank2
  4129  0706  0865               	movf	(_BLFlags^(0+256)+1),w
  4130  0707  1903               	btfsc	3,2
  4131  0708  2F0A               	goto	u761
  4132  0709  2F0B               	goto	u760
  4133  070A                     u761:
  4134  070A  2F12               	goto	l2439
  4135  070B                     u760:
  4136  070B                     l2433:
  4137                           
  4138                           ;main.c: 93:         BLFlags.IsExtUpgrade = 0;
  4139  070B  01E5               	clrf	(_BLFlags^(0+256)+1)
  4140  070C                     l2435:
  4141                           
  4142                           ;main.c: 94:         WriteBootloaderFlags();
  4143  070C  3184  2420  3186   	fcall	_WriteBootloaderFlags
  4144  070F                     l2437:
  4145                           
  4146                           ;main.c: 95:         StartApp();
  4147  070F  3181  218F  3186   	fcall	_StartApp
  4148  0712                     l2439:
  4149                           
  4150                           ;main.c: 98:     if (!KeyBLRequired() && !BLFlags.IsBLStart){
  4151  0712  3181  21BA  3186   	fcall	_KeyBLRequired
  4152  0715  3A00               	xorlw	0
  4153  0716  1D03               	skipz
  4154  0717  2F19               	goto	u771
  4155  0718  2F1A               	goto	u770
  4156  0719                     u771:
  4157  0719  2F23               	goto	l2445
  4158  071A                     u770:
  4159  071A                     l2441:
  4160  071A  0022               	movlb	2	; select bank2
  4161  071B  0864               	movf	_BLFlags^(0+256),w
  4162  071C  1D03               	btfss	3,2
  4163  071D  2F1F               	goto	u781
  4164  071E  2F20               	goto	u780
  4165  071F                     u781:
  4166  071F  2F23               	goto	l2445
  4167  0720                     u780:
  4168  0720                     l2443:
  4169                           
  4170                           ;main.c: 99:         StartApp();
  4171  0720  3181  218F  3186   	fcall	_StartApp
  4172  0723                     l2445:
  4173                           
  4174                           ;main.c: 104:     BLFlags.IsBLStart = 0;
  4175  0723  0022               	movlb	2	; select bank2
  4176  0724  01E4               	clrf	_BLFlags^(0+256)
  4177  0725                     l2447:
  4178                           
  4179                           ;main.c: 105:     WriteBootloaderFlags();
  4180  0725  3184  2420  3186   	fcall	_WriteBootloaderFlags
  4181  0728                     l2449:
  4182  0728  0022               	movlb	2	; select bank2
  4183  0729  1410               	bsf	16,0	;volatile
  4184  072A                     l311:	
  4185                           ;main.c: 109:     while (1)
  4186                           
  4187  072A  0064               	clrwdt	;# 
  4188  072B                     l2451:
  4189                           
  4190                           ;main.c: 115:         if (UART_preamFound())
  4191  072B  3182  2245  3186   	fcall	_UART_preamFound
  4192  072E  3A00               	xorlw	0
  4193  072F  1903               	skipnz
  4194  0730  2F32               	goto	u791
  4195  0731  2F33               	goto	u790
  4196  0732                     u791:
  4197  0732  2F2A               	goto	l311
  4198  0733                     u790:
  4199  0733                     l313:	
  4200                           ;main.c: 116:             {;main.c: 117:             do { LATEbits.LATE1 = 1; } while(0)
      +                          ;
  4201                           
  4202  0733  0022               	movlb	2	; select bank2
  4203  0734  1490               	bsf	16,1	;volatile
  4204  0735                     l314:
  4205  0735  0064               	clrwdt	;# 
  4206  0736                     l2453:
  4207                           
  4208                           ;main.c: 120:             recv_frame[0] = UART_byteRead();
  4209  0736  3181  2193  3186   	fcall	_UART_byteRead
  4210  0739  0020               	movlb	0	; select bank0
  4211  073A  00E9               	movwf	??_main
  4212  073B  0869               	movf	??_main,w
  4213  073C  0022               	movlb	2	; select bank2
  4214  073D  00A0               	movwf	main@recv_frame^(0+256)
  4215  073E                     l2455:
  4216                           
  4217                           ;main.c: 121:             if ((recv_frame[0] > 68) || (recv_frame[0] == 0x00 ))
  4218  073E  3045               	movlw	69
  4219  073F  0220               	subwf	main@recv_frame^(0+256),w
  4220  0740  1803               	skipnc
  4221  0741  2F43               	goto	u801
  4222  0742  2F44               	goto	u800
  4223  0743                     u801:
  4224  0743  2F49               	goto	l2459
  4225  0744                     u800:
  4226  0744                     l2457:
  4227  0744  0820               	movf	main@recv_frame^(0+256),w
  4228  0745  1D03               	btfss	3,2
  4229  0746  2F48               	goto	u811
  4230  0747  2F49               	goto	u810
  4231  0748                     u811:
  4232  0748  2F4B               	goto	l315
  4233  0749                     u810:
  4234  0749                     l2459:
  4235                           
  4236                           ;main.c: 122:                 {;main.c: 123:                 recv_frame[1] = 0x00;
  4237  0749  01A1               	clrf	(main@recv_frame^(0+256)+1)
  4238                           
  4239                           ;main.c: 124:                 }
  4240  074A  2FA9               	goto	l2479
  4241  074B                     l315:	
  4242                           ;main.c: 125:             else{
  4243                           
  4244                           
  4245                           ;main.c: 126:                 for (i = 1; i != recv_frame[0]; i++)
  4246  074B  0020               	movlb	0	; select bank0
  4247  074C  01EC               	clrf	main@i
  4248  074D  0AEC               	incf	main@i,f
  4249  074E  2F5F               	goto	l2465
  4250  074F                     l2461:
  4251                           
  4252                           ;main.c: 127:                     {;main.c: 128:                     recv_frame[i] = UAR
      +                          T_byteRead();
  4253  074F  3181  2193  3186   	fcall	_UART_byteRead
  4254  0752  0020               	movlb	0	; select bank0
  4255  0753  00E9               	movwf	??_main
  4256  0754  086C               	movf	main@i,w
  4257  0755  3E20               	addlw	(low (main@recv_frame| (0+256)))& (0+255)
  4258  0756  0086               	movwf	6
  4259  0757  3001               	movlw	1	; select bank2/3
  4260  0758  0087               	movwf	7
  4261  0759  0869               	movf	??_main,w
  4262  075A  0081               	movwf	1
  4263  075B                     l2463:
  4264                           
  4265                           ;main.c: 129:                     }
  4266  075B  3001               	movlw	1
  4267  075C  00E9               	movwf	??_main
  4268  075D  0869               	movf	??_main,w
  4269  075E  07EC               	addwf	main@i,f
  4270  075F                     l2465:
  4271  075F  0022               	movlb	2	; select bank2
  4272  0760  0820               	movf	main@recv_frame^(0+256),w
  4273  0761  0020               	movlb	0	; select bank0
  4274  0762  066C               	xorwf	main@i,w
  4275  0763  1D03               	skipz
  4276  0764  2F66               	goto	u821
  4277  0765  2F67               	goto	u820
  4278  0766                     u821:
  4279  0766  2F4F               	goto	l2461
  4280  0767                     u820:
  4281  0767  2FA9               	goto	l2479
  4282  0768                     l2467:
  4283                           
  4284                           ;main.c: 141:                     processing_status = ReadFromMem(recv_frame, send_frame
      +                          );
  4285  0768  30A0               	movlw	(low (main@send_frame| 0))& (0+255)
  4286  0769  00E9               	movwf	??_main
  4287  076A  0869               	movf	??_main,w
  4288  076B  00F5               	movwf	ReadFromMem@send_frame
  4289  076C  3020               	movlw	(low (main@recv_frame| (0+256)))& (0+255)
  4290  076D  3184  24F2  3186   	fcall	_ReadFromMem
  4291  0770  0020               	movlb	0	; select bank0
  4292  0771  00EA               	movwf	??_main+1
  4293  0772  086A               	movf	??_main+1,w
  4294  0773  00ED               	movwf	main@processing_status
  4295                           
  4296                           ;main.c: 142:                     break;
  4297  0774  2FC4               	goto	l2481
  4298  0775                     l2469:
  4299                           
  4300                           ;main.c: 149:                     processing_status = WriteToMem(recv_frame, send_frame)
      +                          ;
  4301  0775  30A0               	movlw	(low (main@send_frame| 0))& (0+255)
  4302  0776  00E9               	movwf	??_main
  4303  0777  0869               	movf	??_main,w
  4304  0778  00FD               	movwf	WriteToMem@send_frame
  4305  0779  3020               	movlw	(low (main@recv_frame| (0+256)))& (0+255)
  4306  077A  3182  229C  3186   	fcall	_WriteToMem
  4307  077D  0020               	movlb	0	; select bank0
  4308  077E  00EA               	movwf	??_main+1
  4309  077F  086A               	movf	??_main+1,w
  4310  0780  00ED               	movwf	main@processing_status
  4311                           
  4312                           ;main.c: 150:                     break;
  4313  0781  2FC4               	goto	l2481
  4314  0782                     l2471:
  4315                           
  4316                           ;main.c: 153:                     processing_status = ReadFromSerialEEPROM(recv_frame, s
      +                          end_frame);
  4317  0782  30A0               	movlw	(low (main@send_frame| 0))& (0+255)
  4318  0783  00E9               	movwf	??_main
  4319  0784  0869               	movf	??_main,w
  4320  0785  00F6               	movwf	ReadFromSerialEEPROM@send_frame
  4321  0786  3020               	movlw	(low (main@recv_frame| (0+256)))& (0+255)
  4322  0787  3183  23C5  3186   	fcall	_ReadFromSerialEEPROM
  4323  078A  0020               	movlb	0	; select bank0
  4324  078B  00EA               	movwf	??_main+1
  4325  078C  086A               	movf	??_main+1,w
  4326  078D  00ED               	movwf	main@processing_status
  4327                           
  4328                           ;main.c: 154:                     break;
  4329  078E  2FC4               	goto	l2481
  4330  078F                     l2473:
  4331                           
  4332                           ;main.c: 157:                     processing_status = WriteToSerialEEPROM(recv_frame, se
      +                          nd_frame);
  4333  078F  30A0               	movlw	(low (main@send_frame| 0))& (0+255)
  4334  0790  00E9               	movwf	??_main
  4335  0791  0869               	movf	??_main,w
  4336  0792  00F6               	movwf	WriteToSerialEEPROM@send_frame
  4337  0793  3020               	movlw	(low (main@recv_frame| (0+256)))& (0+255)
  4338  0794  3186  2634  3186   	fcall	_WriteToSerialEEPROM
  4339  0797  0020               	movlb	0	; select bank0
  4340  0798  00EA               	movwf	??_main+1
  4341  0799  086A               	movf	??_main+1,w
  4342  079A  00ED               	movwf	main@processing_status
  4343                           
  4344                           ;main.c: 158:                     break;
  4345  079B  2FC4               	goto	l2481
  4346  079C                     l2475:
  4347                           
  4348                           ;main.c: 161:                     StartApp();
  4349  079C  3181  218F  3186   	fcall	_StartApp
  4350                           
  4351                           ;main.c: 162:                     break;
  4352  079F  2FC4               	goto	l2481
  4353  07A0                     l2477:
  4354                           
  4355                           ;main.c: 165:                     processing_status = DefineError(send_frame);
  4356  07A0  30A0               	movlw	(low (main@send_frame| 0))& (0+255)
  4357  07A1  3182  221D  3186   	fcall	_DefineError
  4358  07A4  0020               	movlb	0	; select bank0
  4359  07A5  00E9               	movwf	??_main
  4360  07A6  0869               	movf	??_main,w
  4361  07A7  00ED               	movwf	main@processing_status
  4362                           
  4363                           ;main.c: 166:                 }
  4364  07A8  2FC4               	goto	l2481
  4365  07A9                     l2479:
  4366  07A9  0022               	movlb	2	; select bank2
  4367  07AA  0821               	movf	(main@recv_frame^(0+256)+1),w
  4368  07AB  0020               	movlb	0	; select bank0
  4369  07AC  00E9               	movwf	??_main
  4370  07AD  01EA               	clrf	??_main+1
  4371                           
  4372                           ; Switch on 2 bytes has been partitioned into a top level switch of size 1, and 1 sub-sw
      +                          itches
  4373                           ; Switch size 1, requested type "simple"
  4374                           ; Number of cases is 1, Range of values is 0 to 0
  4375                           ; switch strategies available:
  4376                           ; Name         Instructions Cycles
  4377                           ; simple_byte            4     3 (average)
  4378                           ; direct_byte            8     6 (fixed)
  4379                           ; jumptable            260     6 (fixed)
  4380                           ;	Chosen strategy is simple_byte
  4381  07AE  086A               	movf	??_main+1,w
  4382  07AF  3A00               	xorlw	0	; case 0
  4383  07B0  1903               	skipnz
  4384  07B1  2FB3               	goto	l2519
  4385  07B2  2FA0               	goto	l2477
  4386  07B3                     l2519:
  4387                           
  4388                           ; Switch size 1, requested type "simple"
  4389                           ; Number of cases is 5, Range of values is 2 to 20
  4390                           ; switch strategies available:
  4391                           ; Name         Instructions Cycles
  4392                           ; simple_byte           16     9 (average)
  4393                           ; direct_byte           47     9 (fixed)
  4394                           ; jumptable            263     9 (fixed)
  4395                           ;	Chosen strategy is simple_byte
  4396  07B3  0869               	movf	??_main,w
  4397  07B4  3A02               	xorlw	2	; case 2
  4398  07B5  1903               	skipnz
  4399  07B6  2F68               	goto	l2467
  4400  07B7  3A06               	xorlw	6	; case 4
  4401  07B8  1903               	skipnz
  4402  07B9  2F75               	goto	l2469
  4403  07BA  3A0B               	xorlw	11	; case 15
  4404  07BB  1903               	skipnz
  4405  07BC  2F9C               	goto	l2475
  4406  07BD  3A1D               	xorlw	29	; case 18
  4407  07BE  1903               	skipnz
  4408  07BF  2F82               	goto	l2471
  4409  07C0  3A06               	xorlw	6	; case 20
  4410  07C1  1903               	skipnz
  4411  07C2  2F8F               	goto	l2473
  4412  07C3  2FA0               	goto	l2477
  4413  07C4                     l2481:
  4414                           
  4415                           ;main.c: 169:             if (!((processing_status == 1) && (send_frame[0] != 0x00)))
  4416  07C4  0020               	movlb	0	; select bank0
  4417  07C5  036D               	decf	main@processing_status,w
  4418  07C6  1D03               	btfss	3,2
  4419  07C7  2FC9               	goto	u831
  4420  07C8  2FCA               	goto	u830
  4421  07C9                     u831:
  4422  07C9  2FD0               	goto	l2485
  4423  07CA                     u830:
  4424  07CA                     l2483:
  4425  07CA  0021               	movlb	1	; select bank1
  4426  07CB  0820               	movf	main@send_frame^(0+128),w
  4427  07CC  1D03               	btfss	3,2
  4428  07CD  2FCF               	goto	u841
  4429  07CE  2FD0               	goto	u840
  4430  07CF                     u841:
  4431  07CF  2FD4               	goto	l330
  4432  07D0                     u840:
  4433  07D0                     l2485:
  4434                           
  4435                           ;main.c: 170:                 {;main.c: 171:                 DefineError(send_frame);
  4436  07D0  30A0               	movlw	(low (main@send_frame| 0))& (0+255)
  4437  07D1  3182  221D  3186   	fcall	_DefineError
  4438  07D4                     l330:	
  4439                           ;main.c: 172:                 }
  4440                           
  4441                           
  4442                           ;main.c: 174:                 UART_dataWrite(send_frame, send_frame[0]);
  4443  07D4  0021               	movlb	1	; select bank1
  4444  07D5  0820               	movf	main@send_frame^(0+128),w
  4445  07D6  0020               	movlb	0	; select bank0
  4446  07D7  00E9               	movwf	??_main
  4447  07D8  0869               	movf	??_main,w
  4448  07D9  00F1               	movwf	UART_dataWrite@size
  4449  07DA  30A0               	movlw	(low (main@send_frame| 0))& (0+255)
  4450  07DB  3183  230A  3186   	fcall	_UART_dataWrite
  4451  07DE                     l2487:
  4452                           
  4453                           ;main.c: 175:                 processing_status = 0;
  4454  07DE  0020               	movlb	0	; select bank0
  4455  07DF  01ED               	clrf	main@processing_status
  4456  07E0                     l2489:
  4457                           
  4458                           ;main.c: 176:             ClearArray(recv_frame);
  4459  07E0  3020               	movlw	low main@recv_frame
  4460  07E1  00F0               	movwf	ClearArray@array
  4461  07E2  3001               	movlw	high main@recv_frame
  4462  07E3  00F1               	movwf	ClearArray@array+1
  4463  07E4  3182  222E  3186   	fcall	_ClearArray
  4464  07E7                     l2491:
  4465                           
  4466                           ;main.c: 177:             ClearArray(send_frame);
  4467  07E7  30A0               	movlw	low main@send_frame
  4468  07E8  00F0               	movwf	ClearArray@array
  4469  07E9  3000               	movlw	high main@send_frame
  4470  07EA  00F1               	movwf	ClearArray@array+1
  4471  07EB  3182  222E  3186   	fcall	_ClearArray
  4472  07EE                     l2493:
  4473  07EE  0022               	movlb	2	; select bank2
  4474  07EF  1090               	bcf	16,1	;volatile
  4475  07F0  2F2A               	goto	l311
  4476  07F1  3180  2802         	ljmp	start
  4477  07F3                     __end_of_main:
  4478                           
  4479                           	psect	text1
  4480  0634                     __ptext1:	
  4481 ;; *************** function _WriteToSerialEEPROM *****************
  4482 ;; Defined at:
  4483 ;;		line 30 in file "apps/src/eeprom_25lc512.c"
  4484 ;; Parameters:    Size  Location     Type
  4485 ;;  recv_frame      1    wreg     PTR unsigned char 
  4486 ;;		 -> main@recv_frame(68), 
  4487 ;;  send_frame      1    6[COMMON] PTR unsigned char 
  4488 ;;		 -> main@send_frame(66), 
  4489 ;; Auto vars:     Size  Location     Type
  4490 ;;  recv_frame      1   69[BANK0 ] PTR unsigned char 
  4491 ;;		 -> main@recv_frame(68), 
  4492 ;;  buffer         67    0[BANK0 ] unsigned char [67]
  4493 ;;  i               1   68[BANK0 ] unsigned char 
  4494 ;;  SPI1            1   67[BANK0 ] enum E6331
  4495 ;; Return value:  Size  Location     Type
  4496 ;;                  1    wreg      _Bool 
  4497 ;; Registers used:
  4498 ;;		wreg, fsr0l, fsr0h, fsr1l, fsr1h, status,2, status,0, pclath, cstack
  4499 ;; Tracked objects:
  4500 ;;		On entry : 0/0
  4501 ;;		On exit  : 0/0
  4502 ;;		Unchanged: 0/0
  4503 ;; Data sizes:     COMMON   BANK0   BANK1   BANK2   BANK3   BANK4   BANK5   BANK6   BANK7   BANK8   BANK9  BANK10  BANK1
      +1  BANK12  BANK13  BANK14  BANK15  BANK16  BANK17  BANK18  BANK19  BANK20  BANK21  BANK22  BANK23  BANK24  BANK25
  4504 ;;      Params:         1       0       0       0       0       0       0       0       0       0       0       0       
      +0       0       0       0       0       0       0       0       0       0       0       0       0       0       0
  4505 ;;      Locals:         0      70       0       0       0       0       0       0       0       0       0       0       
      +0       0       0       0       0       0       0       0       0       0       0       0       0       0       0
  4506 ;;      Temps:          2       0       0       0       0       0       0       0       0       0       0       0       
      +0       0       0       0       0       0       0       0       0       0       0       0       0       0       0
  4507 ;;      Totals:         3      70       0       0       0       0       0       0       0       0       0       0       
      +0       0       0       0       0       0       0       0       0       0       0       0       0       0       0
  4508 ;;Total ram usage:       73 bytes
  4509 ;; Hardware stack levels used:    1
  4510 ;; Hardware stack levels required when called:    2
  4511 ;; This function calls:
  4512 ;;		_SPI_Close
  4513 ;;		_SPI_Open
  4514 ;;		_SPI_WriteBlock
  4515 ;; This function is called by:
  4516 ;;		_main
  4517 ;; This function uses a non-reentrant model
  4518 ;;
  4519                           
  4520                           
  4521                           ;psect for function _WriteToSerialEEPROM
  4522  0634                     _WriteToSerialEEPROM:
  4523                           
  4524                           ;incstack = 0
  4525                           ; Regs used in _WriteToSerialEEPROM: [wreg-fsr1h+status,2+status,0+pclath+cstack]
  4526                           ;WriteToSerialEEPROM@recv_frame stored from wreg
  4527  0634  0020               	movlb	0	; select bank0
  4528  0635  00E5               	movwf	WriteToSerialEEPROM@recv_frame
  4529  0636                     l2311:
  4530  0636                     l2313:
  4531                           
  4532                           ;apps/src/eeprom_25lc512.c: 32:  uint8_t buffer[0x43];;apps/src/eeprom_25lc512.c: 33:   
      +                            spi_modes_t SPI1;;apps/src/eeprom_25lc512.c: 35:     SPI_Open(SPI1);
  4533  0636  0863               	movf	WriteToSerialEEPROM@SPI1,w
  4534  0637  3183  2376  3186   	fcall	_SPI_Open
  4535  063A                     l2315:
  4536                           
  4537                           ;apps/src/eeprom_25lc512.c: 37:     buffer[0] = 0x06;
  4538  063A  3006               	movlw	6
  4539  063B  00F7               	movwf	??_WriteToSerialEEPROM
  4540  063C  0877               	movf	??_WriteToSerialEEPROM,w
  4541  063D  0020               	movlb	0	; select bank0
  4542  063E  00A0               	movwf	WriteToSerialEEPROM@buffer
  4543  063F                     l2317:
  4544  063F  0022               	movlb	2	; select bank2
  4545  0640  100C               	bcf	12,0	;volatile
  4546  0641                     l2319:
  4547                           
  4548                           ;apps/src/eeprom_25lc512.c: 39:     SPI_WriteBlock(buffer, 0x01);
  4549  0641  3001               	movlw	1
  4550  0642  00F1               	movwf	SPI_WriteBlock@blockSize
  4551  0643  3000               	movlw	0
  4552  0644  00F2               	movwf	SPI_WriteBlock@blockSize+1
  4553  0645  3020               	movlw	(low (WriteToSerialEEPROM@buffer| 0))& (0+255)
  4554  0646  3182  225D  3186   	fcall	_SPI_WriteBlock
  4555  0649                     l2321:
  4556  0649  0022               	movlb	2	; select bank2
  4557  064A  140C               	bsf	12,0	;volatile
  4558  064B                     l2323:
  4559                           
  4560                           ;apps/src/eeprom_25lc512.c: 41:     _delay((unsigned long)((0x0A)*(16000000/4000.0)));
  4561  064B  3034               	movlw	52
  4562  064C  00F7               	movwf	??_WriteToSerialEEPROM
  4563  064D  30F2               	movlw	242
  4564  064E                     u857:
  4565  064E  0B89               	decfsz	9,f
  4566  064F  2E4E               	goto	u857
  4567  0650  0BF7               	decfsz	??_WriteToSerialEEPROM,f
  4568  0651  2E4E               	goto	u857
  4569  0652                     l2325:
  4570                           
  4571                           ;apps/src/eeprom_25lc512.c: 43:     buffer[0] = 0x42;
  4572  0652  3042               	movlw	66
  4573  0653  00F7               	movwf	??_WriteToSerialEEPROM
  4574  0654  0877               	movf	??_WriteToSerialEEPROM,w
  4575  0655  0020               	movlb	0	; select bank0
  4576  0656  00A0               	movwf	WriteToSerialEEPROM@buffer
  4577  0657                     l2327:
  4578                           
  4579                           ;apps/src/eeprom_25lc512.c: 44:     buffer[1] = recv_frame[2];
  4580  0657  0865               	movf	WriteToSerialEEPROM@recv_frame,w
  4581  0658  0086               	movwf	6
  4582  0659  3001               	movlw	1	; select bank2/3
  4583  065A  0087               	movwf	7
  4584  065B  3001               	movlw	1	; select bank2/3
  4585  065C  3F42               	moviw [2]fsr1
  4586  065D  00A1               	movwf	WriteToSerialEEPROM@buffer+1
  4587  065E                     l2329:
  4588                           
  4589                           ;apps/src/eeprom_25lc512.c: 45:     buffer[2] = recv_frame[3];
  4590  065E  0865               	movf	WriteToSerialEEPROM@recv_frame,w
  4591  065F  0086               	movwf	6
  4592  0660  3001               	movlw	1	; select bank2/3
  4593  0661  0087               	movwf	7
  4594  0662  3001               	movlw	1	; select bank2/3
  4595  0663  3F43               	moviw [3]fsr1
  4596  0664  00A2               	movwf	WriteToSerialEEPROM@buffer+2
  4597  0665                     l2331:
  4598  0665  0022               	movlb	2	; select bank2
  4599  0666  100C               	bcf	12,0	;volatile
  4600  0667                     l2333:
  4601                           
  4602                           ;apps/src/eeprom_25lc512.c: 47:     SPI_WriteBlock(buffer, 0x03);
  4603  0667  3003               	movlw	3
  4604  0668  00F1               	movwf	SPI_WriteBlock@blockSize
  4605  0669  3000               	movlw	0
  4606  066A  00F2               	movwf	SPI_WriteBlock@blockSize+1
  4607  066B  3020               	movlw	(low (WriteToSerialEEPROM@buffer| 0))& (0+255)
  4608  066C  3182  225D  3186   	fcall	_SPI_WriteBlock
  4609  066F                     l2335:
  4610  066F  0022               	movlb	2	; select bank2
  4611  0670  140C               	bsf	12,0	;volatile
  4612  0671                     l2337:
  4613                           
  4614                           ;apps/src/eeprom_25lc512.c: 49:     _delay((unsigned long)((0x0A)*(16000000/4000.0)));
  4615  0671  3034               	movlw	52
  4616  0672  00F7               	movwf	??_WriteToSerialEEPROM
  4617  0673  30F2               	movlw	242
  4618  0674                     u867:
  4619  0674  0B89               	decfsz	9,f
  4620  0675  2E74               	goto	u867
  4621  0676  0BF7               	decfsz	??_WriteToSerialEEPROM,f
  4622  0677  2E74               	goto	u867
  4623  0678                     l2339:
  4624                           
  4625                           ;apps/src/eeprom_25lc512.c: 51:     buffer[0] = 0x06;
  4626  0678  3006               	movlw	6
  4627  0679  00F7               	movwf	??_WriteToSerialEEPROM
  4628  067A  0877               	movf	??_WriteToSerialEEPROM,w
  4629  067B  0020               	movlb	0	; select bank0
  4630  067C  00A0               	movwf	WriteToSerialEEPROM@buffer
  4631  067D                     l2341:
  4632  067D  0022               	movlb	2	; select bank2
  4633  067E  100C               	bcf	12,0	;volatile
  4634  067F                     l2343:
  4635                           
  4636                           ;apps/src/eeprom_25lc512.c: 53:     SPI_WriteBlock(buffer, 0x01);
  4637  067F  3001               	movlw	1
  4638  0680  00F1               	movwf	SPI_WriteBlock@blockSize
  4639  0681  3000               	movlw	0
  4640  0682  00F2               	movwf	SPI_WriteBlock@blockSize+1
  4641  0683  3020               	movlw	(low (WriteToSerialEEPROM@buffer| 0))& (0+255)
  4642  0684  3182  225D  3186   	fcall	_SPI_WriteBlock
  4643  0687                     l2345:
  4644  0687  0022               	movlb	2	; select bank2
  4645  0688  140C               	bsf	12,0	;volatile
  4646  0689                     l2347:
  4647                           
  4648                           ;apps/src/eeprom_25lc512.c: 55:     _delay((unsigned long)((0x0A)*(16000000/4000.0)));
  4649  0689  3034               	movlw	52
  4650  068A  00F7               	movwf	??_WriteToSerialEEPROM
  4651  068B  30F2               	movlw	242
  4652  068C                     u877:
  4653  068C  0B89               	decfsz	9,f
  4654  068D  2E8C               	goto	u877
  4655  068E  0BF7               	decfsz	??_WriteToSerialEEPROM,f
  4656  068F  2E8C               	goto	u877
  4657  0690                     l2349:
  4658                           
  4659                           ;apps/src/eeprom_25lc512.c: 57:     buffer[0] = 0x02;
  4660  0690  3002               	movlw	2
  4661  0691  00F7               	movwf	??_WriteToSerialEEPROM
  4662  0692  0877               	movf	??_WriteToSerialEEPROM,w
  4663  0693  0020               	movlb	0	; select bank0
  4664  0694  00A0               	movwf	WriteToSerialEEPROM@buffer
  4665  0695                     l2351:
  4666                           
  4667                           ;apps/src/eeprom_25lc512.c: 58:     buffer[1] = recv_frame[2];
  4668  0695  0865               	movf	WriteToSerialEEPROM@recv_frame,w
  4669  0696  0086               	movwf	6
  4670  0697  3001               	movlw	1	; select bank2/3
  4671  0698  0087               	movwf	7
  4672  0699  3001               	movlw	1	; select bank2/3
  4673  069A  3F42               	moviw [2]fsr1
  4674  069B  00A1               	movwf	WriteToSerialEEPROM@buffer+1
  4675  069C                     l2353:
  4676                           
  4677                           ;apps/src/eeprom_25lc512.c: 59:     buffer[2] = recv_frame[3];
  4678  069C  0865               	movf	WriteToSerialEEPROM@recv_frame,w
  4679  069D  0086               	movwf	6
  4680  069E  3001               	movlw	1	; select bank2/3
  4681  069F  0087               	movwf	7
  4682  06A0  3001               	movlw	1	; select bank2/3
  4683  06A1  3F43               	moviw [3]fsr1
  4684  06A2  00A2               	movwf	WriteToSerialEEPROM@buffer+2
  4685  06A3                     l2355:
  4686                           
  4687                           ;apps/src/eeprom_25lc512.c: 60:  for (i = 3; i != 0x43; i++){
  4688  06A3  3003               	movlw	3
  4689  06A4  00F7               	movwf	??_WriteToSerialEEPROM
  4690  06A5  0877               	movf	??_WriteToSerialEEPROM,w
  4691  06A6  00E4               	movwf	WriteToSerialEEPROM@i
  4692  06A7                     l2361:
  4693                           
  4694                           ;apps/src/eeprom_25lc512.c: 61:   buffer[i] = recv_frame[i+1];
  4695  06A7  0864               	movf	WriteToSerialEEPROM@i,w
  4696  06A8  0765               	addwf	WriteToSerialEEPROM@recv_frame,w
  4697  06A9  00F7               	movwf	??_WriteToSerialEEPROM
  4698  06AA  0A77               	incf	??_WriteToSerialEEPROM,w
  4699  06AB  0086               	movwf	6
  4700  06AC  3001               	movlw	1	; select bank2/3
  4701  06AD  0087               	movwf	7
  4702  06AE  0801               	movf	1,w
  4703  06AF  00F8               	movwf	??_WriteToSerialEEPROM+1
  4704  06B0  0864               	movf	WriteToSerialEEPROM@i,w
  4705  06B1  3E20               	addlw	(low (WriteToSerialEEPROM@buffer| 0))& (0+255)
  4706  06B2  0086               	movwf	6
  4707  06B3  0187               	clrf	7
  4708  06B4  0878               	movf	??_WriteToSerialEEPROM+1,w
  4709  06B5  0081               	movwf	1
  4710  06B6                     l2363:
  4711                           
  4712                           ;apps/src/eeprom_25lc512.c: 62:   }
  4713  06B6  3001               	movlw	1
  4714  06B7  00F7               	movwf	??_WriteToSerialEEPROM
  4715  06B8  0877               	movf	??_WriteToSerialEEPROM,w
  4716  06B9  07E4               	addwf	WriteToSerialEEPROM@i,f
  4717  06BA                     l2365:
  4718  06BA  3043               	movlw	67
  4719  06BB  0664               	xorwf	WriteToSerialEEPROM@i,w
  4720  06BC  1D03               	btfss	3,2
  4721  06BD  2EBF               	goto	u721
  4722  06BE  2EC0               	goto	u720
  4723  06BF                     u721:
  4724  06BF  2EA7               	goto	l2361
  4725  06C0                     u720:
  4726  06C0                     l520:
  4727  06C0  0022               	movlb	2	; select bank2
  4728  06C1  100C               	bcf	12,0	;volatile
  4729  06C2                     l2367:
  4730                           
  4731                           ;apps/src/eeprom_25lc512.c: 64:     SPI_WriteBlock(buffer, 0x43);
  4732  06C2  3043               	movlw	67
  4733  06C3  00F1               	movwf	SPI_WriteBlock@blockSize
  4734  06C4  3000               	movlw	0
  4735  06C5  00F2               	movwf	SPI_WriteBlock@blockSize+1
  4736  06C6  3020               	movlw	(low (WriteToSerialEEPROM@buffer| 0))& (0+255)
  4737  06C7  3182  225D  3186   	fcall	_SPI_WriteBlock
  4738  06CA                     l2369:
  4739  06CA  0022               	movlb	2	; select bank2
  4740  06CB  140C               	bsf	12,0	;volatile
  4741  06CC                     l2371:
  4742                           
  4743                           ;apps/src/eeprom_25lc512.c: 66:     _delay((unsigned long)((0x0A)*(16000000/4000.0)));
  4744  06CC  3034               	movlw	52
  4745  06CD  00F7               	movwf	??_WriteToSerialEEPROM
  4746  06CE  30F2               	movlw	242
  4747  06CF                     u887:
  4748  06CF  0B89               	decfsz	9,f
  4749  06D0  2ECF               	goto	u887
  4750  06D1  0BF7               	decfsz	??_WriteToSerialEEPROM,f
  4751  06D2  2ECF               	goto	u887
  4752  06D3                     l2373:
  4753                           
  4754                           ;apps/src/eeprom_25lc512.c: 74:  SPI_Close();
  4755  06D3  3181  2188  3186   	fcall	_SPI_Close
  4756  06D6                     l2375:
  4757                           
  4758                           ;apps/src/eeprom_25lc512.c: 75:  send_frame[0] = 0x02;
  4759  06D6  3002               	movlw	2
  4760  06D7  00F7               	movwf	??_WriteToSerialEEPROM
  4761  06D8  0876               	movf	WriteToSerialEEPROM@send_frame,w
  4762  06D9  0086               	movwf	6
  4763  06DA  0187               	clrf	7
  4764  06DB  0877               	movf	??_WriteToSerialEEPROM,w
  4765  06DC  0081               	movwf	1
  4766  06DD                     l2377:
  4767                           
  4768                           ;apps/src/eeprom_25lc512.c: 76:  send_frame[1] = 0x14;
  4769  06DD  3014               	movlw	20
  4770  06DE  00F7               	movwf	??_WriteToSerialEEPROM
  4771  06DF  0A76               	incf	WriteToSerialEEPROM@send_frame,w
  4772  06E0  0086               	movwf	6
  4773  06E1  0187               	clrf	7
  4774  06E2  0877               	movf	??_WriteToSerialEEPROM,w
  4775  06E3  0081               	movwf	1
  4776  06E4                     l2379:
  4777                           
  4778                           ;apps/src/eeprom_25lc512.c: 77:  return 1;
  4779  06E4  3001               	movlw	1
  4780  06E5                     l527:
  4781  06E5  0008               	return
  4782  06E6                     __end_of_WriteToSerialEEPROM:
  4783                           
  4784                           	psect	text2
  4785  029C                     __ptext2:	
  4786 ;; *************** function _WriteToMem *****************
  4787 ;; Defined at:
  4788 ;;		line 68 in file "apps/src/bootloader.c"
  4789 ;; Parameters:    Size  Location     Type
  4790 ;;  recv_frame      1    wreg     PTR unsigned char 
  4791 ;;		 -> main@recv_frame(68), 
  4792 ;;  send_frame      1   13[COMMON] PTR unsigned char 
  4793 ;;		 -> main@send_frame(66), 
  4794 ;; Auto vars:     Size  Location     Type
  4795 ;;  recv_frame      1    1[BANK0 ] PTR unsigned char 
  4796 ;;		 -> main@recv_frame(68), 
  4797 ;;  result          1    2[BANK0 ] _Bool 
  4798 ;; Return value:  Size  Location     Type
  4799 ;;                  1    wreg      _Bool 
  4800 ;; Registers used:
  4801 ;;		wreg, fsr1l, fsr1h, status,2, status,0, pclath, cstack
  4802 ;; Tracked objects:
  4803 ;;		On entry : 0/0
  4804 ;;		On exit  : 0/0
  4805 ;;		Unchanged: 0/0
  4806 ;; Data sizes:     COMMON   BANK0   BANK1   BANK2   BANK3   BANK4   BANK5   BANK6   BANK7   BANK8   BANK9  BANK10  BANK1
      +1  BANK12  BANK13  BANK14  BANK15  BANK16  BANK17  BANK18  BANK19  BANK20  BANK21  BANK22  BANK23  BANK24  BANK25
  4807 ;;      Params:         1       0       0       0       0       0       0       0       0       0       0       0       
      +0       0       0       0       0       0       0       0       0       0       0       0       0       0       0
  4808 ;;      Locals:         0       2       0       0       0       0       0       0       0       0       0       0       
      +0       0       0       0       0       0       0       0       0       0       0       0       0       0       0
  4809 ;;      Temps:          0       1       0       0       0       0       0       0       0       0       0       0       
      +0       0       0       0       0       0       0       0       0       0       0       0       0       0       0
  4810 ;;      Totals:         1       3       0       0       0       0       0       0       0       0       0       0       
      +0       0       0       0       0       0       0       0       0       0       0       0       0       0       0
  4811 ;;Total ram usage:        4 bytes
  4812 ;; Hardware stack levels used:    1
  4813 ;; Hardware stack levels required when called:    2
  4814 ;; This function calls:
  4815 ;;		_FLASH_Write
  4816 ;; This function is called by:
  4817 ;;		_main
  4818 ;; This function uses a non-reentrant model
  4819 ;;
  4820                           
  4821                           
  4822                           ;psect for function _WriteToMem
  4823  029C                     _WriteToMem:
  4824                           
  4825                           ;incstack = 0
  4826                           ; Regs used in _WriteToMem: [wreg+fsr1l+fsr1h+status,2+status,0+pclath+cstack]
  4827                           ;WriteToMem@recv_frame stored from wreg
  4828  029C  0020               	movlb	0	; select bank0
  4829  029D  00A1               	movwf	WriteToMem@recv_frame
  4830  029E                     l2261:
  4831                           
  4832                           ;apps/src/bootloader.c: 69:  _Bool result;;apps/src/bootloader.c: 70:  result = FLASH_Wr
      +                          ite(recv_frame);
  4833  029E  0821               	movf	WriteToMem@recv_frame,w
  4834  029F  00F0               	movwf	FLASH_Write@buffer
  4835  02A0  3001               	movlw	1
  4836  02A1  00F1               	movwf	FLASH_Write@buffer+1
  4837  02A2  3185  2588  3182   	fcall	_FLASH_Write
  4838  02A5  0020               	movlb	0	; select bank0
  4839  02A6  00A0               	movwf	??_WriteToMem
  4840  02A7  0820               	movf	??_WriteToMem,w
  4841  02A8  00A2               	movwf	WriteToMem@result
  4842  02A9                     l2263:
  4843                           
  4844                           ;apps/src/bootloader.c: 71:  if (result) {
  4845  02A9  0822               	movf	WriteToMem@result,w
  4846  02AA  1903               	btfsc	3,2
  4847  02AB  2AAD               	goto	u701
  4848  02AC  2AAE               	goto	u700
  4849  02AD                     u701:
  4850  02AD  2ABC               	goto	l2267
  4851  02AE                     u700:
  4852  02AE                     l2265:
  4853                           
  4854                           ;apps/src/bootloader.c: 72:  send_frame[0] = 0x02;
  4855  02AE  3002               	movlw	2
  4856  02AF  00A0               	movwf	??_WriteToMem
  4857  02B0  087D               	movf	WriteToMem@send_frame,w
  4858  02B1  0086               	movwf	6
  4859  02B2  0187               	clrf	7
  4860  02B3  0820               	movf	??_WriteToMem,w
  4861  02B4  0081               	movwf	1
  4862                           
  4863                           ;apps/src/bootloader.c: 73:  send_frame[1] = 0x04;
  4864  02B5  3004               	movlw	4
  4865  02B6  00A0               	movwf	??_WriteToMem
  4866  02B7  0A7D               	incf	WriteToMem@send_frame,w
  4867  02B8  0086               	movwf	6
  4868  02B9  0187               	clrf	7
  4869  02BA  0820               	movf	??_WriteToMem,w
  4870  02BB  0081               	movwf	1
  4871  02BC                     l2267:
  4872                           
  4873                           ;apps/src/bootloader.c: 75:  return result;
  4874  02BC  0822               	movf	WriteToMem@result,w
  4875  02BD                     l371:
  4876  02BD  0008               	return
  4877  02BE                     __end_of_WriteToMem:
  4878                           
  4879                           	psect	text3
  4880  0420                     __ptext3:	
  4881 ;; *************** function _WriteBootloaderFlags *****************
  4882 ;; Defined at:
  4883 ;;		line 156 in file "apps/src/memory.c"
  4884 ;; Parameters:    Size  Location     Type
  4885 ;;		None
  4886 ;; Auto vars:     Size  Location     Type
  4887 ;;  buf            68    0[BANK0 ] unsigned char [68]
  4888 ;;  dbyte           2   70[BANK0 ] unsigned short 
  4889 ;;  def_addr        2   68[BANK0 ] unsigned short 
  4890 ;;  i               1   72[BANK0 ] unsigned char 
  4891 ;; Return value:  Size  Location     Type
  4892 ;;                  1    wreg      void 
  4893 ;; Registers used:
  4894 ;;		wreg, fsr1l, fsr1h, status,2, status,0, pclath, cstack
  4895 ;; Tracked objects:
  4896 ;;		On entry : 0/0
  4897 ;;		On exit  : 0/0
  4898 ;;		Unchanged: 0/0
  4899 ;; Data sizes:     COMMON   BANK0   BANK1   BANK2   BANK3   BANK4   BANK5   BANK6   BANK7   BANK8   BANK9  BANK10  BANK1
      +1  BANK12  BANK13  BANK14  BANK15  BANK16  BANK17  BANK18  BANK19  BANK20  BANK21  BANK22  BANK23  BANK24  BANK25
  4900 ;;      Params:         0       0       0       0       0       0       0       0       0       0       0       0       
      +0       0       0       0       0       0       0       0       0       0       0       0       0       0       0
  4901 ;;      Locals:         0      73       0       0       0       0       0       0       0       0       0       0       
      +0       0       0       0       0       0       0       0       0       0       0       0       0       0       0
  4902 ;;      Temps:          1       0       0       0       0       0       0       0       0       0       0       0       
      +0       0       0       0       0       0       0       0       0       0       0       0       0       0       0
  4903 ;;      Totals:         1      73       0       0       0       0       0       0       0       0       0       0       
      +0       0       0       0       0       0       0       0       0       0       0       0       0       0       0
  4904 ;;Total ram usage:       74 bytes
  4905 ;; Hardware stack levels used:    1
  4906 ;; Hardware stack levels required when called:    2
  4907 ;; This function calls:
  4908 ;;		_FLASH_Read
  4909 ;;		_FLASH_Write
  4910 ;; This function is called by:
  4911 ;;		_main
  4912 ;; This function uses a non-reentrant model
  4913 ;;
  4914                           
  4915                           
  4916                           ;psect for function _WriteBootloaderFlags
  4917  0420                     _WriteBootloaderFlags:
  4918  0420                     l2149:	
  4919                           ;incstack = 0
  4920                           ; Regs used in _WriteBootloaderFlags: [wreg+fsr1l+fsr1h+status,2+status,0+pclath+cstack]
  4921                           
  4922                           
  4923                           ;apps/src/memory.c: 158:     uint8_t buf[0x0020 + 0x0020 + 4];;apps/src/memory.c: 159:  
      +                             uint16_t dbyte = 0;
  4924  0420  0020               	movlb	0	; select bank0
  4925  0421  01E6               	clrf	WriteBootloaderFlags@dbyte
  4926  0422  01E7               	clrf	WriteBootloaderFlags@dbyte+1
  4927  0423                     l2151:
  4928                           
  4929                           ;apps/src/memory.c: 160:     uint16_t def_addr = 0x3FE0;
  4930  0423  30E0               	movlw	224
  4931  0424  00E4               	movwf	WriteBootloaderFlags@def_addr
  4932  0425  303F               	movlw	63
  4933  0426  00E5               	movwf	WriteBootloaderFlags@def_addr+1
  4934  0427                     l2153:
  4935                           
  4936                           ;apps/src/memory.c: 162:         for (i = 0; i != 0x0020 + 0x0020; i += 2){
  4937  0427  01E8               	clrf	WriteBootloaderFlags@i
  4938  0428                     l2159:
  4939                           
  4940                           ;apps/src/memory.c: 163:             dbyte = FLASH_Read(def_addr);
  4941  0428  0865               	movf	WriteBootloaderFlags@def_addr+1,w
  4942  0429  00F1               	movwf	FLASH_Read@addr+1
  4943  042A  0864               	movf	WriteBootloaderFlags@def_addr,w
  4944  042B  00F0               	movwf	FLASH_Read@addr
  4945  042C  3182  22E1  3184   	fcall	_FLASH_Read
  4946  042F  0871               	movf	?_FLASH_Read+1,w
  4947  0430  0020               	movlb	0	; select bank0
  4948  0431  00E7               	movwf	WriteBootloaderFlags@dbyte+1
  4949  0432  0870               	movf	?_FLASH_Read,w
  4950  0433  00E6               	movwf	WriteBootloaderFlags@dbyte
  4951  0434                     l2161:
  4952                           
  4953                           ;apps/src/memory.c: 164:             buf[i+4] = (uint8_t)((dbyte & 0xFF00) >> 8);
  4954  0434  0867               	movf	WriteBootloaderFlags@dbyte+1,w
  4955  0435  00FD               	movwf	??_WriteBootloaderFlags
  4956  0436  0868               	movf	WriteBootloaderFlags@i,w
  4957  0437  3E04               	addlw	4
  4958  0438  3E20               	addlw	(low (WriteBootloaderFlags@buf| 0))& (0+255)
  4959  0439  0086               	movwf	6
  4960  043A  0187               	clrf	7
  4961  043B  087D               	movf	??_WriteBootloaderFlags,w
  4962  043C  0081               	movwf	1
  4963  043D                     l2163:
  4964                           
  4965                           ;apps/src/memory.c: 165:             buf[i+5] = (uint8_t)(dbyte & 0x00FF);
  4966  043D  0866               	movf	WriteBootloaderFlags@dbyte,w
  4967  043E  00FD               	movwf	??_WriteBootloaderFlags
  4968  043F  0868               	movf	WriteBootloaderFlags@i,w
  4969  0440  3E05               	addlw	5
  4970  0441  3E20               	addlw	(low (WriteBootloaderFlags@buf| 0))& (0+255)
  4971  0442  0086               	movwf	6
  4972  0443  0187               	clrf	7
  4973  0444  087D               	movf	??_WriteBootloaderFlags,w
  4974  0445  0081               	movwf	1
  4975  0446                     l2165:
  4976                           
  4977                           ;apps/src/memory.c: 166:             def_addr++;
  4978  0446  3001               	movlw	1
  4979  0447  07E4               	addwf	WriteBootloaderFlags@def_addr,f
  4980  0448  3000               	movlw	0
  4981  0449  3DE5               	addwfc	WriteBootloaderFlags@def_addr+1,f
  4982  044A                     l2167:
  4983                           
  4984                           ;apps/src/memory.c: 167:         }
  4985  044A  3002               	movlw	2
  4986  044B  00FD               	movwf	??_WriteBootloaderFlags
  4987  044C  087D               	movf	??_WriteBootloaderFlags,w
  4988  044D  07E8               	addwf	WriteBootloaderFlags@i,f
  4989  044E                     l2169:
  4990  044E  3040               	movlw	64
  4991  044F  0668               	xorwf	WriteBootloaderFlags@i,w
  4992  0450  1D03               	btfss	3,2
  4993  0451  2C53               	goto	u621
  4994  0452  2C54               	goto	u620
  4995  0453                     u621:
  4996  0453  2C28               	goto	l2159
  4997  0454                     u620:
  4998  0454                     l2171:
  4999                           
  5000                           ;apps/src/memory.c: 169:         buf[2] = (uint8_t)((0x3FE0 & 0xFF00) >> 8);
  5001  0454  303F               	movlw	63
  5002  0455  00FD               	movwf	??_WriteBootloaderFlags
  5003  0456  087D               	movf	??_WriteBootloaderFlags,w
  5004  0457  00A2               	movwf	WriteBootloaderFlags@buf+2
  5005                           
  5006                           ;apps/src/memory.c: 170:         buf[3] = (uint8_t)(0x3FE0 & 0x00FF);
  5007  0458  30E0               	movlw	224
  5008  0459  00FD               	movwf	??_WriteBootloaderFlags
  5009  045A  087D               	movf	??_WriteBootloaderFlags,w
  5010  045B  00A3               	movwf	WriteBootloaderFlags@buf+3
  5011  045C                     l2173:
  5012                           
  5013                           ;apps/src/memory.c: 172:     if (BLFlags.IsBLStart == 1){
  5014  045C  0022               	movlb	2	; select bank2
  5015  045D  0364               	decf	_BLFlags^(0+256),w
  5016  045E  1D03               	btfss	3,2
  5017  045F  2C61               	goto	u631
  5018  0460  2C62               	goto	u630
  5019  0461                     u631:
  5020  0461  2C65               	goto	l2177
  5021  0462                     u630:
  5022  0462                     l2175:
  5023                           
  5024                           ;apps/src/memory.c: 173:         buf[5] = 0x00;
  5025  0462  0020               	movlb	0	; select bank0
  5026  0463  01A5               	clrf	WriteBootloaderFlags@buf+5
  5027                           
  5028                           ;apps/src/memory.c: 174:     } else {
  5029  0464  2C6A               	goto	l2179
  5030  0465                     l2177:
  5031                           
  5032                           ;apps/src/memory.c: 175:         buf[5] = 0xFF;
  5033  0465  30FF               	movlw	255
  5034  0466  00FD               	movwf	??_WriteBootloaderFlags
  5035  0467  087D               	movf	??_WriteBootloaderFlags,w
  5036  0468  0020               	movlb	0	; select bank0
  5037  0469  00A5               	movwf	WriteBootloaderFlags@buf+5
  5038  046A                     l2179:
  5039                           
  5040                           ;apps/src/memory.c: 178:     if (BLFlags.IsExtUpgrade == 1){
  5041  046A  0022               	movlb	2	; select bank2
  5042  046B  0365               	decf	(_BLFlags^(0+256)+1),w
  5043  046C  1D03               	btfss	3,2
  5044  046D  2C6F               	goto	u641
  5045  046E  2C70               	goto	u640
  5046  046F                     u641:
  5047  046F  2C73               	goto	l2183
  5048  0470                     u640:
  5049  0470                     l2181:
  5050                           
  5051                           ;apps/src/memory.c: 179:         buf[7] = 0x00;
  5052  0470  0020               	movlb	0	; select bank0
  5053  0471  01A7               	clrf	WriteBootloaderFlags@buf+7
  5054                           
  5055                           ;apps/src/memory.c: 180:     } else {
  5056  0472  2C78               	goto	l462
  5057  0473                     l2183:
  5058                           
  5059                           ;apps/src/memory.c: 181:         buf[7] = 0xFF;
  5060  0473  30FF               	movlw	255
  5061  0474  00FD               	movwf	??_WriteBootloaderFlags
  5062  0475  087D               	movf	??_WriteBootloaderFlags,w
  5063  0476  0020               	movlb	0	; select bank0
  5064  0477  00A7               	movwf	WriteBootloaderFlags@buf+7
  5065  0478                     l462:	
  5066                           ;apps/src/memory.c: 182:     }
  5067                           
  5068                           
  5069                           ;apps/src/memory.c: 184:     buf[17] = BLFlags.StatusCodeExtUpgrade;
  5070  0478  0022               	movlb	2	; select bank2
  5071  0479  086A               	movf	(_BLFlags^(0+256)+6),w
  5072  047A  00FD               	movwf	??_WriteBootloaderFlags
  5073  047B  087D               	movf	??_WriteBootloaderFlags,w
  5074  047C  0020               	movlb	0	; select bank0
  5075  047D  00B1               	movwf	WriteBootloaderFlags@buf+17
  5076  047E                     l2185:
  5077                           
  5078                           ;apps/src/memory.c: 187:     FLASH_Write(buf);
  5079  047E  3020               	movlw	low WriteBootloaderFlags@buf
  5080  047F  00F0               	movwf	FLASH_Write@buffer
  5081  0480  3000               	movlw	high WriteBootloaderFlags@buf
  5082  0481  00F1               	movwf	FLASH_Write@buffer+1
  5083  0482  3185  2588  3184   	fcall	_FLASH_Write
  5084  0485                     l463:
  5085  0485  0008               	return
  5086  0486                     __end_of_WriteBootloaderFlags:
  5087                           
  5088                           	psect	text4
  5089  0588                     __ptext4:	
  5090 ;; *************** function _FLASH_Write *****************
  5091 ;; Defined at:
  5092 ;;		line 75 in file "apps/src/memory.c"
  5093 ;; Parameters:    Size  Location     Type
  5094 ;;  buffer          2    0[COMMON] PTR unsigned char 
  5095 ;;		 -> WriteBootloaderFlags@buf(68), main@recv_frame(68), 
  5096 ;; Auto vars:     Size  Location     Type
  5097 ;;  writeAddr       2   10[COMMON] unsigned short 
  5098 ;;  i               1   12[COMMON] unsigned char 
  5099 ;;  INR_state       1    9[COMMON] unsigned char 
  5100 ;; Return value:  Size  Location     Type
  5101 ;;                  1    wreg      _Bool 
  5102 ;; Registers used:
  5103 ;;		wreg, fsr1l, fsr1h, status,2, status,0, pclath, cstack
  5104 ;; Tracked objects:
  5105 ;;		On entry : 0/0
  5106 ;;		On exit  : 0/0
  5107 ;;		Unchanged: 0/0
  5108 ;; Data sizes:     COMMON   BANK0   BANK1   BANK2   BANK3   BANK4   BANK5   BANK6   BANK7   BANK8   BANK9  BANK10  BANK1
      +1  BANK12  BANK13  BANK14  BANK15  BANK16  BANK17  BANK18  BANK19  BANK20  BANK21  BANK22  BANK23  BANK24  BANK25
  5109 ;;      Params:         2       0       0       0       0       0       0       0       0       0       0       0       
      +0       0       0       0       0       0       0       0       0       0       0       0       0       0       0
  5110 ;;      Locals:         4       0       0       0       0       0       0       0       0       0       0       0       
      +0       0       0       0       0       0       0       0       0       0       0       0       0       0       0
  5111 ;;      Temps:          7       0       0       0       0       0       0       0       0       0       0       0       
      +0       0       0       0       0       0       0       0       0       0       0       0       0       0       0
  5112 ;;      Totals:        13       0       0       0       0       0       0       0       0       0       0       0       
      +0       0       0       0       0       0       0       0       0       0       0       0       0       0       0
  5113 ;;Total ram usage:       13 bytes
  5114 ;; Hardware stack levels used:    1
  5115 ;; Hardware stack levels required when called:    1
  5116 ;; This function calls:
  5117 ;;		_UnlockFlashWrite
  5118 ;; This function is called by:
  5119 ;;		_WriteToMem
  5120 ;;		_WriteBootloaderFlags
  5121 ;; This function uses a non-reentrant model
  5122 ;;
  5123                           
  5124                           
  5125                           ;psect for function _FLASH_Write
  5126  0588                     _FLASH_Write:
  5127  0588                     l2033:	
  5128                           ;incstack = 0
  5129                           ; Regs used in _FLASH_Write: [wreg+fsr1l+fsr1h+status,2+status,0+pclath+cstack]
  5130                           
  5131                           
  5132                           ;apps/src/memory.c: 76:     uint8_t i, INR_state = INTCONbits.GIE;
  5133  0588  3000               	movlw	0
  5134  0589  1B8B               	btfsc	11,7	;volatile
  5135  058A  3001               	movlw	1
  5136  058B  00F9               	movwf	FLASH_Write@INR_state
  5137  058C                     l2035:
  5138                           
  5139                           ;apps/src/memory.c: 77:     uint16_t writeAddr;;apps/src/memory.c: 79:     INTCONbits.GI
      +                          E = 0;
  5140  058C  138B               	bcf	11,7	;volatile
  5141  058D                     l2037:
  5142                           
  5143                           ;apps/src/memory.c: 81:     writeAddr = (uint16_t)(((buffer[2] << 8) & 0xFF00) | (buffer
      +                          [3] & 0x00FF));
  5144  058D  0870               	movf	FLASH_Write@buffer,w
  5145  058E  0086               	movwf	6
  5146  058F  0871               	movf	FLASH_Write@buffer+1,w
  5147  0590  0087               	movwf	7
  5148  0591  3143               	addfsr 1,3
  5149  0592  0801               	movf	1,w
  5150  0593  00F2               	movwf	??_FLASH_Write
  5151  0594  01F3               	clrf	??_FLASH_Write+1
  5152  0595  0870               	movf	FLASH_Write@buffer,w
  5153  0596  0086               	movwf	6
  5154  0597  0871               	movf	FLASH_Write@buffer+1,w
  5155  0598  0087               	movwf	7
  5156  0599  3142               	addfsr 1,2
  5157  059A  0801               	movf	1,w
  5158  059B  00F4               	movwf	??_FLASH_Write+2
  5159  059C  01F5               	clrf	??_FLASH_Write+3
  5160  059D  0874               	movf	??_FLASH_Write+2,w
  5161  059E  00F5               	movwf	??_FLASH_Write+3
  5162  059F  01F4               	clrf	??_FLASH_Write+2
  5163  05A0  3000               	movlw	0
  5164  05A1  0574               	andwf	??_FLASH_Write+2,w
  5165  05A2  00F7               	movwf	??_FLASH_Write+5
  5166  05A3  30FF               	movlw	255
  5167  05A4  0575               	andwf	??_FLASH_Write+3,w
  5168  05A5  00F8               	movwf	??_FLASH_Write+6
  5169  05A6  0872               	movf	??_FLASH_Write,w
  5170  05A7  0477               	iorwf	??_FLASH_Write+5,w
  5171  05A8  00FA               	movwf	FLASH_Write@writeAddr
  5172  05A9  0873               	movf	??_FLASH_Write+1,w
  5173  05AA  0478               	iorwf	??_FLASH_Write+6,w
  5174  05AB  00FB               	movwf	FLASH_Write@writeAddr+1
  5175  05AC                     l2039:
  5176                           
  5177                           ;apps/src/memory.c: 82:         EEADRH = (uint8_t)((writeAddr & 0xFF00)>>8);
  5178  05AC  087B               	movf	FLASH_Write@writeAddr+1,w
  5179  05AD  0023               	movlb	3	; select bank3
  5180  05AE  0092               	movwf	18	;volatile
  5181  05AF                     l2041:
  5182                           
  5183                           ;apps/src/memory.c: 83:         EEADRL = (uint8_t)(writeAddr & 0x00FF);
  5184  05AF  087A               	movf	FLASH_Write@writeAddr,w
  5185  05B0  0091               	movwf	17	;volatile
  5186  05B1                     l2043:
  5187                           
  5188                           ;apps/src/memory.c: 85:     EECON1bits.EEPGD = 1;
  5189  05B1  1795               	bsf	21,7	;volsfr
  5190  05B2                     l2045:
  5191                           
  5192                           ;apps/src/memory.c: 86:     EECON1bits.WRERR = 0;
  5193  05B2  1195               	bcf	21,3	;volsfr
  5194  05B3                     l2047:
  5195                           
  5196                           ;apps/src/memory.c: 87:     EECON1bits.WREN = 1;
  5197  05B3  1515               	bsf	21,2	;volsfr
  5198  05B4                     l2049:
  5199                           
  5200                           ;apps/src/memory.c: 89:     if (buffer[2] == 0x80){
  5201  05B4  0870               	movf	FLASH_Write@buffer,w
  5202  05B5  0086               	movwf	6
  5203  05B6  0871               	movf	FLASH_Write@buffer+1,w
  5204  05B7  0087               	movwf	7
  5205  05B8  3142               	addfsr 1,2
  5206  05B9  3080               	movlw	128
  5207  05BA  0601               	xorwf	1,w
  5208  05BB  1D03               	btfss	3,2
  5209  05BC  2DBE               	goto	u541
  5210  05BD  2DBF               	goto	u540
  5211  05BE                     u541:
  5212  05BE  2DCF               	goto	l440
  5213  05BF                     u540:
  5214  05BF                     l2051:
  5215                           
  5216                           ;apps/src/memory.c: 90:             EECON1bits.CFGS = 1;
  5217  05BF  1715               	bsf	21,6	;volsfr
  5218  05C0                     l2053:
  5219                           
  5220                           ;apps/src/memory.c: 91:             EEDATH = buffer[4];
  5221  05C0  0870               	movf	FLASH_Write@buffer,w
  5222  05C1  0086               	movwf	6
  5223  05C2  0871               	movf	FLASH_Write@buffer+1,w
  5224  05C3  0087               	movwf	7
  5225  05C4  3144               	addfsr 1,4
  5226  05C5  0801               	movf	1,w
  5227  05C6  0094               	movwf	20	;volatile
  5228                           
  5229                           ;apps/src/memory.c: 92:             EEDATL = buffer[5];
  5230  05C7  0870               	movf	FLASH_Write@buffer,w
  5231  05C8  0086               	movwf	6
  5232  05C9  0871               	movf	FLASH_Write@buffer+1,w
  5233  05CA  0087               	movwf	7
  5234  05CB  3145               	addfsr 1,5
  5235  05CC  0801               	movf	1,w
  5236  05CD  0093               	movwf	19	;volatile
  5237                           
  5238                           ;apps/src/memory.c: 93:     } else {
  5239  05CE  2E1C               	goto	l2087
  5240  05CF                     l440:
  5241                           
  5242                           ;apps/src/memory.c: 96:     EECON1bits.CFGS = 0;
  5243  05CF  1315               	bcf	21,6	;volsfr
  5244                           
  5245                           ;apps/src/memory.c: 97:     EECON1bits.FREE = 1;
  5246  05D0  1615               	bsf	21,4	;volsfr
  5247  05D1                     l2055:
  5248                           
  5249                           ;apps/src/memory.c: 99:     UnlockFlashWrite();
  5250  05D1  3181  21C3  3185   	fcall	_UnlockFlashWrite
  5251  05D4                     l2057:
  5252                           
  5253                           ;apps/src/memory.c: 100:     _delay((unsigned long)((0x000A)*(16000000/4000.0)));
  5254  05D4  3034               	movlw	52
  5255  05D5  00F2               	movwf	??_FLASH_Write
  5256  05D6  30F2               	movlw	242
  5257  05D7                     u897:
  5258  05D7  0B89               	decfsz	9,f
  5259  05D8  2DD7               	goto	u897
  5260  05D9  0BF2               	decfsz	??_FLASH_Write,f
  5261  05DA  2DD7               	goto	u897
  5262  05DB                     l2059:
  5263                           
  5264                           ;apps/src/memory.c: 102:     if (EECON1bits.FREE){
  5265  05DB  0023               	movlb	3	; select bank3
  5266  05DC  1E15               	btfss	21,4	;volsfr
  5267  05DD  2DDF               	goto	u551
  5268  05DE  2DE0               	goto	u550
  5269  05DF                     u551:
  5270  05DF  2DE2               	goto	l442
  5271  05E0                     u550:
  5272  05E0                     l2061:
  5273                           
  5274                           ;apps/src/memory.c: 103:             return 0;
  5275  05E0  3000               	movlw	0
  5276  05E1  2E33               	goto	l443
  5277  05E2                     l442:	
  5278                           ;apps/src/memory.c: 104:     }
  5279                           
  5280                           
  5281                           ;apps/src/memory.c: 106:     EECON1bits.LWLO = 1;
  5282  05E2  1695               	bsf	21,5	;volsfr
  5283  05E3                     l2065:
  5284                           
  5285                           ;apps/src/memory.c: 107:         for (i = 0; i != 0x0020 + 0x0020; i += 2){
  5286  05E3  01FC               	clrf	FLASH_Write@i
  5287  05E4                     l2071:
  5288                           
  5289                           ;apps/src/memory.c: 108:         EEADRH = (uint8_t)((writeAddr & 0xFF00)>>8);
  5290  05E4  087B               	movf	FLASH_Write@writeAddr+1,w
  5291  05E5  0023               	movlb	3	; select bank3
  5292  05E6  0092               	movwf	18	;volatile
  5293  05E7                     l2073:
  5294                           
  5295                           ;apps/src/memory.c: 109:         EEADRL = (uint8_t)(writeAddr & 0x00FF);
  5296  05E7  087A               	movf	FLASH_Write@writeAddr,w
  5297  05E8  0091               	movwf	17	;volatile
  5298  05E9                     l2075:
  5299                           
  5300                           ;apps/src/memory.c: 111:             EEDATH = buffer[i+4];
  5301  05E9  087C               	movf	FLASH_Write@i,w
  5302  05EA  00F2               	movwf	??_FLASH_Write
  5303  05EB  01F3               	clrf	??_FLASH_Write+1
  5304  05EC  0872               	movf	??_FLASH_Write,w
  5305  05ED  0770               	addwf	FLASH_Write@buffer,w
  5306  05EE  00F4               	movwf	??_FLASH_Write+2
  5307  05EF  0873               	movf	??_FLASH_Write+1,w
  5308  05F0  3D71               	addwfc	FLASH_Write@buffer+1,w
  5309  05F1  00F5               	movwf	??_FLASH_Write+3
  5310  05F2  0874               	movf	??_FLASH_Write+2,w
  5311  05F3  0086               	movwf	6
  5312  05F4  0875               	movf	??_FLASH_Write+3,w
  5313  05F5  0087               	movwf	7
  5314  05F6  3144               	addfsr 1,4
  5315  05F7  0801               	movf	1,w
  5316  05F8  0094               	movwf	20	;volatile
  5317  05F9                     l2077:
  5318                           
  5319                           ;apps/src/memory.c: 112:             EEDATL = buffer[i+5];
  5320  05F9  087C               	movf	FLASH_Write@i,w
  5321  05FA  00F2               	movwf	??_FLASH_Write
  5322  05FB  01F3               	clrf	??_FLASH_Write+1
  5323  05FC  0872               	movf	??_FLASH_Write,w
  5324  05FD  0770               	addwf	FLASH_Write@buffer,w
  5325  05FE  00F4               	movwf	??_FLASH_Write+2
  5326  05FF  0873               	movf	??_FLASH_Write+1,w
  5327  0600  3D71               	addwfc	FLASH_Write@buffer+1,w
  5328  0601  00F5               	movwf	??_FLASH_Write+3
  5329  0602  0874               	movf	??_FLASH_Write+2,w
  5330  0603  0086               	movwf	6
  5331  0604  0875               	movf	??_FLASH_Write+3,w
  5332  0605  0087               	movwf	7
  5333  0606  3145               	addfsr 1,5
  5334  0607  0801               	movf	1,w
  5335  0608  0093               	movwf	19	;volatile
  5336  0609                     l2079:
  5337                           
  5338                           ;apps/src/memory.c: 114:             UnlockFlashWrite();
  5339  0609  3181  21C3  3185   	fcall	_UnlockFlashWrite
  5340  060C                     l2081:
  5341                           
  5342                           ;apps/src/memory.c: 116:             writeAddr++;
  5343  060C  3001               	movlw	1
  5344  060D  07FA               	addwf	FLASH_Write@writeAddr,f
  5345  060E  3000               	movlw	0
  5346  060F  3DFB               	addwfc	FLASH_Write@writeAddr+1,f
  5347  0610                     l2083:
  5348                           
  5349                           ;apps/src/memory.c: 118:         }
  5350  0610  3002               	movlw	2
  5351  0611  00F2               	movwf	??_FLASH_Write
  5352  0612  0872               	movf	??_FLASH_Write,w
  5353  0613  07FC               	addwf	FLASH_Write@i,f
  5354  0614                     l2085:
  5355  0614  3040               	movlw	64
  5356  0615  067C               	xorwf	FLASH_Write@i,w
  5357  0616  1D03               	btfss	3,2
  5358  0617  2E19               	goto	u561
  5359  0618  2E1A               	goto	u560
  5360  0619                     u561:
  5361  0619  2DE4               	goto	l2071
  5362  061A                     u560:
  5363  061A                     l445:
  5364                           
  5365                           ;apps/src/memory.c: 119:     EECON1bits.LWLO = 0;
  5366  061A  0023               	movlb	3	; select bank3
  5367  061B  1295               	bcf	21,5	;volsfr
  5368  061C                     l2087:
  5369                           
  5370                           ;apps/src/memory.c: 123:     UnlockFlashWrite();
  5371  061C  3181  21C3  3185   	fcall	_UnlockFlashWrite
  5372  061F                     l2089:
  5373                           
  5374                           ;apps/src/memory.c: 124:     _delay((unsigned long)((0x000A)*(16000000/4000.0)));
  5375  061F  3034               	movlw	52
  5376  0620  00F2               	movwf	??_FLASH_Write
  5377  0621  30F2               	movlw	242
  5378  0622                     u907:
  5379  0622  0B89               	decfsz	9,f
  5380  0623  2E22               	goto	u907
  5381  0624  0BF2               	decfsz	??_FLASH_Write,f
  5382  0625  2E22               	goto	u907
  5383  0626                     l2091:
  5384                           
  5385                           ;apps/src/memory.c: 127:     EECON1bits.WREN = 0;
  5386  0626  0023               	movlb	3	; select bank3
  5387  0627  1115               	bcf	21,2	;volsfr
  5388  0628                     l2093:
  5389                           
  5390                           ;apps/src/memory.c: 128:     INTCONbits.GIE = INR_state;
  5391  0628  0C79               	rrf	FLASH_Write@INR_state,w
  5392  0629  1C03               	skipc
  5393  062A  138B               	bcf	11,7	;volatile
  5394  062B  1803               	skipnc
  5395  062C  178B               	bsf	11,7	;volatile
  5396  062D                     l2095:
  5397                           
  5398                           ;apps/src/memory.c: 129:     if (EECON1bits.WRERR){
  5399  062D  1D95               	btfss	21,3	;volsfr
  5400  062E  2E30               	goto	u571
  5401  062F  2E31               	goto	u570
  5402  0630                     u571:
  5403  0630  2E32               	goto	l2103
  5404  0631                     u570:
  5405  0631  2DE0               	goto	l2061
  5406  0632                     l2103:
  5407                           
  5408                           ;apps/src/memory.c: 132:         return 1;
  5409  0632  3001               	movlw	1
  5410  0633                     l443:
  5411  0633  0008               	return
  5412  0634                     __end_of_FLASH_Write:
  5413                           
  5414                           	psect	text5
  5415  01C3                     __ptext5:	
  5416 ;; *************** function _UnlockFlashWrite *****************
  5417 ;; Defined at:
  5418 ;;		line 44 in file "apps/src/memory.c"
  5419 ;; Parameters:    Size  Location     Type
  5420 ;;		None
  5421 ;; Auto vars:     Size  Location     Type
  5422 ;;		None
  5423 ;; Return value:  Size  Location     Type
  5424 ;;                  1    wreg      void 
  5425 ;; Registers used:
  5426 ;;		wreg
  5427 ;; Tracked objects:
  5428 ;;		On entry : 0/0
  5429 ;;		On exit  : 0/0
  5430 ;;		Unchanged: 0/0
  5431 ;; Data sizes:     COMMON   BANK0   BANK1   BANK2   BANK3   BANK4   BANK5   BANK6   BANK7   BANK8   BANK9  BANK10  BANK1
      +1  BANK12  BANK13  BANK14  BANK15  BANK16  BANK17  BANK18  BANK19  BANK20  BANK21  BANK22  BANK23  BANK24  BANK25
  5432 ;;      Params:         0       0       0       0       0       0       0       0       0       0       0       0       
      +0       0       0       0       0       0       0       0       0       0       0       0       0       0       0
  5433 ;;      Locals:         0       0       0       0       0       0       0       0       0       0       0       0       
      +0       0       0       0       0       0       0       0       0       0       0       0       0       0       0
  5434 ;;      Temps:          0       0       0       0       0       0       0       0       0       0       0       0       
      +0       0       0       0       0       0       0       0       0       0       0       0       0       0       0
  5435 ;;      Totals:         0       0       0       0       0       0       0       0       0       0       0       0       
      +0       0       0       0       0       0       0       0       0       0       0       0       0       0       0
  5436 ;;Total ram usage:        0 bytes
  5437 ;; Hardware stack levels used:    1
  5438 ;; This function calls:
  5439 ;;		Nothing
  5440 ;; This function is called by:
  5441 ;;		_FLASH_Write
  5442 ;; This function uses a non-reentrant model
  5443 ;;
  5444                           
  5445                           
  5446                           ;psect for function _UnlockFlashWrite
  5447  01C3                     _UnlockFlashWrite:
  5448  01C3                     l1855:	
  5449                           ;incstack = 0
  5450                           ; Regs used in _UnlockFlashWrite: [wreg]
  5451                           
  5452                           
  5453                           ;apps/src/memory.c: 45:     EECON2 = 0x55;
  5454  01C3  3055               	movlw	85
  5455  01C4  0023               	movlb	3	; select bank3
  5456  01C5  0096               	movwf	22	;volsfr
  5457                           
  5458                           ;apps/src/memory.c: 46:     EECON2 = 0xAA;
  5459  01C6  30AA               	movlw	170
  5460  01C7  0096               	movwf	22	;volsfr
  5461  01C8                     l1857:
  5462                           
  5463                           ;apps/src/memory.c: 47:     EECON1bits.WR = 1;
  5464  01C8  1495               	bsf	21,1	;volsfr
  5465  01C9                     l1859:
  5466                           
  5467                           ;apps/src/memory.c: 48:     __nop();
  5468  01C9  0000               	nop
  5469  01CA                     l1861:
  5470                           
  5471                           ;apps/src/memory.c: 49:     __nop();
  5472  01CA  0000               	nop
  5473  01CB                     l432:
  5474  01CB  0008               	return
  5475  01CC                     __end_of_UnlockFlashWrite:
  5476                           
  5477                           	psect	text6
  5478  0245                     __ptext6:	
  5479 ;; *************** function _UART_preamFound *****************
  5480 ;; Defined at:
  5481 ;;		line 23 in file "apps/src/serial.c"
  5482 ;; Parameters:    Size  Location     Type
  5483 ;;		None
  5484 ;; Auto vars:     Size  Location     Type
  5485 ;;  byte            1    1[COMMON] unsigned char 
  5486 ;; Return value:  Size  Location     Type
  5487 ;;                  1    wreg      _Bool 
  5488 ;; Registers used:
  5489 ;;		wreg, status,2, status,0, pclath, cstack
  5490 ;; Tracked objects:
  5491 ;;		On entry : 0/0
  5492 ;;		On exit  : 0/0
  5493 ;;		Unchanged: 0/0
  5494 ;; Data sizes:     COMMON   BANK0   BANK1   BANK2   BANK3   BANK4   BANK5   BANK6   BANK7   BANK8   BANK9  BANK10  BANK1
      +1  BANK12  BANK13  BANK14  BANK15  BANK16  BANK17  BANK18  BANK19  BANK20  BANK21  BANK22  BANK23  BANK24  BANK25
  5495 ;;      Params:         0       0       0       0       0       0       0       0       0       0       0       0       
      +0       0       0       0       0       0       0       0       0       0       0       0       0       0       0
  5496 ;;      Locals:         1       0       0       0       0       0       0       0       0       0       0       0       
      +0       0       0       0       0       0       0       0       0       0       0       0       0       0       0
  5497 ;;      Temps:          1       0       0       0       0       0       0       0       0       0       0       0       
      +0       0       0       0       0       0       0       0       0       0       0       0       0       0       0
  5498 ;;      Totals:         2       0       0       0       0       0       0       0       0       0       0       0       
      +0       0       0       0       0       0       0       0       0       0       0       0       0       0       0
  5499 ;;Total ram usage:        2 bytes
  5500 ;; Hardware stack levels used:    1
  5501 ;; Hardware stack levels required when called:    1
  5502 ;; This function calls:
  5503 ;;		_EUSART_Read
  5504 ;;		_EUSART_is_rx_ready
  5505 ;; This function is called by:
  5506 ;;		_main
  5507 ;; This function uses a non-reentrant model
  5508 ;;
  5509                           
  5510                           
  5511                           ;psect for function _UART_preamFound
  5512  0245                     _UART_preamFound:
  5513  0245                     l2199:	
  5514                           ;incstack = 0
  5515                           ; Regs used in _UART_preamFound: [wreg+status,2+status,0+pclath+cstack]
  5516                           
  5517  0245                     l2201:
  5518                           
  5519                           ;apps/src/serial.c: 25:     if (EUSART_is_rx_ready()){
  5520  0245  3181  219B  3182   	fcall	_EUSART_is_rx_ready
  5521  0248  3A00               	xorlw	0
  5522  0249  1903               	skipnz
  5523  024A  2A4C               	goto	u661
  5524  024B  2A4D               	goto	u660
  5525  024C                     u661:
  5526  024C  2A5B               	goto	l2211
  5527  024D                     u660:
  5528  024D                     l2203:
  5529                           
  5530                           ;apps/src/serial.c: 26:         byte = EUSART_Read();
  5531  024D  3181  21EF  3182   	fcall	_EUSART_Read
  5532  0250  00F0               	movwf	??_UART_preamFound
  5533  0251  0870               	movf	??_UART_preamFound,w
  5534  0252  00F1               	movwf	UART_preamFound@byte
  5535  0253                     l2205:
  5536                           
  5537                           ;apps/src/serial.c: 27:         if (byte == 0x55){
  5538  0253  3055               	movlw	85
  5539  0254  0671               	xorwf	UART_preamFound@byte,w
  5540  0255  1D03               	btfss	3,2
  5541  0256  2A58               	goto	u671
  5542  0257  2A59               	goto	u670
  5543  0258                     u671:
  5544  0258  2A5B               	goto	l2211
  5545  0259                     u670:
  5546  0259                     l2207:
  5547                           
  5548                           ;apps/src/serial.c: 28:             return 1;
  5549  0259  3001               	movlw	1
  5550  025A  2A5C               	goto	l409
  5551  025B                     l2211:
  5552                           
  5553                           ;apps/src/serial.c: 31:     return 0;
  5554  025B  3000               	movlw	0
  5555  025C                     l409:
  5556  025C  0008               	return
  5557  025D                     __end_of_UART_preamFound:
  5558                           
  5559                           	psect	text7
  5560  019B                     __ptext7:	
  5561 ;; *************** function _EUSART_is_rx_ready *****************
  5562 ;; Defined at:
  5563 ;;		line 99 in file "mcc_generated_files/eusart.c"
  5564 ;; Parameters:    Size  Location     Type
  5565 ;;		None
  5566 ;; Auto vars:     Size  Location     Type
  5567 ;;		None
  5568 ;; Return value:  Size  Location     Type
  5569 ;;                  1    wreg      _Bool 
  5570 ;; Registers used:
  5571 ;;		wreg, status,2, status,0
  5572 ;; Tracked objects:
  5573 ;;		On entry : 0/0
  5574 ;;		On exit  : 0/0
  5575 ;;		Unchanged: 0/0
  5576 ;; Data sizes:     COMMON   BANK0   BANK1   BANK2   BANK3   BANK4   BANK5   BANK6   BANK7   BANK8   BANK9  BANK10  BANK1
      +1  BANK12  BANK13  BANK14  BANK15  BANK16  BANK17  BANK18  BANK19  BANK20  BANK21  BANK22  BANK23  BANK24  BANK25
  5577 ;;      Params:         0       0       0       0       0       0       0       0       0       0       0       0       
      +0       0       0       0       0       0       0       0       0       0       0       0       0       0       0
  5578 ;;      Locals:         0       0       0       0       0       0       0       0       0       0       0       0       
      +0       0       0       0       0       0       0       0       0       0       0       0       0       0       0
  5579 ;;      Temps:          0       0       0       0       0       0       0       0       0       0       0       0       
      +0       0       0       0       0       0       0       0       0       0       0       0       0       0       0
  5580 ;;      Totals:         0       0       0       0       0       0       0       0       0       0       0       0       
      +0       0       0       0       0       0       0       0       0       0       0       0       0       0       0
  5581 ;;Total ram usage:        0 bytes
  5582 ;; Hardware stack levels used:    1
  5583 ;; This function calls:
  5584 ;;		Nothing
  5585 ;; This function is called by:
  5586 ;;		_UART_preamFound
  5587 ;; This function uses a non-reentrant model
  5588 ;;
  5589                           
  5590                           
  5591                           ;psect for function _EUSART_is_rx_ready
  5592  019B                     _EUSART_is_rx_ready:
  5593  019B                     l1923:	
  5594                           ;incstack = 0
  5595                           ; Regs used in _EUSART_is_rx_ready: [wreg+status,2+status,0]
  5596                           
  5597                           
  5598                           ;mcc_generated_files/eusart.c: 101:     return (_Bool)(PIR1bits.RCIF);
  5599  019B  0020               	movlb	0	; select bank0
  5600  019C  0E11               	swapf	17,w	;volatile
  5601  019D  0C89               	rrf	9,f
  5602  019E  3901               	andlw	1
  5603  019F                     l112:
  5604  019F  0008               	return
  5605  01A0                     __end_of_EUSART_is_rx_ready:
  5606                           
  5607                           	psect	text8
  5608  030A                     __ptext8:	
  5609 ;; *************** function _UART_dataWrite *****************
  5610 ;; Defined at:
  5611 ;;		line 3 in file "apps/src/serial.c"
  5612 ;; Parameters:    Size  Location     Type
  5613 ;;  data_ptr        1    wreg     PTR unsigned char 
  5614 ;;		 -> main@send_frame(66), 
  5615 ;;  size            1    1[COMMON] unsigned char 
  5616 ;; Auto vars:     Size  Location     Type
  5617 ;;  data_ptr        1    3[COMMON] PTR unsigned char 
  5618 ;;		 -> main@send_frame(66), 
  5619 ;;  i               1    4[COMMON] unsigned char 
  5620 ;; Return value:  Size  Location     Type
  5621 ;;                  1    wreg      unsigned char 
  5622 ;; Registers used:
  5623 ;;		wreg, fsr1l, fsr1h, status,2, status,0, pclath, cstack
  5624 ;; Tracked objects:
  5625 ;;		On entry : 0/0
  5626 ;;		On exit  : 0/0
  5627 ;;		Unchanged: 0/0
  5628 ;; Data sizes:     COMMON   BANK0   BANK1   BANK2   BANK3   BANK4   BANK5   BANK6   BANK7   BANK8   BANK9  BANK10  BANK1
      +1  BANK12  BANK13  BANK14  BANK15  BANK16  BANK17  BANK18  BANK19  BANK20  BANK21  BANK22  BANK23  BANK24  BANK25
  5629 ;;      Params:         1       0       0       0       0       0       0       0       0       0       0       0       
      +0       0       0       0       0       0       0       0       0       0       0       0       0       0       0
  5630 ;;      Locals:         2       0       0       0       0       0       0       0       0       0       0       0       
      +0       0       0       0       0       0       0       0       0       0       0       0       0       0       0
  5631 ;;      Temps:          1       0       0       0       0       0       0       0       0       0       0       0       
      +0       0       0       0       0       0       0       0       0       0       0       0       0       0       0
  5632 ;;      Totals:         4       0       0       0       0       0       0       0       0       0       0       0       
      +0       0       0       0       0       0       0       0       0       0       0       0       0       0       0
  5633 ;;Total ram usage:        4 bytes
  5634 ;; Hardware stack levels used:    1
  5635 ;; Hardware stack levels required when called:    1
  5636 ;; This function calls:
  5637 ;;		_EUSART_Write
  5638 ;;		_EUSART_is_tx_done
  5639 ;;		_EUSART_is_tx_ready
  5640 ;; This function is called by:
  5641 ;;		_main
  5642 ;; This function uses a non-reentrant model
  5643 ;;
  5644                           
  5645                           
  5646                           ;psect for function _UART_dataWrite
  5647  030A                     _UART_dataWrite:
  5648                           
  5649                           ;incstack = 0
  5650                           ; Regs used in _UART_dataWrite: [wreg+fsr1l+fsr1h+status,2+status,0+pclath+cstack]
  5651                           ;UART_dataWrite@data_ptr stored from wreg
  5652  030A  00F3               	movwf	UART_dataWrite@data_ptr
  5653  030B                     l2389:
  5654  030B                     l2391:
  5655                           
  5656                           ;apps/src/serial.c: 5:     if (!EUSART_is_tx_done()){
  5657  030B  3181  2197  3183   	fcall	_EUSART_is_tx_done
  5658  030E  3A00               	xorlw	0
  5659  030F  1D03               	skipz
  5660  0310  2B12               	goto	u731
  5661  0311  2B13               	goto	u730
  5662  0312                     u731:
  5663  0312  2B17               	goto	l2395
  5664  0313                     u730:
  5665  0313                     l2393:
  5666                           
  5667                           ;apps/src/serial.c: 6:      _delay((unsigned long)((300)*(16000000/4000000.0)));
  5668  0313  30F0               	movlw	240
  5669  0314                     u917:
  5670  0314  3200               	nop2
  5671  0315  0B89               	decfsz	9,f
  5672  0316  2B14               	goto	u917
  5673  0317                     l2395:
  5674                           
  5675                           ;apps/src/serial.c: 9:     if (EUSART_is_tx_ready()){
  5676  0317  3181  21FE  3183   	fcall	_EUSART_is_tx_ready
  5677  031A  3A00               	xorlw	0
  5678  031B  1903               	skipnz
  5679  031C  2B1E               	goto	u741
  5680  031D  2B1F               	goto	u740
  5681  031E                     u741:
  5682  031E  2B39               	goto	l401
  5683  031F                     u740:
  5684  031F                     l2397:
  5685                           
  5686                           ;apps/src/serial.c: 10:         EUSART_Write(0xAA);
  5687  031F  30AA               	movlw	170
  5688  0320  3181  21CC  3183   	fcall	_EUSART_Write
  5689  0323                     l2399:
  5690                           
  5691                           ;apps/src/serial.c: 11:         for (i = 0; i != size; i++){
  5692  0323  01F4               	clrf	UART_dataWrite@i
  5693  0324  2B33               	goto	l2405
  5694  0325                     l2401:
  5695                           
  5696                           ;apps/src/serial.c: 12:             EUSART_Write(data_ptr[i]);
  5697  0325  0874               	movf	UART_dataWrite@i,w
  5698  0326  0773               	addwf	UART_dataWrite@data_ptr,w
  5699  0327  00F2               	movwf	??_UART_dataWrite
  5700  0328  0872               	movf	??_UART_dataWrite,w
  5701  0329  0086               	movwf	6
  5702  032A  0187               	clrf	7
  5703  032B  0801               	movf	1,w
  5704  032C  3181  21CC  3183   	fcall	_EUSART_Write
  5705  032F                     l2403:
  5706                           
  5707                           ;apps/src/serial.c: 13:         }
  5708  032F  3001               	movlw	1
  5709  0330  00F2               	movwf	??_UART_dataWrite
  5710  0331  0872               	movf	??_UART_dataWrite,w
  5711  0332  07F4               	addwf	UART_dataWrite@i,f
  5712  0333                     l2405:
  5713  0333  0874               	movf	UART_dataWrite@i,w
  5714  0334  0671               	xorwf	UART_dataWrite@size,w
  5715  0335  1D03               	skipz
  5716  0336  2B38               	goto	u751
  5717  0337  2B39               	goto	u750
  5718  0338                     u751:
  5719  0338  2B25               	goto	l2401
  5720  0339                     u750:
  5721  0339                     l401:
  5722  0339  0008               	return
  5723  033A                     __end_of_UART_dataWrite:
  5724                           
  5725                           	psect	text9
  5726  01FE                     __ptext9:	
  5727 ;; *************** function _EUSART_is_tx_ready *****************
  5728 ;; Defined at:
  5729 ;;		line 94 in file "mcc_generated_files/eusart.c"
  5730 ;; Parameters:    Size  Location     Type
  5731 ;;		None
  5732 ;; Auto vars:     Size  Location     Type
  5733 ;;		None
  5734 ;; Return value:  Size  Location     Type
  5735 ;;                  1    wreg      _Bool 
  5736 ;; Registers used:
  5737 ;;		wreg, status,2
  5738 ;; Tracked objects:
  5739 ;;		On entry : 0/0
  5740 ;;		On exit  : 0/0
  5741 ;;		Unchanged: 0/0
  5742 ;; Data sizes:     COMMON   BANK0   BANK1   BANK2   BANK3   BANK4   BANK5   BANK6   BANK7   BANK8   BANK9  BANK10  BANK1
      +1  BANK12  BANK13  BANK14  BANK15  BANK16  BANK17  BANK18  BANK19  BANK20  BANK21  BANK22  BANK23  BANK24  BANK25
  5743 ;;      Params:         0       0       0       0       0       0       0       0       0       0       0       0       
      +0       0       0       0       0       0       0       0       0       0       0       0       0       0       0
  5744 ;;      Locals:         1       0       0       0       0       0       0       0       0       0       0       0       
      +0       0       0       0       0       0       0       0       0       0       0       0       0       0       0
  5745 ;;      Temps:          0       0       0       0       0       0       0       0       0       0       0       0       
      +0       0       0       0       0       0       0       0       0       0       0       0       0       0       0
  5746 ;;      Totals:         1       0       0       0       0       0       0       0       0       0       0       0       
      +0       0       0       0       0       0       0       0       0       0       0       0       0       0       0
  5747 ;;Total ram usage:        1 bytes
  5748 ;; Hardware stack levels used:    1
  5749 ;; This function calls:
  5750 ;;		Nothing
  5751 ;; This function is called by:
  5752 ;;		_UART_dataWrite
  5753 ;; This function uses a non-reentrant model
  5754 ;;
  5755                           
  5756                           
  5757                           ;psect for function _EUSART_is_tx_ready
  5758  01FE                     _EUSART_is_tx_ready:
  5759  01FE                     l1911:	
  5760                           ;incstack = 0
  5761                           ; Regs used in _EUSART_is_tx_ready: [wreg+status,2]
  5762                           
  5763                           
  5764                           ;mcc_generated_files/eusart.c: 96:     return (_Bool)(PIR1bits.TXIF && TX1STAbits.TXEN);
  5765  01FE  01F0               	clrf	_EUSART_is_tx_ready$283
  5766  01FF                     l1913:
  5767  01FF  0020               	movlb	0	; select bank0
  5768  0200  1E11               	btfss	17,4	;volatile
  5769  0201  2A03               	goto	u481
  5770  0202  2A04               	goto	u480
  5771  0203                     u481:
  5772  0203  2A0B               	goto	l1919
  5773  0204                     u480:
  5774  0204                     l1915:
  5775  0204  0023               	movlb	3	; select bank3
  5776  0205  1E9E               	btfss	30,5	;volatile
  5777  0206  2A08               	goto	u491
  5778  0207  2A09               	goto	u490
  5779  0208                     u491:
  5780  0208  2A0B               	goto	l1919
  5781  0209                     u490:
  5782  0209                     l1917:
  5783  0209  01F0               	clrf	_EUSART_is_tx_ready$283
  5784  020A  0AF0               	incf	_EUSART_is_tx_ready$283,f
  5785  020B                     l1919:
  5786  020B  0870               	movf	_EUSART_is_tx_ready$283,w
  5787  020C                     l109:
  5788  020C  0008               	return
  5789  020D                     __end_of_EUSART_is_tx_ready:
  5790                           
  5791                           	psect	text10
  5792  0197                     __ptext10:	
  5793 ;; *************** function _EUSART_is_tx_done *****************
  5794 ;; Defined at:
  5795 ;;		line 104 in file "mcc_generated_files/eusart.c"
  5796 ;; Parameters:    Size  Location     Type
  5797 ;;		None
  5798 ;; Auto vars:     Size  Location     Type
  5799 ;;		None
  5800 ;; Return value:  Size  Location     Type
  5801 ;;                  1    wreg      _Bool 
  5802 ;; Registers used:
  5803 ;;		wreg, status,2, status,0
  5804 ;; Tracked objects:
  5805 ;;		On entry : 0/0
  5806 ;;		On exit  : 0/0
  5807 ;;		Unchanged: 0/0
  5808 ;; Data sizes:     COMMON   BANK0   BANK1   BANK2   BANK3   BANK4   BANK5   BANK6   BANK7   BANK8   BANK9  BANK10  BANK1
      +1  BANK12  BANK13  BANK14  BANK15  BANK16  BANK17  BANK18  BANK19  BANK20  BANK21  BANK22  BANK23  BANK24  BANK25
  5809 ;;      Params:         0       0       0       0       0       0       0       0       0       0       0       0       
      +0       0       0       0       0       0       0       0       0       0       0       0       0       0       0
  5810 ;;      Locals:         0       0       0       0       0       0       0       0       0       0       0       0       
      +0       0       0       0       0       0       0       0       0       0       0       0       0       0       0
  5811 ;;      Temps:          0       0       0       0       0       0       0       0       0       0       0       0       
      +0       0       0       0       0       0       0       0       0       0       0       0       0       0       0
  5812 ;;      Totals:         0       0       0       0       0       0       0       0       0       0       0       0       
      +0       0       0       0       0       0       0       0       0       0       0       0       0       0       0
  5813 ;;Total ram usage:        0 bytes
  5814 ;; Hardware stack levels used:    1
  5815 ;; This function calls:
  5816 ;;		Nothing
  5817 ;; This function is called by:
  5818 ;;		_UART_dataWrite
  5819 ;; This function uses a non-reentrant model
  5820 ;;
  5821                           
  5822                           
  5823                           ;psect for function _EUSART_is_tx_done
  5824  0197                     _EUSART_is_tx_done:
  5825  0197                     l1927:	
  5826                           ;incstack = 0
  5827                           ; Regs used in _EUSART_is_tx_done: [wreg+status,2+status,0]
  5828                           
  5829                           
  5830                           ;mcc_generated_files/eusart.c: 106:     return TX1STAbits.TRMT;
  5831  0197  0023               	movlb	3	; select bank3
  5832  0198  0C1E               	rrf	30,w	;volatile
  5833  0199  3901               	andlw	1
  5834  019A                     l115:
  5835  019A  0008               	return
  5836  019B                     __end_of_EUSART_is_tx_done:
  5837                           
  5838                           	psect	text11
  5839  01CC                     __ptext11:	
  5840 ;; *************** function _EUSART_Write *****************
  5841 ;; Defined at:
  5842 ;;		line 132 in file "mcc_generated_files/eusart.c"
  5843 ;; Parameters:    Size  Location     Type
  5844 ;;  txData          1    wreg     unsigned char 
  5845 ;; Auto vars:     Size  Location     Type
  5846 ;;  txData          1    0[COMMON] unsigned char 
  5847 ;; Return value:  Size  Location     Type
  5848 ;;                  1    wreg      void 
  5849 ;; Registers used:
  5850 ;;		wreg
  5851 ;; Tracked objects:
  5852 ;;		On entry : 0/0
  5853 ;;		On exit  : 0/0
  5854 ;;		Unchanged: 0/0
  5855 ;; Data sizes:     COMMON   BANK0   BANK1   BANK2   BANK3   BANK4   BANK5   BANK6   BANK7   BANK8   BANK9  BANK10  BANK1
      +1  BANK12  BANK13  BANK14  BANK15  BANK16  BANK17  BANK18  BANK19  BANK20  BANK21  BANK22  BANK23  BANK24  BANK25
  5856 ;;      Params:         0       0       0       0       0       0       0       0       0       0       0       0       
      +0       0       0       0       0       0       0       0       0       0       0       0       0       0       0
  5857 ;;      Locals:         1       0       0       0       0       0       0       0       0       0       0       0       
      +0       0       0       0       0       0       0       0       0       0       0       0       0       0       0
  5858 ;;      Temps:          0       0       0       0       0       0       0       0       0       0       0       0       
      +0       0       0       0       0       0       0       0       0       0       0       0       0       0       0
  5859 ;;      Totals:         1       0       0       0       0       0       0       0       0       0       0       0       
      +0       0       0       0       0       0       0       0       0       0       0       0       0       0       0
  5860 ;;Total ram usage:        1 bytes
  5861 ;; Hardware stack levels used:    1
  5862 ;; This function calls:
  5863 ;;		Nothing
  5864 ;; This function is called by:
  5865 ;;		_UART_dataWrite
  5866 ;; This function uses a non-reentrant model
  5867 ;;
  5868                           
  5869                           
  5870                           ;psect for function _EUSART_Write
  5871  01CC                     _EUSART_Write:
  5872                           
  5873                           ;incstack = 0
  5874                           ; Regs used in _EUSART_Write: [wreg]
  5875                           ;EUSART_Write@txData stored from wreg
  5876  01CC  00F0               	movwf	EUSART_Write@txData
  5877  01CD                     l1943:
  5878  01CD                     l128:	
  5879                           ;mcc_generated_files/eusart.c: 135:     {;mcc_generated_files/eusart.c: 136:     }
  5880                           
  5881                           
  5882                           ;mcc_generated_files/eusart.c: 134:     while(0 == PIR1bits.TXIF)
  5883  01CD  0020               	movlb	0	; select bank0
  5884  01CE  1E11               	btfss	17,4	;volatile
  5885  01CF  29D1               	goto	u521
  5886  01D0  29D2               	goto	u520
  5887  01D1                     u521:
  5888  01D1  29CD               	goto	l128
  5889  01D2                     u520:
  5890  01D2                     l1945:
  5891                           
  5892                           ;mcc_generated_files/eusart.c: 138:     TX1REG = txData;
  5893  01D2  0870               	movf	EUSART_Write@txData,w
  5894  01D3  0023               	movlb	3	; select bank3
  5895  01D4  009A               	movwf	26	;volatile
  5896  01D5                     l131:
  5897  01D5  0008               	return
  5898  01D6                     __end_of_EUSART_Write:
  5899                           
  5900                           	psect	text12
  5901  0193                     __ptext12:	
  5902 ;; *************** function _UART_byteRead *****************
  5903 ;; Defined at:
  5904 ;;		line 19 in file "apps/src/serial.c"
  5905 ;; Parameters:    Size  Location     Type
  5906 ;;		None
  5907 ;; Auto vars:     Size  Location     Type
  5908 ;;		None
  5909 ;; Return value:  Size  Location     Type
  5910 ;;                  1    wreg      unsigned char 
  5911 ;; Registers used:
  5912 ;;		wreg, status,2, pclath, cstack
  5913 ;; Tracked objects:
  5914 ;;		On entry : 0/0
  5915 ;;		On exit  : 0/0
  5916 ;;		Unchanged: 0/0
  5917 ;; Data sizes:     COMMON   BANK0   BANK1   BANK2   BANK3   BANK4   BANK5   BANK6   BANK7   BANK8   BANK9  BANK10  BANK1
      +1  BANK12  BANK13  BANK14  BANK15  BANK16  BANK17  BANK18  BANK19  BANK20  BANK21  BANK22  BANK23  BANK24  BANK25
  5918 ;;      Params:         0       0       0       0       0       0       0       0       0       0       0       0       
      +0       0       0       0       0       0       0       0       0       0       0       0       0       0       0
  5919 ;;      Locals:         0       0       0       0       0       0       0       0       0       0       0       0       
      +0       0       0       0       0       0       0       0       0       0       0       0       0       0       0
  5920 ;;      Temps:          0       0       0       0       0       0       0       0       0       0       0       0       
      +0       0       0       0       0       0       0       0       0       0       0       0       0       0       0
  5921 ;;      Totals:         0       0       0       0       0       0       0       0       0       0       0       0       
      +0       0       0       0       0       0       0       0       0       0       0       0       0       0       0
  5922 ;;Total ram usage:        0 bytes
  5923 ;; Hardware stack levels used:    1
  5924 ;; Hardware stack levels required when called:    1
  5925 ;; This function calls:
  5926 ;;		_EUSART_Read
  5927 ;; This function is called by:
  5928 ;;		_main
  5929 ;; This function uses a non-reentrant model
  5930 ;;
  5931                           
  5932                           
  5933                           ;psect for function _UART_byteRead
  5934  0193                     _UART_byteRead:
  5935  0193                     l2215:	
  5936                           ;incstack = 0
  5937                           ; Regs used in _UART_byteRead: [wreg+status,2+pclath+cstack]
  5938                           
  5939                           
  5940                           ;apps/src/serial.c: 20:         return EUSART_Read();
  5941  0193  3181  21EF  3181   	fcall	_EUSART_Read
  5942  0196                     l404:
  5943  0196  0008               	return
  5944  0197                     __end_of_UART_byteRead:
  5945                           
  5946                           	psect	text13
  5947  01EF                     __ptext13:	
  5948 ;; *************** function _EUSART_Read *****************
  5949 ;; Defined at:
  5950 ;;		line 113 in file "mcc_generated_files/eusart.c"
  5951 ;; Parameters:    Size  Location     Type
  5952 ;;		None
  5953 ;; Auto vars:     Size  Location     Type
  5954 ;;		None
  5955 ;; Return value:  Size  Location     Type
  5956 ;;                  1    wreg      unsigned char 
  5957 ;; Registers used:
  5958 ;;		wreg, status,2
  5959 ;; Tracked objects:
  5960 ;;		On entry : 0/0
  5961 ;;		On exit  : 0/0
  5962 ;;		Unchanged: 0/0
  5963 ;; Data sizes:     COMMON   BANK0   BANK1   BANK2   BANK3   BANK4   BANK5   BANK6   BANK7   BANK8   BANK9  BANK10  BANK1
      +1  BANK12  BANK13  BANK14  BANK15  BANK16  BANK17  BANK18  BANK19  BANK20  BANK21  BANK22  BANK23  BANK24  BANK25
  5964 ;;      Params:         0       0       0       0       0       0       0       0       0       0       0       0       
      +0       0       0       0       0       0       0       0       0       0       0       0       0       0       0
  5965 ;;      Locals:         0       0       0       0       0       0       0       0       0       0       0       0       
      +0       0       0       0       0       0       0       0       0       0       0       0       0       0       0
  5966 ;;      Temps:          0       0       0       0       0       0       0       0       0       0       0       0       
      +0       0       0       0       0       0       0       0       0       0       0       0       0       0       0
  5967 ;;      Totals:         0       0       0       0       0       0       0       0       0       0       0       0       
      +0       0       0       0       0       0       0       0       0       0       0       0       0       0       0
  5968 ;;Total ram usage:        0 bytes
  5969 ;; Hardware stack levels used:    1
  5970 ;; This function calls:
  5971 ;;		Nothing
  5972 ;; This function is called by:
  5973 ;;		_UART_byteRead
  5974 ;;		_UART_preamFound
  5975 ;; This function uses a non-reentrant model
  5976 ;;
  5977                           
  5978                           
  5979                           ;psect for function _EUSART_Read
  5980  01EF                     _EUSART_Read:
  5981  01EF                     l1931:	
  5982                           ;incstack = 0
  5983                           ; Regs used in _EUSART_Read: [wreg+status,2]
  5984                           
  5985  01EF                     l121:	
  5986                           ;mcc_generated_files/eusart.c: 116:     {;mcc_generated_files/eusart.c: 117:     }
  5987                           
  5988                           
  5989                           ;mcc_generated_files/eusart.c: 115:     while(!PIR1bits.RCIF)
  5990  01EF  0020               	movlb	0	; select bank0
  5991  01F0  1E91               	btfss	17,5	;volatile
  5992  01F1  29F3               	goto	u501
  5993  01F2  29F4               	goto	u500
  5994  01F3                     u501:
  5995  01F3  29EF               	goto	l121
  5996  01F4                     u500:
  5997  01F4                     l1933:
  5998                           
  5999                           ;mcc_generated_files/eusart.c: 119:     eusartRxLastError.status = 0;
  6000  01F4  01EE               	clrf	_eusartRxLastError	;volatile
  6001  01F5                     l1935:
  6002                           
  6003                           ;mcc_generated_files/eusart.c: 121:     if(1 == RC1STAbits.OERR)
  6004  01F5  0023               	movlb	3	; select bank3
  6005  01F6  1C9D               	btfss	29,1	;volatile
  6006  01F7  29F9               	goto	u511
  6007  01F8  29FA               	goto	u510
  6008  01F9                     u511:
  6009  01F9  29FC               	goto	l1939
  6010  01FA                     u510:
  6011  01FA                     l1937:
  6012                           
  6013                           ;mcc_generated_files/eusart.c: 122:     {;mcc_generated_files/eusart.c: 125:         RC1
      +                          STAbits.CREN = 0;
  6014  01FA  121D               	bcf	29,4	;volatile
  6015                           
  6016                           ;mcc_generated_files/eusart.c: 126:         RC1STAbits.CREN = 1;
  6017  01FB  161D               	bsf	29,4	;volatile
  6018  01FC                     l1939:
  6019                           
  6020                           ;mcc_generated_files/eusart.c: 129:     return RC1REG;
  6021  01FC  0819               	movf	25,w	;volatile
  6022  01FD                     l125:
  6023  01FD  0008               	return
  6024  01FE                     __end_of_EUSART_Read:
  6025                           
  6026                           	psect	text14
  6027  018F                     __ptext14:	
  6028 ;; *************** function _StartApp *****************
  6029 ;; Defined at:
  6030 ;;		line 78 in file "apps/src/bootloader.c"
  6031 ;; Parameters:    Size  Location     Type
  6032 ;;		None
  6033 ;; Auto vars:     Size  Location     Type
  6034 ;;		None
  6035 ;; Return value:  Size  Location     Type
  6036 ;;                  1    wreg      void 
  6037 ;; Registers used:
  6038 ;;		None
  6039 ;; Tracked objects:
  6040 ;;		On entry : 0/0
  6041 ;;		On exit  : 0/0
  6042 ;;		Unchanged: 0/0
  6043 ;; Data sizes:     COMMON   BANK0   BANK1   BANK2   BANK3   BANK4   BANK5   BANK6   BANK7   BANK8   BANK9  BANK10  BANK1
      +1  BANK12  BANK13  BANK14  BANK15  BANK16  BANK17  BANK18  BANK19  BANK20  BANK21  BANK22  BANK23  BANK24  BANK25
  6044 ;;      Params:         0       0       0       0       0       0       0       0       0       0       0       0       
      +0       0       0       0       0       0       0       0       0       0       0       0       0       0       0
  6045 ;;      Locals:         0       0       0       0       0       0       0       0       0       0       0       0       
      +0       0       0       0       0       0       0       0       0       0       0       0       0       0       0
  6046 ;;      Temps:          0       0       0       0       0       0       0       0       0       0       0       0       
      +0       0       0       0       0       0       0       0       0       0       0       0       0       0       0
  6047 ;;      Totals:         0       0       0       0       0       0       0       0       0       0       0       0       
      +0       0       0       0       0       0       0       0       0       0       0       0       0       0       0
  6048 ;;Total ram usage:        0 bytes
  6049 ;; Hardware stack levels used:    1
  6050 ;; This function calls:
  6051 ;;		Nothing
  6052 ;; This function is called by:
  6053 ;;		_main
  6054 ;; This function uses a non-reentrant model
  6055 ;;
  6056                           
  6057                           
  6058                           ;psect for function _StartApp
  6059  018F                     _StartApp:
  6060  018F                     l374:	
  6061                           ;incstack = 0
  6062                           ; Regs used in _StartApp: []
  6063                           ;apps/src/bootloader.c: 81:     do { LATEbits.LATE0 = 0; } while(0);
  6064                           
  6065  018F  0022               	movlb	2	; select bank2
  6066  0190  1010               	bcf	16,0	;volatile
  6067  0191                     l376:	
  6068                           ;apps/src/bootloader.c: 82:     while(1){}
  6069                           
  6070  0191  2991               	goto	l376
  6071  0192  0008               	return
  6072  0193                     __end_of_StartApp:
  6073                           
  6074                           	psect	text15
  6075  020D                     __ptext15:	
  6076 ;; *************** function _SYSTEM_Initialize *****************
  6077 ;; Defined at:
  6078 ;;		line 50 in file "mcc_generated_files/mcc.c"
  6079 ;; Parameters:    Size  Location     Type
  6080 ;;		None
  6081 ;; Auto vars:     Size  Location     Type
  6082 ;;		None
  6083 ;; Return value:  Size  Location     Type
  6084 ;;                  1    wreg      void 
  6085 ;; Registers used:
  6086 ;;		wreg, status,2, status,0, pclath, cstack
  6087 ;; Tracked objects:
  6088 ;;		On entry : 0/0
  6089 ;;		On exit  : 0/0
  6090 ;;		Unchanged: 0/0
  6091 ;; Data sizes:     COMMON   BANK0   BANK1   BANK2   BANK3   BANK4   BANK5   BANK6   BANK7   BANK8   BANK9  BANK10  BANK1
      +1  BANK12  BANK13  BANK14  BANK15  BANK16  BANK17  BANK18  BANK19  BANK20  BANK21  BANK22  BANK23  BANK24  BANK25
  6092 ;;      Params:         0       0       0       0       0       0       0       0       0       0       0       0       
      +0       0       0       0       0       0       0       0       0       0       0       0       0       0       0
  6093 ;;      Locals:         0       0       0       0       0       0       0       0       0       0       0       0       
      +0       0       0       0       0       0       0       0       0       0       0       0       0       0       0
  6094 ;;      Temps:          0       0       0       0       0       0       0       0       0       0       0       0       
      +0       0       0       0       0       0       0       0       0       0       0       0       0       0       0
  6095 ;;      Totals:         0       0       0       0       0       0       0       0       0       0       0       0       
      +0       0       0       0       0       0       0       0       0       0       0       0       0       0       0
  6096 ;;Total ram usage:        0 bytes
  6097 ;; Hardware stack levels used:    1
  6098 ;; Hardware stack levels required when called:    2
  6099 ;; This function calls:
  6100 ;;		_EUSART_Initialize
  6101 ;;		_OSCILLATOR_Initialize
  6102 ;;		_PIN_MANAGER_Initialize
  6103 ;;		_SPI_Initialize
  6104 ;;		_WDT_Initialize
  6105 ;; This function is called by:
  6106 ;;		_main
  6107 ;; This function uses a non-reentrant model
  6108 ;;
  6109                           
  6110                           
  6111                           ;psect for function _SYSTEM_Initialize
  6112  020D                     _SYSTEM_Initialize:
  6113  020D                     l2107:	
  6114                           ;incstack = 0
  6115                           ; Regs used in _SYSTEM_Initialize: [wreg+status,2+status,0+pclath+cstack]
  6116                           
  6117                           
  6118                           ;mcc_generated_files/mcc.c: 53:     SPI_Initialize();
  6119  020D  3181  21D6  3182   	fcall	_SPI_Initialize
  6120                           
  6121                           ;mcc_generated_files/mcc.c: 54:     PIN_MANAGER_Initialize();
  6122  0210  3183  233A  3182   	fcall	_PIN_MANAGER_Initialize
  6123                           
  6124                           ;mcc_generated_files/mcc.c: 55:     OSCILLATOR_Initialize();
  6125  0213  3181  21B2  3182   	fcall	_OSCILLATOR_Initialize
  6126                           
  6127                           ;mcc_generated_files/mcc.c: 56:     WDT_Initialize();
  6128  0216  3181  218B  3182   	fcall	_WDT_Initialize
  6129                           
  6130                           ;mcc_generated_files/mcc.c: 57:     EUSART_Initialize();
  6131  0219  3182  22BE  3182   	fcall	_EUSART_Initialize
  6132  021C                     l172:
  6133  021C  0008               	return
  6134  021D                     __end_of_SYSTEM_Initialize:
  6135                           
  6136                           	psect	text16
  6137  018B                     __ptext16:	
  6138 ;; *************** function _WDT_Initialize *****************
  6139 ;; Defined at:
  6140 ;;		line 72 in file "mcc_generated_files/mcc.c"
  6141 ;; Parameters:    Size  Location     Type
  6142 ;;		None
  6143 ;; Auto vars:     Size  Location     Type
  6144 ;;		None
  6145 ;; Return value:  Size  Location     Type
  6146 ;;                  1    wreg      void 
  6147 ;; Registers used:
  6148 ;;		wreg
  6149 ;; Tracked objects:
  6150 ;;		On entry : 0/0
  6151 ;;		On exit  : 0/0
  6152 ;;		Unchanged: 0/0
  6153 ;; Data sizes:     COMMON   BANK0   BANK1   BANK2   BANK3   BANK4   BANK5   BANK6   BANK7   BANK8   BANK9  BANK10  BANK1
      +1  BANK12  BANK13  BANK14  BANK15  BANK16  BANK17  BANK18  BANK19  BANK20  BANK21  BANK22  BANK23  BANK24  BANK25
  6154 ;;      Params:         0       0       0       0       0       0       0       0       0       0       0       0       
      +0       0       0       0       0       0       0       0       0       0       0       0       0       0       0
  6155 ;;      Locals:         0       0       0       0       0       0       0       0       0       0       0       0       
      +0       0       0       0       0       0       0       0       0       0       0       0       0       0       0
  6156 ;;      Temps:          0       0       0       0       0       0       0       0       0       0       0       0       
      +0       0       0       0       0       0       0       0       0       0       0       0       0       0       0
  6157 ;;      Totals:         0       0       0       0       0       0       0       0       0       0       0       0       
      +0       0       0       0       0       0       0       0       0       0       0       0       0       0       0
  6158 ;;Total ram usage:        0 bytes
  6159 ;; Hardware stack levels used:    1
  6160 ;; This function calls:
  6161 ;;		Nothing
  6162 ;; This function is called by:
  6163 ;;		_SYSTEM_Initialize
  6164 ;; This function uses a non-reentrant model
  6165 ;;
  6166                           
  6167                           
  6168                           ;psect for function _WDT_Initialize
  6169  018B                     _WDT_Initialize:
  6170  018B                     l2015:	
  6171                           ;incstack = 0
  6172                           ; Regs used in _WDT_Initialize: [wreg]
  6173                           
  6174                           
  6175                           ;mcc_generated_files/mcc.c: 75:     WDTCON = 0x22;
  6176  018B  3022               	movlw	34
  6177  018C  0021               	movlb	1	; select bank1
  6178  018D  0097               	movwf	23	;volatile
  6179  018E                     l178:
  6180  018E  0008               	return
  6181  018F                     __end_of_WDT_Initialize:
  6182                           
  6183                           	psect	text17
  6184  01D6                     __ptext17:	
  6185 ;; *************** function _SPI_Initialize *****************
  6186 ;; Defined at:
  6187 ;;		line 62 in file "mcc_generated_files/spi.c"
  6188 ;; Parameters:    Size  Location     Type
  6189 ;;		None
  6190 ;; Auto vars:     Size  Location     Type
  6191 ;;		None
  6192 ;; Return value:  Size  Location     Type
  6193 ;;                  1    wreg      void 
  6194 ;; Registers used:
  6195 ;;		wreg
  6196 ;; Tracked objects:
  6197 ;;		On entry : 0/0
  6198 ;;		On exit  : 0/0
  6199 ;;		Unchanged: 0/0
  6200 ;; Data sizes:     COMMON   BANK0   BANK1   BANK2   BANK3   BANK4   BANK5   BANK6   BANK7   BANK8   BANK9  BANK10  BANK1
      +1  BANK12  BANK13  BANK14  BANK15  BANK16  BANK17  BANK18  BANK19  BANK20  BANK21  BANK22  BANK23  BANK24  BANK25
  6201 ;;      Params:         0       0       0       0       0       0       0       0       0       0       0       0       
      +0       0       0       0       0       0       0       0       0       0       0       0       0       0       0
  6202 ;;      Locals:         0       0       0       0       0       0       0       0       0       0       0       0       
      +0       0       0       0       0       0       0       0       0       0       0       0       0       0       0
  6203 ;;      Temps:          0       0       0       0       0       0       0       0       0       0       0       0       
      +0       0       0       0       0       0       0       0       0       0       0       0       0       0       0
  6204 ;;      Totals:         0       0       0       0       0       0       0       0       0       0       0       0       
      +0       0       0       0       0       0       0       0       0       0       0       0       0       0       0
  6205 ;;Total ram usage:        0 bytes
  6206 ;; Hardware stack levels used:    1
  6207 ;; This function calls:
  6208 ;;		Nothing
  6209 ;; This function is called by:
  6210 ;;		_SYSTEM_Initialize
  6211 ;; This function uses a non-reentrant model
  6212 ;;
  6213                           
  6214                           
  6215                           ;psect for function _SPI_Initialize
  6216  01D6                     _SPI_Initialize:
  6217  01D6                     l1863:	
  6218                           ;incstack = 0
  6219                           ; Regs used in _SPI_Initialize: [wreg]
  6220                           
  6221                           
  6222                           ;mcc_generated_files/spi.c: 65:     SSP1STAT = 0x40;
  6223  01D6  3040               	movlw	64
  6224  01D7  0024               	movlb	4	; select bank4
  6225  01D8  0094               	movwf	20	;volatile
  6226                           
  6227                           ;mcc_generated_files/spi.c: 66:     SSP1CON1 = 0x02;
  6228  01D9  3002               	movlw	2
  6229  01DA  0095               	movwf	21	;volatile
  6230                           
  6231                           ;mcc_generated_files/spi.c: 67:     SSP1ADD = 0x01;
  6232  01DB  3001               	movlw	1
  6233  01DC  0092               	movwf	18	;volatile
  6234  01DD                     l1865:
  6235                           
  6236                           ;mcc_generated_files/spi.c: 68:     TRISCbits.TRISC3 = 0;
  6237  01DD  0021               	movlb	1	; select bank1
  6238  01DE  118E               	bcf	14,3	;volatile
  6239  01DF                     l1867:
  6240                           
  6241                           ;mcc_generated_files/spi.c: 69:     SSP1CON1bits.SSPEN = 0;
  6242  01DF  0024               	movlb	4	; select bank4
  6243  01E0  1295               	bcf	21,5	;volatile
  6244  01E1                     l21:
  6245  01E1  0008               	return
  6246  01E2                     __end_of_SPI_Initialize:
  6247                           
  6248                           	psect	text18
  6249  033A                     __ptext18:	
  6250 ;; *************** function _PIN_MANAGER_Initialize *****************
  6251 ;; Defined at:
  6252 ;;		line 55 in file "mcc_generated_files/pin_manager.c"
  6253 ;; Parameters:    Size  Location     Type
  6254 ;;		None
  6255 ;; Auto vars:     Size  Location     Type
  6256 ;;		None
  6257 ;; Return value:  Size  Location     Type
  6258 ;;                  1    wreg      void 
  6259 ;; Registers used:
  6260 ;;		wreg, status,2
  6261 ;; Tracked objects:
  6262 ;;		On entry : 0/0
  6263 ;;		On exit  : 0/0
  6264 ;;		Unchanged: 0/0
  6265 ;; Data sizes:     COMMON   BANK0   BANK1   BANK2   BANK3   BANK4   BANK5   BANK6   BANK7   BANK8   BANK9  BANK10  BANK1
      +1  BANK12  BANK13  BANK14  BANK15  BANK16  BANK17  BANK18  BANK19  BANK20  BANK21  BANK22  BANK23  BANK24  BANK25
  6266 ;;      Params:         0       0       0       0       0       0       0       0       0       0       0       0       
      +0       0       0       0       0       0       0       0       0       0       0       0       0       0       0
  6267 ;;      Locals:         0       0       0       0       0       0       0       0       0       0       0       0       
      +0       0       0       0       0       0       0       0       0       0       0       0       0       0       0
  6268 ;;      Temps:          0       0       0       0       0       0       0       0       0       0       0       0       
      +0       0       0       0       0       0       0       0       0       0       0       0       0       0       0
  6269 ;;      Totals:         0       0       0       0       0       0       0       0       0       0       0       0       
      +0       0       0       0       0       0       0       0       0       0       0       0       0       0       0
  6270 ;;Total ram usage:        0 bytes
  6271 ;; Hardware stack levels used:    1
  6272 ;; This function calls:
  6273 ;;		Nothing
  6274 ;; This function is called by:
  6275 ;;		_SYSTEM_Initialize
  6276 ;; This function uses a non-reentrant model
  6277 ;;
  6278                           
  6279                           
  6280                           ;psect for function _PIN_MANAGER_Initialize
  6281  033A                     _PIN_MANAGER_Initialize:
  6282  033A                     l1947:	
  6283                           ;incstack = 0
  6284                           ; Regs used in _PIN_MANAGER_Initialize: [wreg+status,2]
  6285                           
  6286                           
  6287                           ;mcc_generated_files/pin_manager.c: 60:     LATE = 0x00;
  6288  033A  0022               	movlb	2	; select bank2
  6289  033B  0190               	clrf	16	;volatile
  6290                           
  6291                           ;mcc_generated_files/pin_manager.c: 61:     LATD = 0x00;
  6292  033C  018F               	clrf	15	;volatile
  6293                           
  6294                           ;mcc_generated_files/pin_manager.c: 62:     LATA = 0x00;
  6295  033D  018C               	clrf	12	;volatile
  6296                           
  6297                           ;mcc_generated_files/pin_manager.c: 63:     LATB = 0x00;
  6298  033E  018D               	clrf	13	;volatile
  6299                           
  6300                           ;mcc_generated_files/pin_manager.c: 64:     LATC = 0x00;
  6301  033F  018E               	clrf	14	;volatile
  6302  0340                     l1949:
  6303                           
  6304                           ;mcc_generated_files/pin_manager.c: 69:     TRISE = 0x08;
  6305  0340  3008               	movlw	8
  6306  0341  0021               	movlb	1	; select bank1
  6307  0342  0090               	movwf	16	;volatile
  6308  0343                     l1951:
  6309                           
  6310                           ;mcc_generated_files/pin_manager.c: 70:     TRISA = 0xFE;
  6311  0343  30FE               	movlw	254
  6312  0344  008C               	movwf	12	;volatile
  6313  0345                     l1953:
  6314                           
  6315                           ;mcc_generated_files/pin_manager.c: 71:     TRISB = 0xFF;
  6316  0345  30FF               	movlw	255
  6317  0346  008D               	movwf	13	;volatile
  6318  0347                     l1955:
  6319                           
  6320                           ;mcc_generated_files/pin_manager.c: 72:     TRISC = 0x97;
  6321  0347  3097               	movlw	151
  6322  0348  008E               	movwf	14	;volatile
  6323  0349                     l1957:
  6324                           
  6325                           ;mcc_generated_files/pin_manager.c: 73:     TRISD = 0xFF;
  6326  0349  30FF               	movlw	255
  6327  034A  008F               	movwf	15	;volatile
  6328  034B                     l1959:
  6329                           
  6330                           ;mcc_generated_files/pin_manager.c: 78:     ANSELD = 0x07;
  6331  034B  3007               	movlw	7
  6332  034C  0023               	movlb	3	; select bank3
  6333  034D  008F               	movwf	15	;volatile
  6334  034E                     l1961:
  6335                           
  6336                           ;mcc_generated_files/pin_manager.c: 79:     ANSELC = 0x07;
  6337  034E  3007               	movlw	7
  6338  034F  008E               	movwf	14	;volatile
  6339  0350                     l1963:
  6340                           
  6341                           ;mcc_generated_files/pin_manager.c: 80:     ANSELB = 0x78;
  6342  0350  3078               	movlw	120
  6343  0351  008D               	movwf	13	;volatile
  6344                           
  6345                           ;mcc_generated_files/pin_manager.c: 81:     ANSELE = 0x00;
  6346  0352  0190               	clrf	16	;volatile
  6347  0353                     l1965:
  6348                           
  6349                           ;mcc_generated_files/pin_manager.c: 82:     ANSELA = 0xBE;
  6350  0353  30BE               	movlw	190
  6351  0354  008C               	movwf	12	;volatile
  6352  0355                     l1967:
  6353                           
  6354                           ;mcc_generated_files/pin_manager.c: 87:     WPUD = 0x00;
  6355  0355  0024               	movlb	4	; select bank4
  6356  0356  018F               	clrf	15	;volatile
  6357  0357                     l1969:
  6358                           
  6359                           ;mcc_generated_files/pin_manager.c: 88:     WPUE = 0x00;
  6360  0357  0190               	clrf	16	;volatile
  6361  0358                     l1971:
  6362                           
  6363                           ;mcc_generated_files/pin_manager.c: 89:     WPUB = 0x00;
  6364  0358  018D               	clrf	13	;volatile
  6365  0359                     l1973:
  6366                           
  6367                           ;mcc_generated_files/pin_manager.c: 90:     WPUA = 0x00;
  6368  0359  018C               	clrf	12	;volatile
  6369  035A                     l1975:
  6370                           
  6371                           ;mcc_generated_files/pin_manager.c: 91:     WPUC = 0x00;
  6372  035A  018E               	clrf	14	;volatile
  6373  035B                     l1977:
  6374                           
  6375                           ;mcc_generated_files/pin_manager.c: 92:     OPTION_REGbits.nWPUEN = 1;
  6376  035B  0021               	movlb	1	; select bank1
  6377  035C  1795               	bsf	21,7	;volatile
  6378  035D                     l1979:
  6379                           
  6380                           ;mcc_generated_files/pin_manager.c: 97:     ODCONE = 0x00;
  6381  035D  0025               	movlb	5	; select bank5
  6382  035E  0190               	clrf	16	;volatile
  6383  035F                     l1981:
  6384                           
  6385                           ;mcc_generated_files/pin_manager.c: 98:     ODCONA = 0x00;
  6386  035F  018C               	clrf	12	;volatile
  6387  0360                     l1983:
  6388                           
  6389                           ;mcc_generated_files/pin_manager.c: 99:     ODCONB = 0x00;
  6390  0360  018D               	clrf	13	;volatile
  6391  0361                     l1985:
  6392                           
  6393                           ;mcc_generated_files/pin_manager.c: 100:     ODCONC = 0x00;
  6394  0361  018E               	clrf	14	;volatile
  6395  0362                     l1987:
  6396                           
  6397                           ;mcc_generated_files/pin_manager.c: 101:     ODCOND = 0x00;
  6398  0362  018F               	clrf	15	;volatile
  6399  0363                     l1989:
  6400                           
  6401                           ;mcc_generated_files/pin_manager.c: 106:     SLRCONA = 0x00;
  6402  0363  0026               	movlb	6	; select bank6
  6403  0364  018C               	clrf	12	;volatile
  6404  0365                     l1991:
  6405                           
  6406                           ;mcc_generated_files/pin_manager.c: 107:     SLRCONB = 0x00;
  6407  0365  018D               	clrf	13	;volatile
  6408  0366                     l1993:
  6409                           
  6410                           ;mcc_generated_files/pin_manager.c: 108:     SLRCONC = 0x00;
  6411  0366  018E               	clrf	14	;volatile
  6412  0367                     l1995:
  6413                           
  6414                           ;mcc_generated_files/pin_manager.c: 109:     SLRCOND = 0x00;
  6415  0367  018F               	clrf	15	;volatile
  6416  0368                     l1997:
  6417                           
  6418                           ;mcc_generated_files/pin_manager.c: 110:     SLRCONE = 0x00;
  6419  0368  0190               	clrf	16	;volatile
  6420  0369                     l1999:
  6421                           
  6422                           ;mcc_generated_files/pin_manager.c: 115:     INLVLA = 0x00;
  6423  0369  0027               	movlb	7	; select bank7
  6424  036A  018C               	clrf	12	;volatile
  6425  036B                     l2001:
  6426                           
  6427                           ;mcc_generated_files/pin_manager.c: 116:     INLVLB = 0x00;
  6428  036B  018D               	clrf	13	;volatile
  6429                           
  6430                           ;mcc_generated_files/pin_manager.c: 117:     INLVLC = 0xFF;
  6431  036C  30FF               	movlw	255
  6432  036D  008E               	movwf	14	;volatile
  6433                           
  6434                           ;mcc_generated_files/pin_manager.c: 118:     INLVLD = 0xFF;
  6435  036E  30FF               	movlw	255
  6436  036F  008F               	movwf	15	;volatile
  6437                           
  6438                           ;mcc_generated_files/pin_manager.c: 119:     INLVLE = 0x0F;
  6439  0370  300F               	movlw	15
  6440  0371  0090               	movwf	16	;volatile
  6441  0372                     l2003:
  6442                           
  6443                           ;mcc_generated_files/pin_manager.c: 124:     APFCON1 = 0x00;
  6444  0372  0022               	movlb	2	; select bank2
  6445  0373  019D               	clrf	29	;volatile
  6446  0374                     l2005:
  6447                           
  6448                           ;mcc_generated_files/pin_manager.c: 125:     APFCON2 = 0x00;
  6449  0374  019C               	clrf	28	;volatile
  6450  0375                     l257:
  6451  0375  0008               	return
  6452  0376                     __end_of_PIN_MANAGER_Initialize:
  6453                           
  6454                           	psect	text19
  6455  01B2                     __ptext19:	
  6456 ;; *************** function _OSCILLATOR_Initialize *****************
  6457 ;; Defined at:
  6458 ;;		line 60 in file "mcc_generated_files/mcc.c"
  6459 ;; Parameters:    Size  Location     Type
  6460 ;;		None
  6461 ;; Auto vars:     Size  Location     Type
  6462 ;;		None
  6463 ;; Return value:  Size  Location     Type
  6464 ;;                  1    wreg      void 
  6465 ;; Registers used:
  6466 ;;		wreg, status,2
  6467 ;; Tracked objects:
  6468 ;;		On entry : 0/0
  6469 ;;		On exit  : 0/0
  6470 ;;		Unchanged: 0/0
  6471 ;; Data sizes:     COMMON   BANK0   BANK1   BANK2   BANK3   BANK4   BANK5   BANK6   BANK7   BANK8   BANK9  BANK10  BANK1
      +1  BANK12  BANK13  BANK14  BANK15  BANK16  BANK17  BANK18  BANK19  BANK20  BANK21  BANK22  BANK23  BANK24  BANK25
  6472 ;;      Params:         0       0       0       0       0       0       0       0       0       0       0       0       
      +0       0       0       0       0       0       0       0       0       0       0       0       0       0       0
  6473 ;;      Locals:         0       0       0       0       0       0       0       0       0       0       0       0       
      +0       0       0       0       0       0       0       0       0       0       0       0       0       0       0
  6474 ;;      Temps:          0       0       0       0       0       0       0       0       0       0       0       0       
      +0       0       0       0       0       0       0       0       0       0       0       0       0       0       0
  6475 ;;      Totals:         0       0       0       0       0       0       0       0       0       0       0       0       
      +0       0       0       0       0       0       0       0       0       0       0       0       0       0       0
  6476 ;;Total ram usage:        0 bytes
  6477 ;; Hardware stack levels used:    1
  6478 ;; This function calls:
  6479 ;;		Nothing
  6480 ;; This function is called by:
  6481 ;;		_SYSTEM_Initialize
  6482 ;; This function uses a non-reentrant model
  6483 ;;
  6484                           
  6485                           
  6486                           ;psect for function _OSCILLATOR_Initialize
  6487  01B2                     _OSCILLATOR_Initialize:
  6488  01B2                     l2007:	
  6489                           ;incstack = 0
  6490                           ; Regs used in _OSCILLATOR_Initialize: [wreg+status,2]
  6491                           
  6492                           
  6493                           ;mcc_generated_files/mcc.c: 63:     OSCCON = 0xFA;
  6494  01B2  30FA               	movlw	250
  6495  01B3  0021               	movlb	1	; select bank1
  6496  01B4  0099               	movwf	25	;volatile
  6497  01B5                     l2009:
  6498                           
  6499                           ;mcc_generated_files/mcc.c: 65:     OSCSTAT = 0x00;
  6500  01B5  019A               	clrf	26	;volatile
  6501  01B6                     l2011:
  6502                           
  6503                           ;mcc_generated_files/mcc.c: 67:     OSCTUNE = 0x00;
  6504  01B6  0198               	clrf	24	;volatile
  6505  01B7                     l2013:
  6506                           
  6507                           ;mcc_generated_files/mcc.c: 69:     BORCON = 0x00;
  6508  01B7  0022               	movlb	2	; select bank2
  6509  01B8  0196               	clrf	22	;volatile
  6510  01B9                     l175:
  6511  01B9  0008               	return
  6512  01BA                     __end_of_OSCILLATOR_Initialize:
  6513                           
  6514                           	psect	text20
  6515  02BE                     __ptext20:	
  6516 ;; *************** function _EUSART_Initialize *****************
  6517 ;; Defined at:
  6518 ;;		line 66 in file "mcc_generated_files/eusart.c"
  6519 ;; Parameters:    Size  Location     Type
  6520 ;;		None
  6521 ;; Auto vars:     Size  Location     Type
  6522 ;;		None
  6523 ;; Return value:  Size  Location     Type
  6524 ;;                  1    wreg      void 
  6525 ;; Registers used:
  6526 ;;		wreg, status,2, status,0, pclath, cstack
  6527 ;; Tracked objects:
  6528 ;;		On entry : 0/0
  6529 ;;		On exit  : 0/0
  6530 ;;		Unchanged: 0/0
  6531 ;; Data sizes:     COMMON   BANK0   BANK1   BANK2   BANK3   BANK4   BANK5   BANK6   BANK7   BANK8   BANK9  BANK10  BANK1
      +1  BANK12  BANK13  BANK14  BANK15  BANK16  BANK17  BANK18  BANK19  BANK20  BANK21  BANK22  BANK23  BANK24  BANK25
  6532 ;;      Params:         0       0       0       0       0       0       0       0       0       0       0       0       
      +0       0       0       0       0       0       0       0       0       0       0       0       0       0       0
  6533 ;;      Locals:         0       0       0       0       0       0       0       0       0       0       0       0       
      +0       0       0       0       0       0       0       0       0       0       0       0       0       0       0
  6534 ;;      Temps:          0       0       0       0       0       0       0       0       0       0       0       0       
      +0       0       0       0       0       0       0       0       0       0       0       0       0       0       0
  6535 ;;      Totals:         0       0       0       0       0       0       0       0       0       0       0       0       
      +0       0       0       0       0       0       0       0       0       0       0       0       0       0       0
  6536 ;;Total ram usage:        0 bytes
  6537 ;; Hardware stack levels used:    1
  6538 ;; Hardware stack levels required when called:    1
  6539 ;; This function calls:
  6540 ;;		_EUSART_SetErrorHandler
  6541 ;;		_EUSART_SetFramingErrorHandler
  6542 ;;		_EUSART_SetOverrunErrorHandler
  6543 ;; This function is called by:
  6544 ;;		_SYSTEM_Initialize
  6545 ;; This function uses a non-reentrant model
  6546 ;;
  6547                           
  6548                           
  6549                           ;psect for function _EUSART_Initialize
  6550  02BE                     _EUSART_Initialize:
  6551  02BE                     l1901:	
  6552                           ;incstack = 0
  6553                           ; Regs used in _EUSART_Initialize: [wreg+status,2+status,0+pclath+cstack]
  6554                           
  6555                           
  6556                           ;mcc_generated_files/eusart.c: 71:     BAUD1CON = 0x08;
  6557  02BE  3008               	movlw	8
  6558  02BF  0023               	movlb	3	; select bank3
  6559  02C0  009F               	movwf	31	;volatile
  6560                           
  6561                           ;mcc_generated_files/eusart.c: 74:     RC1STA = 0x90;
  6562  02C1  3090               	movlw	144
  6563  02C2  009D               	movwf	29	;volatile
  6564                           
  6565                           ;mcc_generated_files/eusart.c: 77:     TX1STA = 0x24;
  6566  02C3  3024               	movlw	36
  6567  02C4  009E               	movwf	30	;volatile
  6568                           
  6569                           ;mcc_generated_files/eusart.c: 80:     SP1BRGL = 0xA0;
  6570  02C5  30A0               	movlw	160
  6571  02C6  009B               	movwf	27	;volatile
  6572                           
  6573                           ;mcc_generated_files/eusart.c: 83:     SP1BRGH = 0x01;
  6574  02C7  3001               	movlw	1
  6575  02C8  009C               	movwf	28	;volatile
  6576  02C9                     l1903:
  6577                           
  6578                           ;mcc_generated_files/eusart.c: 86:     EUSART_SetFramingErrorHandler(EUSART_DefaultFrami
      +                          ngErrorHandler);
  6579  02C9  3000               	movlw	0
  6580  02CA  00F0               	movwf	EUSART_SetFramingErrorHandler@interruptHandler
  6581  02CB  3000               	movlw	0
  6582  02CC  00F1               	movwf	EUSART_SetFramingErrorHandler@interruptHandler+1
  6583  02CD  3181  21A6  3182   	fcall	_EUSART_SetFramingErrorHandler
  6584  02D0                     l1905:
  6585                           
  6586                           ;mcc_generated_files/eusart.c: 87:     EUSART_SetOverrunErrorHandler(EUSART_DefaultOverr
      +                          unErrorHandler);
  6587  02D0  3000               	movlw	0
  6588  02D1  00F0               	movwf	EUSART_SetOverrunErrorHandler@interruptHandler
  6589  02D2  3000               	movlw	0
  6590  02D3  00F1               	movwf	EUSART_SetOverrunErrorHandler@interruptHandler+1
  6591  02D4  3181  21AC  3182   	fcall	_EUSART_SetOverrunErrorHandler
  6592  02D7                     l1907:
  6593                           
  6594                           ;mcc_generated_files/eusart.c: 88:     EUSART_SetErrorHandler(EUSART_DefaultErrorHandler
      +                          );
  6595  02D7  3000               	movlw	0
  6596  02D8  00F0               	movwf	EUSART_SetErrorHandler@interruptHandler
  6597  02D9  3000               	movlw	0
  6598  02DA  00F1               	movwf	EUSART_SetErrorHandler@interruptHandler+1
  6599  02DB  3181  21A0  3182   	fcall	_EUSART_SetErrorHandler
  6600  02DE                     l1909:
  6601                           
  6602                           ;mcc_generated_files/eusart.c: 90:     eusartRxLastError.status = 0;
  6603  02DE  0020               	movlb	0	; select bank0
  6604  02DF  01EE               	clrf	_eusartRxLastError	;volatile
  6605  02E0                     l104:
  6606  02E0  0008               	return
  6607  02E1                     __end_of_EUSART_Initialize:
  6608                           
  6609                           	psect	text21
  6610  01AC                     __ptext21:	
  6611 ;; *************** function _EUSART_SetOverrunErrorHandler *****************
  6612 ;; Defined at:
  6613 ;;		line 161 in file "mcc_generated_files/eusart.c"
  6614 ;; Parameters:    Size  Location     Type
  6615 ;;  interruptHan    2    0[COMMON] PTR FTN()void 
  6616 ;;		 -> EUSART_DefaultOverrunErrorHandler(1), 
  6617 ;; Auto vars:     Size  Location     Type
  6618 ;;		None
  6619 ;; Return value:  Size  Location     Type
  6620 ;;                  1    wreg      void 
  6621 ;; Registers used:
  6622 ;;		wreg
  6623 ;; Tracked objects:
  6624 ;;		On entry : 0/0
  6625 ;;		On exit  : 0/0
  6626 ;;		Unchanged: 0/0
  6627 ;; Data sizes:     COMMON   BANK0   BANK1   BANK2   BANK3   BANK4   BANK5   BANK6   BANK7   BANK8   BANK9  BANK10  BANK1
      +1  BANK12  BANK13  BANK14  BANK15  BANK16  BANK17  BANK18  BANK19  BANK20  BANK21  BANK22  BANK23  BANK24  BANK25
  6628 ;;      Params:         2       0       0       0       0       0       0       0       0       0       0       0       
      +0       0       0       0       0       0       0       0       0       0       0       0       0       0       0
  6629 ;;      Locals:         0       0       0       0       0       0       0       0       0       0       0       0       
      +0       0       0       0       0       0       0       0       0       0       0       0       0       0       0
  6630 ;;      Temps:          0       0       0       0       0       0       0       0       0       0       0       0       
      +0       0       0       0       0       0       0       0       0       0       0       0       0       0       0
  6631 ;;      Totals:         2       0       0       0       0       0       0       0       0       0       0       0       
      +0       0       0       0       0       0       0       0       0       0       0       0       0       0       0
  6632 ;;Total ram usage:        2 bytes
  6633 ;; Hardware stack levels used:    1
  6634 ;; This function calls:
  6635 ;;		Nothing
  6636 ;; This function is called by:
  6637 ;;		_EUSART_Initialize
  6638 ;; This function uses a non-reentrant model
  6639 ;;
  6640                           
  6641                           
  6642                           ;psect for function _EUSART_SetOverrunErrorHandler
  6643  01AC                     _EUSART_SetOverrunErrorHandler:
  6644  01AC                     l1851:	
  6645                           ;incstack = 0
  6646                           ; Regs used in _EUSART_SetOverrunErrorHandler: [wreg]
  6647                           
  6648                           
  6649                           ;mcc_generated_files/eusart.c: 162:     EUSART_OverrunErrorHandler = interruptHandler;
  6650  01AC  0871               	movf	EUSART_SetOverrunErrorHandler@interruptHandler+1,w
  6651  01AD  0021               	movlb	1	; select bank1
  6652  01AE  00E5               	movwf	(_EUSART_OverrunErrorHandler+1)^(0+128)
  6653  01AF  0870               	movf	EUSART_SetOverrunErrorHandler@interruptHandler,w
  6654  01B0  00E4               	movwf	_EUSART_OverrunErrorHandler^(0+128)
  6655  01B1                     l146:
  6656  01B1  0008               	return
  6657  01B2                     __end_of_EUSART_SetOverrunErrorHandler:
  6658                           
  6659                           	psect	text22
  6660  01A6                     __ptext22:	
  6661 ;; *************** function _EUSART_SetFramingErrorHandler *****************
  6662 ;; Defined at:
  6663 ;;		line 157 in file "mcc_generated_files/eusart.c"
  6664 ;; Parameters:    Size  Location     Type
  6665 ;;  interruptHan    2    0[COMMON] PTR FTN()void 
  6666 ;;		 -> EUSART_DefaultFramingErrorHandler(1), 
  6667 ;; Auto vars:     Size  Location     Type
  6668 ;;		None
  6669 ;; Return value:  Size  Location     Type
  6670 ;;                  1    wreg      void 
  6671 ;; Registers used:
  6672 ;;		wreg
  6673 ;; Tracked objects:
  6674 ;;		On entry : 0/0
  6675 ;;		On exit  : 0/0
  6676 ;;		Unchanged: 0/0
  6677 ;; Data sizes:     COMMON   BANK0   BANK1   BANK2   BANK3   BANK4   BANK5   BANK6   BANK7   BANK8   BANK9  BANK10  BANK1
      +1  BANK12  BANK13  BANK14  BANK15  BANK16  BANK17  BANK18  BANK19  BANK20  BANK21  BANK22  BANK23  BANK24  BANK25
  6678 ;;      Params:         2       0       0       0       0       0       0       0       0       0       0       0       
      +0       0       0       0       0       0       0       0       0       0       0       0       0       0       0
  6679 ;;      Locals:         0       0       0       0       0       0       0       0       0       0       0       0       
      +0       0       0       0       0       0       0       0       0       0       0       0       0       0       0
  6680 ;;      Temps:          0       0       0       0       0       0       0       0       0       0       0       0       
      +0       0       0       0       0       0       0       0       0       0       0       0       0       0       0
  6681 ;;      Totals:         2       0       0       0       0       0       0       0       0       0       0       0       
      +0       0       0       0       0       0       0       0       0       0       0       0       0       0       0
  6682 ;;Total ram usage:        2 bytes
  6683 ;; Hardware stack levels used:    1
  6684 ;; This function calls:
  6685 ;;		Nothing
  6686 ;; This function is called by:
  6687 ;;		_EUSART_Initialize
  6688 ;; This function uses a non-reentrant model
  6689 ;;
  6690                           
  6691                           
  6692                           ;psect for function _EUSART_SetFramingErrorHandler
  6693  01A6                     _EUSART_SetFramingErrorHandler:
  6694  01A6                     l1849:	
  6695                           ;incstack = 0
  6696                           ; Regs used in _EUSART_SetFramingErrorHandler: [wreg]
  6697                           
  6698                           
  6699                           ;mcc_generated_files/eusart.c: 158:     EUSART_FramingErrorHandler = interruptHandler;
  6700  01A6  0871               	movf	EUSART_SetFramingErrorHandler@interruptHandler+1,w
  6701  01A7  0021               	movlb	1	; select bank1
  6702  01A8  00E7               	movwf	(_EUSART_FramingErrorHandler+1)^(0+128)
  6703  01A9  0870               	movf	EUSART_SetFramingErrorHandler@interruptHandler,w
  6704  01AA  00E6               	movwf	_EUSART_FramingErrorHandler^(0+128)
  6705  01AB                     l143:
  6706  01AB  0008               	return
  6707  01AC                     __end_of_EUSART_SetFramingErrorHandler:
  6708                           
  6709                           	psect	text23
  6710  01A0                     __ptext23:	
  6711 ;; *************** function _EUSART_SetErrorHandler *****************
  6712 ;; Defined at:
  6713 ;;		line 165 in file "mcc_generated_files/eusart.c"
  6714 ;; Parameters:    Size  Location     Type
  6715 ;;  interruptHan    2    0[COMMON] PTR FTN()void 
  6716 ;;		 -> EUSART_DefaultErrorHandler(1), 
  6717 ;; Auto vars:     Size  Location     Type
  6718 ;;		None
  6719 ;; Return value:  Size  Location     Type
  6720 ;;                  1    wreg      void 
  6721 ;; Registers used:
  6722 ;;		wreg
  6723 ;; Tracked objects:
  6724 ;;		On entry : 0/0
  6725 ;;		On exit  : 0/0
  6726 ;;		Unchanged: 0/0
  6727 ;; Data sizes:     COMMON   BANK0   BANK1   BANK2   BANK3   BANK4   BANK5   BANK6   BANK7   BANK8   BANK9  BANK10  BANK1
      +1  BANK12  BANK13  BANK14  BANK15  BANK16  BANK17  BANK18  BANK19  BANK20  BANK21  BANK22  BANK23  BANK24  BANK25
  6728 ;;      Params:         2       0       0       0       0       0       0       0       0       0       0       0       
      +0       0       0       0       0       0       0       0       0       0       0       0       0       0       0
  6729 ;;      Locals:         0       0       0       0       0       0       0       0       0       0       0       0       
      +0       0       0       0       0       0       0       0       0       0       0       0       0       0       0
  6730 ;;      Temps:          0       0       0       0       0       0       0       0       0       0       0       0       
      +0       0       0       0       0       0       0       0       0       0       0       0       0       0       0
  6731 ;;      Totals:         2       0       0       0       0       0       0       0       0       0       0       0       
      +0       0       0       0       0       0       0       0       0       0       0       0       0       0       0
  6732 ;;Total ram usage:        2 bytes
  6733 ;; Hardware stack levels used:    1
  6734 ;; This function calls:
  6735 ;;		Nothing
  6736 ;; This function is called by:
  6737 ;;		_EUSART_Initialize
  6738 ;; This function uses a non-reentrant model
  6739 ;;
  6740                           
  6741                           
  6742                           ;psect for function _EUSART_SetErrorHandler
  6743  01A0                     _EUSART_SetErrorHandler:
  6744  01A0                     l1853:	
  6745                           ;incstack = 0
  6746                           ; Regs used in _EUSART_SetErrorHandler: [wreg]
  6747                           
  6748                           
  6749                           ;mcc_generated_files/eusart.c: 166:     EUSART_ErrorHandler = interruptHandler;
  6750  01A0  0871               	movf	EUSART_SetErrorHandler@interruptHandler+1,w
  6751  01A1  0021               	movlb	1	; select bank1
  6752  01A2  00E3               	movwf	(_EUSART_ErrorHandler+1)^(0+128)
  6753  01A3  0870               	movf	EUSART_SetErrorHandler@interruptHandler,w
  6754  01A4  00E2               	movwf	_EUSART_ErrorHandler^(0+128)
  6755  01A5                     l149:
  6756  01A5  0008               	return
  6757  01A6                     __end_of_EUSART_SetErrorHandler:
  6758                           
  6759                           	psect	text24
  6760  03C5                     __ptext24:	
  6761 ;; *************** function _ReadFromSerialEEPROM *****************
  6762 ;; Defined at:
  6763 ;;		line 4 in file "apps/src/eeprom_25lc512.c"
  6764 ;; Parameters:    Size  Location     Type
  6765 ;;  recv_frame      1    wreg     PTR unsigned char 
  6766 ;;		 -> main@recv_frame(68), 
  6767 ;;  send_frame      1    6[COMMON] PTR unsigned char 
  6768 ;;		 -> main@send_frame(66), 
  6769 ;; Auto vars:     Size  Location     Type
  6770 ;;  recv_frame      1   65[BANK0 ] PTR unsigned char 
  6771 ;;		 -> main@recv_frame(68), 
  6772 ;;  buffer         64    0[BANK0 ] unsigned char [64]
  6773 ;;  i               1   66[BANK0 ] unsigned char 
  6774 ;;  SPI1            1   64[BANK0 ] enum E6331
  6775 ;; Return value:  Size  Location     Type
  6776 ;;                  1    wreg      _Bool 
  6777 ;; Registers used:
  6778 ;;		wreg, fsr0l, fsr0h, fsr1l, fsr1h, status,2, status,0, pclath, cstack
  6779 ;; Tracked objects:
  6780 ;;		On entry : 0/0
  6781 ;;		On exit  : 0/0
  6782 ;;		Unchanged: 0/0
  6783 ;; Data sizes:     COMMON   BANK0   BANK1   BANK2   BANK3   BANK4   BANK5   BANK6   BANK7   BANK8   BANK9  BANK10  BANK1
      +1  BANK12  BANK13  BANK14  BANK15  BANK16  BANK17  BANK18  BANK19  BANK20  BANK21  BANK22  BANK23  BANK24  BANK25
  6784 ;;      Params:         1       0       0       0       0       0       0       0       0       0       0       0       
      +0       0       0       0       0       0       0       0       0       0       0       0       0       0       0
  6785 ;;      Locals:         0      67       0       0       0       0       0       0       0       0       0       0       
      +0       0       0       0       0       0       0       0       0       0       0       0       0       0       0
  6786 ;;      Temps:          2       0       0       0       0       0       0       0       0       0       0       0       
      +0       0       0       0       0       0       0       0       0       0       0       0       0       0       0
  6787 ;;      Totals:         3      67       0       0       0       0       0       0       0       0       0       0       
      +0       0       0       0       0       0       0       0       0       0       0       0       0       0       0
  6788 ;;Total ram usage:       70 bytes
  6789 ;; Hardware stack levels used:    1
  6790 ;; Hardware stack levels required when called:    2
  6791 ;; This function calls:
  6792 ;;		_SPI_Close
  6793 ;;		_SPI_Open
  6794 ;;		_SPI_ReadBlock
  6795 ;;		_SPI_WriteBlock
  6796 ;; This function is called by:
  6797 ;;		_main
  6798 ;; This function uses a non-reentrant model
  6799 ;;
  6800                           
  6801                           
  6802                           ;psect for function _ReadFromSerialEEPROM
  6803  03C5                     _ReadFromSerialEEPROM:
  6804                           
  6805                           ;incstack = 0
  6806                           ; Regs used in _ReadFromSerialEEPROM: [wreg-fsr1h+status,2+status,0+pclath+cstack]
  6807                           ;ReadFromSerialEEPROM@recv_frame stored from wreg
  6808  03C5  0020               	movlb	0	; select bank0
  6809  03C6  00E1               	movwf	ReadFromSerialEEPROM@recv_frame
  6810  03C7                     l2271:
  6811  03C7                     l2273:
  6812                           
  6813                           ;apps/src/eeprom_25lc512.c: 6:     uint8_t buffer[0x40];;apps/src/eeprom_25lc512.c: 7:  
      +                             spi_modes_t SPI1;;apps/src/eeprom_25lc512.c: 9:     SPI_Open(SPI1);
  6814  03C7  0860               	movf	ReadFromSerialEEPROM@SPI1,w
  6815  03C8  3183  2376  3183   	fcall	_SPI_Open
  6816  03CB                     l2275:
  6817                           
  6818                           ;apps/src/eeprom_25lc512.c: 11:     buffer[0] = 0x03;
  6819  03CB  3003               	movlw	3
  6820  03CC  00F7               	movwf	??_ReadFromSerialEEPROM
  6821  03CD  0877               	movf	??_ReadFromSerialEEPROM,w
  6822  03CE  0020               	movlb	0	; select bank0
  6823  03CF  00A0               	movwf	ReadFromSerialEEPROM@buffer
  6824  03D0                     l2277:
  6825                           
  6826                           ;apps/src/eeprom_25lc512.c: 12:     buffer[1] = recv_frame[2];
  6827  03D0  0861               	movf	ReadFromSerialEEPROM@recv_frame,w
  6828  03D1  0086               	movwf	6
  6829  03D2  3001               	movlw	1	; select bank2/3
  6830  03D3  0087               	movwf	7
  6831  03D4  3001               	movlw	1	; select bank2/3
  6832  03D5  3F42               	moviw [2]fsr1
  6833  03D6  00A1               	movwf	ReadFromSerialEEPROM@buffer+1
  6834  03D7                     l2279:
  6835                           
  6836                           ;apps/src/eeprom_25lc512.c: 13:     buffer[2] = recv_frame[3];
  6837  03D7  0861               	movf	ReadFromSerialEEPROM@recv_frame,w
  6838  03D8  0086               	movwf	6
  6839  03D9  3001               	movlw	1	; select bank2/3
  6840  03DA  0087               	movwf	7
  6841  03DB  3001               	movlw	1	; select bank2/3
  6842  03DC  3F43               	moviw [3]fsr1
  6843  03DD  00A2               	movwf	ReadFromSerialEEPROM@buffer+2
  6844  03DE                     l2281:
  6845  03DE  0022               	movlb	2	; select bank2
  6846  03DF  100C               	bcf	12,0	;volatile
  6847  03E0                     l2283:
  6848                           
  6849                           ;apps/src/eeprom_25lc512.c: 16:     SPI_WriteBlock(buffer, 0x03);
  6850  03E0  3003               	movlw	3
  6851  03E1  00F1               	movwf	SPI_WriteBlock@blockSize
  6852  03E2  3000               	movlw	0
  6853  03E3  00F2               	movwf	SPI_WriteBlock@blockSize+1
  6854  03E4  3020               	movlw	(low (ReadFromSerialEEPROM@buffer| 0))& (0+255)
  6855  03E5  3182  225D  3183   	fcall	_SPI_WriteBlock
  6856  03E8                     l2285:
  6857                           
  6858                           ;apps/src/eeprom_25lc512.c: 17:     SPI_ReadBlock(buffer, 0x40);
  6859  03E8  3040               	movlw	64
  6860  03E9  00F1               	movwf	SPI_ReadBlock@blockSize
  6861  03EA  3000               	movlw	0
  6862  03EB  00F2               	movwf	SPI_ReadBlock@blockSize+1
  6863  03EC  3020               	movlw	(low (ReadFromSerialEEPROM@buffer| 0))& (0+255)
  6864  03ED  3182  227B  3183   	fcall	_SPI_ReadBlock
  6865  03F0                     l2287:
  6866  03F0  0022               	movlb	2	; select bank2
  6867  03F1  140C               	bsf	12,0	;volatile
  6868  03F2                     l2289:
  6869                           
  6870                           ;apps/src/eeprom_25lc512.c: 19:  SPI_Close();
  6871  03F2  3181  2188  3183   	fcall	_SPI_Close
  6872  03F5                     l2291:
  6873                           
  6874                           ;apps/src/eeprom_25lc512.c: 21:  send_frame[0] = 0x40 + 2;
  6875  03F5  3042               	movlw	66
  6876  03F6  00F7               	movwf	??_ReadFromSerialEEPROM
  6877  03F7  0876               	movf	ReadFromSerialEEPROM@send_frame,w
  6878  03F8  0086               	movwf	6
  6879  03F9  0187               	clrf	7
  6880  03FA  0877               	movf	??_ReadFromSerialEEPROM,w
  6881  03FB  0081               	movwf	1
  6882  03FC                     l2293:
  6883                           
  6884                           ;apps/src/eeprom_25lc512.c: 22:  send_frame[1] = 0x12;
  6885  03FC  3012               	movlw	18
  6886  03FD  00F7               	movwf	??_ReadFromSerialEEPROM
  6887  03FE  0A76               	incf	ReadFromSerialEEPROM@send_frame,w
  6888  03FF  0086               	movwf	6
  6889  0400  0187               	clrf	7
  6890  0401  0877               	movf	??_ReadFromSerialEEPROM,w
  6891  0402  0081               	movwf	1
  6892  0403                     l2295:
  6893                           
  6894                           ;apps/src/eeprom_25lc512.c: 23:  for (i = 0; i != 0x40; i++){
  6895  0403  0020               	movlb	0	; select bank0
  6896  0404  01E2               	clrf	ReadFromSerialEEPROM@i
  6897  0405                     l2301:
  6898                           
  6899                           ;apps/src/eeprom_25lc512.c: 24:   send_frame[i+2] = buffer[i];
  6900  0405  0862               	movf	ReadFromSerialEEPROM@i,w
  6901  0406  3E20               	addlw	(low (ReadFromSerialEEPROM@buffer| 0))& (0+255)
  6902  0407  0086               	movwf	6
  6903  0408  0187               	clrf	7
  6904  0409  0801               	movf	1,w
  6905  040A  00F7               	movwf	??_ReadFromSerialEEPROM
  6906  040B  0862               	movf	ReadFromSerialEEPROM@i,w
  6907  040C  0776               	addwf	ReadFromSerialEEPROM@send_frame,w
  6908  040D  00F8               	movwf	??_ReadFromSerialEEPROM+1
  6909  040E  0878               	movf	??_ReadFromSerialEEPROM+1,w
  6910  040F  3E02               	addlw	2
  6911  0410  0086               	movwf	6
  6912  0411  0187               	clrf	7
  6913  0412  0877               	movf	??_ReadFromSerialEEPROM,w
  6914  0413  0081               	movwf	1
  6915  0414                     l2303:
  6916                           
  6917                           ;apps/src/eeprom_25lc512.c: 25:   }
  6918  0414  3001               	movlw	1
  6919  0415  00F7               	movwf	??_ReadFromSerialEEPROM
  6920  0416  0877               	movf	??_ReadFromSerialEEPROM,w
  6921  0417  07E2               	addwf	ReadFromSerialEEPROM@i,f
  6922  0418                     l2305:
  6923  0418  3040               	movlw	64
  6924  0419  0662               	xorwf	ReadFromSerialEEPROM@i,w
  6925  041A  1D03               	btfss	3,2
  6926  041B  2C1D               	goto	u711
  6927  041C  2C1E               	goto	u710
  6928  041D                     u711:
  6929  041D  2C05               	goto	l2301
  6930  041E                     u710:
  6931  041E                     l2307:
  6932                           
  6933                           ;apps/src/eeprom_25lc512.c: 27:  return 1;
  6934  041E  3001               	movlw	1
  6935  041F                     l490:
  6936  041F  0008               	return
  6937  0420                     __end_of_ReadFromSerialEEPROM:
  6938                           
  6939                           	psect	text25
  6940  025D                     __ptext25:	
  6941 ;; *************** function _SPI_WriteBlock *****************
  6942 ;; Defined at:
  6943 ;;		line 113 in file "mcc_generated_files/spi.c"
  6944 ;; Parameters:    Size  Location     Type
  6945 ;;  block           1    wreg     PTR void 
  6946 ;;		 -> WriteToSerialEEPROM@buffer(67), ReadFromSerialEEPROM@buffer(64), 
  6947 ;;  blockSize       2    1[COMMON] unsigned int 
  6948 ;; Auto vars:     Size  Location     Type
  6949 ;;  block           1    5[COMMON] PTR void 
  6950 ;;		 -> WriteToSerialEEPROM@buffer(67), ReadFromSerialEEPROM@buffer(64), 
  6951 ;;  data            1    4[COMMON] PTR unsigned char 
  6952 ;;		 -> WriteToSerialEEPROM@buffer(67), ReadFromSerialEEPROM@buffer(64), 
  6953 ;; Return value:  Size  Location     Type
  6954 ;;                  1    wreg      void 
  6955 ;; Registers used:
  6956 ;;		wreg, fsr1l, fsr1h, status,2, status,0, pclath, cstack
  6957 ;; Tracked objects:
  6958 ;;		On entry : 0/0
  6959 ;;		On exit  : 0/0
  6960 ;;		Unchanged: 0/0
  6961 ;; Data sizes:     COMMON   BANK0   BANK1   BANK2   BANK3   BANK4   BANK5   BANK6   BANK7   BANK8   BANK9  BANK10  BANK1
      +1  BANK12  BANK13  BANK14  BANK15  BANK16  BANK17  BANK18  BANK19  BANK20  BANK21  BANK22  BANK23  BANK24  BANK25
  6962 ;;      Params:         2       0       0       0       0       0       0       0       0       0       0       0       
      +0       0       0       0       0       0       0       0       0       0       0       0       0       0       0
  6963 ;;      Locals:         2       0       0       0       0       0       0       0       0       0       0       0       
      +0       0       0       0       0       0       0       0       0       0       0       0       0       0       0
  6964 ;;      Temps:          1       0       0       0       0       0       0       0       0       0       0       0       
      +0       0       0       0       0       0       0       0       0       0       0       0       0       0       0
  6965 ;;      Totals:         5       0       0       0       0       0       0       0       0       0       0       0       
      +0       0       0       0       0       0       0       0       0       0       0       0       0       0       0
  6966 ;;Total ram usage:        5 bytes
  6967 ;; Hardware stack levels used:    1
  6968 ;; Hardware stack levels required when called:    1
  6969 ;; This function calls:
  6970 ;;		_SPI_ExchangeByte
  6971 ;; This function is called by:
  6972 ;;		_ReadFromSerialEEPROM
  6973 ;;		_WriteToSerialEEPROM
  6974 ;; This function uses a non-reentrant model
  6975 ;;
  6976                           
  6977                           
  6978                           ;psect for function _SPI_WriteBlock
  6979  025D                     _SPI_WriteBlock:
  6980                           
  6981                           ;incstack = 0
  6982                           ; Regs used in _SPI_WriteBlock: [wreg+fsr1l+fsr1h+status,2+status,0+pclath+cstack]
  6983                           ;SPI_WriteBlock@block stored from wreg
  6984  025D  00F5               	movwf	SPI_WriteBlock@block
  6985  025E                     l1885:
  6986                           
  6987                           ;mcc_generated_files/spi.c: 113: void SPI_WriteBlock(void *block, size_t blockSize);mcc_
      +                          generated_files/spi.c: 114: {;mcc_generated_files/spi.c: 115:     uint8_t *data = block;
  6988  025E  0875               	movf	SPI_WriteBlock@block,w
  6989  025F  00F3               	movwf	??_SPI_WriteBlock
  6990  0260  0873               	movf	??_SPI_WriteBlock,w
  6991  0261  00F4               	movwf	SPI_WriteBlock@data
  6992                           
  6993                           ;mcc_generated_files/spi.c: 116:     while(blockSize--)
  6994  0262  2A6E               	goto	l1891
  6995  0263                     l1887:
  6996                           
  6997                           ;mcc_generated_files/spi.c: 117:     {;mcc_generated_files/spi.c: 118:         SPI_Excha
      +                          ngeByte(*data++);
  6998  0263  0874               	movf	SPI_WriteBlock@data,w
  6999  0264  0086               	movwf	6
  7000  0265  0187               	clrf	7
  7001  0266  0801               	movf	1,w
  7002  0267  3181  21E2  3182   	fcall	_SPI_ExchangeByte
  7003  026A                     l1889:
  7004  026A  3001               	movlw	1
  7005  026B  00F3               	movwf	??_SPI_WriteBlock
  7006  026C  0873               	movf	??_SPI_WriteBlock,w
  7007  026D  07F4               	addwf	SPI_WriteBlock@data,f
  7008  026E                     l1891:
  7009                           
  7010                           ;mcc_generated_files/spi.c: 116:     while(blockSize--)
  7011  026E  3001               	movlw	1
  7012  026F  02F1               	subwf	SPI_WriteBlock@blockSize,f
  7013  0270  3000               	movlw	0
  7014  0271  3BF2               	subwfb	SPI_WriteBlock@blockSize+1,f
  7015  0272  0A71               	incf	SPI_WriteBlock@blockSize,w
  7016  0273  1D03               	skipz
  7017  0274  2A79               	goto	u461
  7018  0275  0A72               	incf	SPI_WriteBlock@blockSize+1,w
  7019  0276  1D03               	btfss	3,2
  7020  0277  2A79               	goto	u461
  7021  0278  2A7A               	goto	u460
  7022  0279                     u461:
  7023  0279  2A63               	goto	l1887
  7024  027A                     u460:
  7025  027A                     l49:
  7026  027A  0008               	return
  7027  027B                     __end_of_SPI_WriteBlock:
  7028                           
  7029                           	psect	text26
  7030  027B                     __ptext26:	
  7031 ;; *************** function _SPI_ReadBlock *****************
  7032 ;; Defined at:
  7033 ;;		line 122 in file "mcc_generated_files/spi.c"
  7034 ;; Parameters:    Size  Location     Type
  7035 ;;  block           1    wreg     PTR void 
  7036 ;;		 -> ReadFromSerialEEPROM@buffer(64), 
  7037 ;;  blockSize       2    1[COMMON] unsigned int 
  7038 ;; Auto vars:     Size  Location     Type
  7039 ;;  block           1    4[COMMON] PTR void 
  7040 ;;		 -> ReadFromSerialEEPROM@buffer(64), 
  7041 ;;  data            1    5[COMMON] PTR unsigned char 
  7042 ;;		 -> ReadFromSerialEEPROM@buffer(64), 
  7043 ;; Return value:  Size  Location     Type
  7044 ;;                  1    wreg      void 
  7045 ;; Registers used:
  7046 ;;		wreg, fsr1l, fsr1h, status,2, status,0, pclath, cstack
  7047 ;; Tracked objects:
  7048 ;;		On entry : 0/0
  7049 ;;		On exit  : 0/0
  7050 ;;		Unchanged: 0/0
  7051 ;; Data sizes:     COMMON   BANK0   BANK1   BANK2   BANK3   BANK4   BANK5   BANK6   BANK7   BANK8   BANK9  BANK10  BANK1
      +1  BANK12  BANK13  BANK14  BANK15  BANK16  BANK17  BANK18  BANK19  BANK20  BANK21  BANK22  BANK23  BANK24  BANK25
  7052 ;;      Params:         2       0       0       0       0       0       0       0       0       0       0       0       
      +0       0       0       0       0       0       0       0       0       0       0       0       0       0       0
  7053 ;;      Locals:         2       0       0       0       0       0       0       0       0       0       0       0       
      +0       0       0       0       0       0       0       0       0       0       0       0       0       0       0
  7054 ;;      Temps:          1       0       0       0       0       0       0       0       0       0       0       0       
      +0       0       0       0       0       0       0       0       0       0       0       0       0       0       0
  7055 ;;      Totals:         5       0       0       0       0       0       0       0       0       0       0       0       
      +0       0       0       0       0       0       0       0       0       0       0       0       0       0       0
  7056 ;;Total ram usage:        5 bytes
  7057 ;; Hardware stack levels used:    1
  7058 ;; Hardware stack levels required when called:    1
  7059 ;; This function calls:
  7060 ;;		_SPI_ExchangeByte
  7061 ;; This function is called by:
  7062 ;;		_ReadFromSerialEEPROM
  7063 ;; This function uses a non-reentrant model
  7064 ;;
  7065                           
  7066                           
  7067                           ;psect for function _SPI_ReadBlock
  7068  027B                     _SPI_ReadBlock:
  7069                           
  7070                           ;incstack = 0
  7071                           ; Regs used in _SPI_ReadBlock: [wreg+fsr1l+fsr1h+status,2+status,0+pclath+cstack]
  7072                           ;SPI_ReadBlock@block stored from wreg
  7073  027B  00F4               	movwf	SPI_ReadBlock@block
  7074  027C                     l1893:
  7075                           
  7076                           ;mcc_generated_files/spi.c: 122: void SPI_ReadBlock(void *block, size_t blockSize);mcc_g
      +                          enerated_files/spi.c: 123: {;mcc_generated_files/spi.c: 124:     uint8_t *data = block;
  7077  027C  0874               	movf	SPI_ReadBlock@block,w
  7078  027D  00F3               	movwf	??_SPI_ReadBlock
  7079  027E  0873               	movf	??_SPI_ReadBlock,w
  7080  027F  00F5               	movwf	SPI_ReadBlock@data
  7081                           
  7082                           ;mcc_generated_files/spi.c: 125:     while(blockSize--)
  7083  0280  2A8F               	goto	l1899
  7084  0281                     l1895:
  7085                           
  7086                           ;mcc_generated_files/spi.c: 126:     {;mcc_generated_files/spi.c: 127:         *data++ =
      +                           SPI_ExchangeByte(0);
  7087  0281  3000               	movlw	0
  7088  0282  3181  21E2  3182   	fcall	_SPI_ExchangeByte
  7089  0285  00F3               	movwf	??_SPI_ReadBlock
  7090  0286  0875               	movf	SPI_ReadBlock@data,w
  7091  0287  0086               	movwf	6
  7092  0288  0187               	clrf	7
  7093  0289  0873               	movf	??_SPI_ReadBlock,w
  7094  028A  0081               	movwf	1
  7095  028B                     l1897:
  7096  028B  3001               	movlw	1
  7097  028C  00F3               	movwf	??_SPI_ReadBlock
  7098  028D  0873               	movf	??_SPI_ReadBlock,w
  7099  028E  07F5               	addwf	SPI_ReadBlock@data,f
  7100  028F                     l1899:
  7101                           
  7102                           ;mcc_generated_files/spi.c: 125:     while(blockSize--)
  7103  028F  3001               	movlw	1
  7104  0290  02F1               	subwf	SPI_ReadBlock@blockSize,f
  7105  0291  3000               	movlw	0
  7106  0292  3BF2               	subwfb	SPI_ReadBlock@blockSize+1,f
  7107  0293  0A71               	incf	SPI_ReadBlock@blockSize,w
  7108  0294  1D03               	skipz
  7109  0295  2A9A               	goto	u471
  7110  0296  0A72               	incf	SPI_ReadBlock@blockSize+1,w
  7111  0297  1D03               	btfss	3,2
  7112  0298  2A9A               	goto	u471
  7113  0299  2A9B               	goto	u470
  7114  029A                     u471:
  7115  029A  2A81               	goto	l1895
  7116  029B                     u470:
  7117  029B                     l55:
  7118  029B  0008               	return
  7119  029C                     __end_of_SPI_ReadBlock:
  7120                           
  7121                           	psect	text27
  7122  01E2                     __ptext27:	
  7123 ;; *************** function _SPI_ExchangeByte *****************
  7124 ;; Defined at:
  7125 ;;		line 92 in file "mcc_generated_files/spi.c"
  7126 ;; Parameters:    Size  Location     Type
  7127 ;;  data            1    wreg     unsigned char 
  7128 ;; Auto vars:     Size  Location     Type
  7129 ;;  data            1    0[COMMON] unsigned char 
  7130 ;; Return value:  Size  Location     Type
  7131 ;;                  1    wreg      unsigned char 
  7132 ;; Registers used:
  7133 ;;		wreg
  7134 ;; Tracked objects:
  7135 ;;		On entry : 0/0
  7136 ;;		On exit  : 0/0
  7137 ;;		Unchanged: 0/0
  7138 ;; Data sizes:     COMMON   BANK0   BANK1   BANK2   BANK3   BANK4   BANK5   BANK6   BANK7   BANK8   BANK9  BANK10  BANK1
      +1  BANK12  BANK13  BANK14  BANK15  BANK16  BANK17  BANK18  BANK19  BANK20  BANK21  BANK22  BANK23  BANK24  BANK25
  7139 ;;      Params:         0       0       0       0       0       0       0       0       0       0       0       0       
      +0       0       0       0       0       0       0       0       0       0       0       0       0       0       0
  7140 ;;      Locals:         1       0       0       0       0       0       0       0       0       0       0       0       
      +0       0       0       0       0       0       0       0       0       0       0       0       0       0       0
  7141 ;;      Temps:          0       0       0       0       0       0       0       0       0       0       0       0       
      +0       0       0       0       0       0       0       0       0       0       0       0       0       0       0
  7142 ;;      Totals:         1       0       0       0       0       0       0       0       0       0       0       0       
      +0       0       0       0       0       0       0       0       0       0       0       0       0       0       0
  7143 ;;Total ram usage:        1 bytes
  7144 ;; Hardware stack levels used:    1
  7145 ;; This function calls:
  7146 ;;		Nothing
  7147 ;; This function is called by:
  7148 ;;		_SPI_WriteBlock
  7149 ;;		_SPI_ReadBlock
  7150 ;; This function uses a non-reentrant model
  7151 ;;
  7152                           
  7153                           
  7154                           ;psect for function _SPI_ExchangeByte
  7155  01E2                     _SPI_ExchangeByte:
  7156                           
  7157                           ;incstack = 0
  7158                           ; Regs used in _SPI_ExchangeByte: [wreg]
  7159                           ;SPI_ExchangeByte@data stored from wreg
  7160  01E2  00F0               	movwf	SPI_ExchangeByte@data
  7161  01E3                     l1843:
  7162                           
  7163                           ;mcc_generated_files/spi.c: 92: uint8_t SPI_ExchangeByte(uint8_t data);mcc_generated_fil
      +                          es/spi.c: 93: {;mcc_generated_files/spi.c: 94:     SSP1BUF = data;
  7164  01E3  0870               	movf	SPI_ExchangeByte@data,w
  7165  01E4  0024               	movlb	4	; select bank4
  7166  01E5  0091               	movwf	17	;volatile
  7167  01E6                     l31:	
  7168                           ;mcc_generated_files/spi.c: 95:     while(!PIR1bits.SSP1IF);
  7169                           
  7170  01E6  0020               	movlb	0	; select bank0
  7171  01E7  1D91               	btfss	17,3	;volatile
  7172  01E8  29EA               	goto	u441
  7173  01E9  29EB               	goto	u440
  7174  01EA                     u441:
  7175  01EA  29E6               	goto	l31
  7176  01EB                     u440:
  7177  01EB                     l33:
  7178                           
  7179                           ;mcc_generated_files/spi.c: 96:     PIR1bits.SSP1IF = 0;
  7180  01EB  1191               	bcf	17,3	;volatile
  7181  01EC                     l1845:
  7182                           
  7183                           ;mcc_generated_files/spi.c: 97:     return SSP1BUF;
  7184  01EC  0024               	movlb	4	; select bank4
  7185  01ED  0811               	movf	17,w	;volatile
  7186  01EE                     l34:
  7187  01EE  0008               	return
  7188  01EF                     __end_of_SPI_ExchangeByte:
  7189                           
  7190                           	psect	text28
  7191  0376                     __ptext28:	
  7192 ;; *************** function _SPI_Open *****************
  7193 ;; Defined at:
  7194 ;;		line 72 in file "mcc_generated_files/spi.c"
  7195 ;; Parameters:    Size  Location     Type
  7196 ;;  spiUniqueCon    1    wreg     enum E353
  7197 ;; Auto vars:     Size  Location     Type
  7198 ;;  spiUniqueCon    1    3[COMMON] enum E353
  7199 ;; Return value:  Size  Location     Type
  7200 ;;                  1    wreg      _Bool 
  7201 ;; Registers used:
  7202 ;;		wreg, fsr0l, fsr0h, status,2, status,0, pclath
  7203 ;; Tracked objects:
  7204 ;;		On entry : 0/0
  7205 ;;		On exit  : 0/0
  7206 ;;		Unchanged: 0/0
  7207 ;; Data sizes:     COMMON   BANK0   BANK1   BANK2   BANK3   BANK4   BANK5   BANK6   BANK7   BANK8   BANK9  BANK10  BANK1
      +1  BANK12  BANK13  BANK14  BANK15  BANK16  BANK17  BANK18  BANK19  BANK20  BANK21  BANK22  BANK23  BANK24  BANK25
  7208 ;;      Params:         0       0       0       0       0       0       0       0       0       0       0       0       
      +0       0       0       0       0       0       0       0       0       0       0       0       0       0       0
  7209 ;;      Locals:         1       0       0       0       0       0       0       0       0       0       0       0       
      +0       0       0       0       0       0       0       0       0       0       0       0       0       0       0
  7210 ;;      Temps:          3       0       0       0       0       0       0       0       0       0       0       0       
      +0       0       0       0       0       0       0       0       0       0       0       0       0       0       0
  7211 ;;      Totals:         4       0       0       0       0       0       0       0       0       0       0       0       
      +0       0       0       0       0       0       0       0       0       0       0       0       0       0       0
  7212 ;;Total ram usage:        4 bytes
  7213 ;; Hardware stack levels used:    1
  7214 ;; This function calls:
  7215 ;;		Nothing
  7216 ;; This function is called by:
  7217 ;;		_ReadFromSerialEEPROM
  7218 ;;		_WriteToSerialEEPROM
  7219 ;; This function uses a non-reentrant model
  7220 ;;
  7221                           
  7222                           
  7223                           ;psect for function _SPI_Open
  7224  0376                     _SPI_Open:
  7225                           
  7226                           ;incstack = 0
  7227                           ; Regs used in _SPI_Open: [wreg-fsr0h+status,2+status,0+pclath]
  7228                           ;SPI_Open@spiUniqueConfiguration stored from wreg
  7229  0376  00F3               	movwf	SPI_Open@spiUniqueConfiguration
  7230  0377                     l1869:
  7231                           
  7232                           ;mcc_generated_files/spi.c: 72: _Bool SPI_Open(spi_modes_t spiUniqueConfiguration);mcc_g
      +                          enerated_files/spi.c: 73: {;mcc_generated_files/spi.c: 74:     if(!SSP1CON1bits.SSPEN)
  7233  0377  0024               	movlb	4	; select bank4
  7234  0378  1A95               	btfsc	21,5	;volatile
  7235  0379  2B7B               	goto	u451
  7236  037A  2B7C               	goto	u450
  7237  037B                     u451:
  7238  037B  2BC4               	goto	l25
  7239  037C                     u450:
  7240  037C                     l1871:
  7241                           
  7242                           ;mcc_generated_files/spi.c: 75:     {;mcc_generated_files/spi.c: 76:         SSP1STAT = 
      +                          spi_configuration[spiUniqueConfiguration].stat;
  7243  037C  0873               	movf	SPI_Open@spiUniqueConfiguration,w
  7244  037D  00F0               	movwf	??_SPI_Open
  7245  037E  01F1               	clrf	??_SPI_Open+1
  7246  037F  35F0               	lslf	??_SPI_Open,f
  7247  0380  0DF1               	rlf	??_SPI_Open+1,f
  7248  0381  35F0               	lslf	??_SPI_Open,f
  7249  0382  0DF1               	rlf	??_SPI_Open+1,f
  7250  0383  3001               	movlw	low ((_spi_configuration+1)| (0+32768))
  7251  0384  0770               	addwf	??_SPI_Open,w
  7252  0385  0084               	movwf	4
  7253  0386  3088               	movlw	high ((_spi_configuration+1)| (0+32768))
  7254  0387  3D71               	addwfc	??_SPI_Open+1,w
  7255  0388  0085               	movwf	5
  7256  0389  0800               	movf	0,w	;code access
  7257  038A  0094               	movwf	20	;volatile
  7258                           
  7259                           ;mcc_generated_files/spi.c: 77:         SSP1CON1 = spi_configuration[spiUniqueConfigurat
      +                          ion].con1;
  7260  038B  0873               	movf	SPI_Open@spiUniqueConfiguration,w
  7261  038C  00F0               	movwf	??_SPI_Open
  7262  038D  01F1               	clrf	??_SPI_Open+1
  7263  038E  35F0               	lslf	??_SPI_Open,f
  7264  038F  0DF1               	rlf	??_SPI_Open+1,f
  7265  0390  35F0               	lslf	??_SPI_Open,f
  7266  0391  0DF1               	rlf	??_SPI_Open+1,f
  7267  0392  3000               	movlw	low (_spi_configuration| (0+32768))
  7268  0393  0770               	addwf	??_SPI_Open,w
  7269  0394  0084               	movwf	4
  7270  0395  3088               	movlw	high (_spi_configuration| (0+32768))
  7271  0396  3D71               	addwfc	??_SPI_Open+1,w
  7272  0397  0085               	movwf	5
  7273  0398  0800               	movf	0,w	;code access
  7274  0399  0095               	movwf	21	;volatile
  7275  039A                     l1873:
  7276                           
  7277                           ;mcc_generated_files/spi.c: 78:         SSP1CON2 = 0x00;
  7278  039A  0196               	clrf	22	;volatile
  7279  039B                     l1875:
  7280                           
  7281                           ;mcc_generated_files/spi.c: 79:         SSP1ADD = spi_configuration[spiUniqueConfigurati
      +                          on].add;
  7282  039B  0873               	movf	SPI_Open@spiUniqueConfiguration,w
  7283  039C  00F0               	movwf	??_SPI_Open
  7284  039D  01F1               	clrf	??_SPI_Open+1
  7285  039E  35F0               	lslf	??_SPI_Open,f
  7286  039F  0DF1               	rlf	??_SPI_Open+1,f
  7287  03A0  35F0               	lslf	??_SPI_Open,f
  7288  03A1  0DF1               	rlf	??_SPI_Open+1,f
  7289  03A2  3002               	movlw	low ((_spi_configuration+2)| (0+32768))
  7290  03A3  0770               	addwf	??_SPI_Open,w
  7291  03A4  0084               	movwf	4
  7292  03A5  3088               	movlw	high ((_spi_configuration+2)| (0+32768))
  7293  03A6  3D71               	addwfc	??_SPI_Open+1,w
  7294  03A7  0085               	movwf	5
  7295  03A8  0800               	movf	0,w	;code access
  7296  03A9  0092               	movwf	18	;volatile
  7297  03AA                     l1877:
  7298                           
  7299                           ;mcc_generated_files/spi.c: 80:         TRISCbits.TRISC3 = spi_configuration[spiUniqueCo
      +                          nfiguration].operation;
  7300  03AA  0873               	movf	SPI_Open@spiUniqueConfiguration,w
  7301  03AB  00F0               	movwf	??_SPI_Open
  7302  03AC  01F1               	clrf	??_SPI_Open+1
  7303  03AD  35F0               	lslf	??_SPI_Open,f
  7304  03AE  0DF1               	rlf	??_SPI_Open+1,f
  7305  03AF  35F0               	lslf	??_SPI_Open,f
  7306  03B0  0DF1               	rlf	??_SPI_Open+1,f
  7307  03B1  3003               	movlw	low ((_spi_configuration+3)| (0+32768))
  7308  03B2  0770               	addwf	??_SPI_Open,w
  7309  03B3  0084               	movwf	4
  7310  03B4  3088               	movlw	high ((_spi_configuration+3)| (0+32768))
  7311  03B5  3D71               	addwfc	??_SPI_Open+1,w
  7312  03B6  0085               	movwf	5
  7313  03B7  0800               	movf	0,w	;code access
  7314  03B8  00F2               	movwf	??_SPI_Open+2
  7315  03B9  0DF2               	rlf	??_SPI_Open+2,f
  7316  03BA  0DF2               	rlf	??_SPI_Open+2,f
  7317  03BB  0DF2               	rlf	??_SPI_Open+2,f
  7318  03BC  0021               	movlb	1	; select bank1
  7319  03BD  080E               	movf	14,w	;volatile
  7320  03BE  0672               	xorwf	??_SPI_Open+2,w
  7321  03BF  39F7               	andlw	-9
  7322  03C0  0672               	xorwf	??_SPI_Open+2,w
  7323  03C1  008E               	movwf	14	;volatile
  7324  03C2                     l1879:
  7325                           
  7326                           ;mcc_generated_files/spi.c: 81:         SSP1CON1bits.SSPEN = 1;
  7327  03C2  0024               	movlb	4	; select bank4
  7328  03C3  1695               	bsf	21,5	;volatile
  7329  03C4                     l25:
  7330  03C4  0008               	return
  7331  03C5                     __end_of_SPI_Open:
  7332                           
  7333                           	psect	text29
  7334  0188                     __ptext29:	
  7335 ;; *************** function _SPI_Close *****************
  7336 ;; Defined at:
  7337 ;;		line 87 in file "mcc_generated_files/spi.c"
  7338 ;; Parameters:    Size  Location     Type
  7339 ;;		None
  7340 ;; Auto vars:     Size  Location     Type
  7341 ;;		None
  7342 ;; Return value:  Size  Location     Type
  7343 ;;                  1    wreg      void 
  7344 ;; Registers used:
  7345 ;;		None
  7346 ;; Tracked objects:
  7347 ;;		On entry : 0/0
  7348 ;;		On exit  : 0/0
  7349 ;;		Unchanged: 0/0
  7350 ;; Data sizes:     COMMON   BANK0   BANK1   BANK2   BANK3   BANK4   BANK5   BANK6   BANK7   BANK8   BANK9  BANK10  BANK1
      +1  BANK12  BANK13  BANK14  BANK15  BANK16  BANK17  BANK18  BANK19  BANK20  BANK21  BANK22  BANK23  BANK24  BANK25
  7351 ;;      Params:         0       0       0       0       0       0       0       0       0       0       0       0       
      +0       0       0       0       0       0       0       0       0       0       0       0       0       0       0
  7352 ;;      Locals:         0       0       0       0       0       0       0       0       0       0       0       0       
      +0       0       0       0       0       0       0       0       0       0       0       0       0       0       0
  7353 ;;      Temps:          0       0       0       0       0       0       0       0       0       0       0       0       
      +0       0       0       0       0       0       0       0       0       0       0       0       0       0       0
  7354 ;;      Totals:         0       0       0       0       0       0       0       0       0       0       0       0       
      +0       0       0       0       0       0       0       0       0       0       0       0       0       0       0
  7355 ;;Total ram usage:        0 bytes
  7356 ;; Hardware stack levels used:    1
  7357 ;; This function calls:
  7358 ;;		Nothing
  7359 ;; This function is called by:
  7360 ;;		_ReadFromSerialEEPROM
  7361 ;;		_WriteToSerialEEPROM
  7362 ;; This function uses a non-reentrant model
  7363 ;;
  7364                           
  7365                           
  7366                           ;psect for function _SPI_Close
  7367  0188                     _SPI_Close:
  7368  0188                     l1883:	
  7369                           ;incstack = 0
  7370                           ; Regs used in _SPI_Close: []
  7371                           
  7372                           
  7373                           ;mcc_generated_files/spi.c: 89:     SSP1CON1bits.SSPEN = 0;
  7374  0188  0024               	movlb	4	; select bank4
  7375  0189  1295               	bcf	21,5	;volatile
  7376  018A                     l28:
  7377  018A  0008               	return
  7378  018B                     __end_of_SPI_Close:
  7379                           
  7380                           	psect	text30
  7381  04F2                     __ptext30:	
  7382 ;; *************** function _ReadFromMem *****************
  7383 ;; Defined at:
  7384 ;;		line 45 in file "apps/src/bootloader.c"
  7385 ;; Parameters:    Size  Location     Type
  7386 ;;  recv_frame      1    wreg     PTR unsigned char 
  7387 ;;		 -> main@recv_frame(68), 
  7388 ;;  send_frame      1    5[COMMON] PTR unsigned char 
  7389 ;;		 -> main@send_frame(66), 
  7390 ;; Auto vars:     Size  Location     Type
  7391 ;;  recv_frame      1    2[BANK0 ] PTR unsigned char 
  7392 ;;		 -> main@recv_frame(68), 
  7393 ;;  dbyte           2    3[BANK0 ] unsigned short 
  7394 ;;  def_addr        2    0[BANK0 ] unsigned short 
  7395 ;;  i               1    5[BANK0 ] unsigned char 
  7396 ;; Return value:  Size  Location     Type
  7397 ;;                  1    wreg      _Bool 
  7398 ;; Registers used:
  7399 ;;		wreg, fsr1l, fsr1h, status,2, status,0, pclath, cstack
  7400 ;; Tracked objects:
  7401 ;;		On entry : 0/0
  7402 ;;		On exit  : 0/0
  7403 ;;		Unchanged: 0/0
  7404 ;; Data sizes:     COMMON   BANK0   BANK1   BANK2   BANK3   BANK4   BANK5   BANK6   BANK7   BANK8   BANK9  BANK10  BANK1
      +1  BANK12  BANK13  BANK14  BANK15  BANK16  BANK17  BANK18  BANK19  BANK20  BANK21  BANK22  BANK23  BANK24  BANK25
  7405 ;;      Params:         1       0       0       0       0       0       0       0       0       0       0       0       
      +0       0       0       0       0       0       0       0       0       0       0       0       0       0       0
  7406 ;;      Locals:         0       6       0       0       0       0       0       0       0       0       0       0       
      +0       0       0       0       0       0       0       0       0       0       0       0       0       0       0
  7407 ;;      Temps:          7       0       0       0       0       0       0       0       0       0       0       0       
      +0       0       0       0       0       0       0       0       0       0       0       0       0       0       0
  7408 ;;      Totals:         8       6       0       0       0       0       0       0       0       0       0       0       
      +0       0       0       0       0       0       0       0       0       0       0       0       0       0       0
  7409 ;;Total ram usage:       14 bytes
  7410 ;; Hardware stack levels used:    1
  7411 ;; Hardware stack levels required when called:    1
  7412 ;; This function calls:
  7413 ;;		_FLASH_Read
  7414 ;; This function is called by:
  7415 ;;		_main
  7416 ;; This function uses a non-reentrant model
  7417 ;;
  7418                           
  7419                           
  7420                           ;psect for function _ReadFromMem
  7421  04F2                     _ReadFromMem:
  7422                           
  7423                           ;incstack = 0
  7424                           ; Regs used in _ReadFromMem: [wreg+fsr1l+fsr1h+status,2+status,0+pclath+cstack]
  7425                           ;ReadFromMem@recv_frame stored from wreg
  7426  04F2  0020               	movlb	0	; select bank0
  7427  04F3  00A2               	movwf	ReadFromMem@recv_frame
  7428  04F4                     l2219:
  7429                           
  7430                           ;apps/src/bootloader.c: 46:  uint8_t i = 0;
  7431  04F4  01A5               	clrf	ReadFromMem@i
  7432                           
  7433                           ;apps/src/bootloader.c: 48:  uint16_t def_addr = 0;
  7434  04F5  01A0               	clrf	ReadFromMem@def_addr
  7435  04F6  01A1               	clrf	ReadFromMem@def_addr+1
  7436  04F7                     l2221:
  7437                           
  7438                           ;apps/src/bootloader.c: 49:  def_addr = (uint16_t)(((recv_frame[2] << 8) & 0xFF00) | (re
      +                          cv_frame[3] & 0x00FF));
  7439  04F7  0822               	movf	ReadFromMem@recv_frame,w
  7440  04F8  3E03               	addlw	3
  7441  04F9  0086               	movwf	6
  7442  04FA  3001               	movlw	1	; select bank2/3
  7443  04FB  0087               	movwf	7
  7444  04FC  0801               	movf	1,w
  7445  04FD  00F6               	movwf	??_ReadFromMem
  7446  04FE  01F7               	clrf	??_ReadFromMem+1
  7447  04FF  0822               	movf	ReadFromMem@recv_frame,w
  7448  0500  3E02               	addlw	2
  7449  0501  0086               	movwf	6
  7450  0502  3001               	movlw	1	; select bank2/3
  7451  0503  0087               	movwf	7
  7452  0504  0801               	movf	1,w
  7453  0505  00F8               	movwf	??_ReadFromMem+2
  7454  0506  01F9               	clrf	??_ReadFromMem+3
  7455  0507  0878               	movf	??_ReadFromMem+2,w
  7456  0508  00F9               	movwf	??_ReadFromMem+3
  7457  0509  01F8               	clrf	??_ReadFromMem+2
  7458  050A  3000               	movlw	0
  7459  050B  0578               	andwf	??_ReadFromMem+2,w
  7460  050C  00FB               	movwf	??_ReadFromMem+5
  7461  050D  30FF               	movlw	255
  7462  050E  0579               	andwf	??_ReadFromMem+3,w
  7463  050F  00FC               	movwf	??_ReadFromMem+6
  7464  0510  0876               	movf	??_ReadFromMem,w
  7465  0511  047B               	iorwf	??_ReadFromMem+5,w
  7466  0512  00A0               	movwf	ReadFromMem@def_addr
  7467  0513  0877               	movf	??_ReadFromMem+1,w
  7468  0514  047C               	iorwf	??_ReadFromMem+6,w
  7469  0515  00A1               	movwf	ReadFromMem@def_addr+1
  7470  0516                     l2223:
  7471                           
  7472                           ;apps/src/bootloader.c: 50:  if (recv_frame[2] == 0x80){
  7473  0516  0822               	movf	ReadFromMem@recv_frame,w
  7474  0517  3E02               	addlw	2
  7475  0518  0086               	movwf	6
  7476  0519  3001               	movlw	1	; select bank2/3
  7477  051A  0087               	movwf	7
  7478  051B  3080               	movlw	128
  7479  051C  0601               	xorwf	1,w
  7480  051D  1D03               	btfss	3,2
  7481  051E  2D20               	goto	u681
  7482  051F  2D21               	goto	u680
  7483  0520                     u681:
  7484  0520  2D46               	goto	l2235
  7485  0521                     u680:
  7486  0521                     l2225:
  7487                           
  7488                           ;apps/src/bootloader.c: 51:   dbyte = FLASH_Read(def_addr);
  7489  0521  0821               	movf	ReadFromMem@def_addr+1,w
  7490  0522  00F1               	movwf	FLASH_Read@addr+1
  7491  0523  0820               	movf	ReadFromMem@def_addr,w
  7492  0524  00F0               	movwf	FLASH_Read@addr
  7493  0525  3182  22E1  3184   	fcall	_FLASH_Read
  7494  0528  0871               	movf	?_FLASH_Read+1,w
  7495  0529  0020               	movlb	0	; select bank0
  7496  052A  00A4               	movwf	ReadFromMem@dbyte+1
  7497  052B  0870               	movf	?_FLASH_Read,w
  7498  052C  00A3               	movwf	ReadFromMem@dbyte
  7499  052D                     l2227:
  7500                           
  7501                           ;apps/src/bootloader.c: 52:   send_frame[2] = (uint8_t)((dbyte & 0xFF00) >> 8);
  7502  052D  0824               	movf	ReadFromMem@dbyte+1,w
  7503  052E  00F6               	movwf	??_ReadFromMem
  7504  052F  0875               	movf	ReadFromMem@send_frame,w
  7505  0530  3E02               	addlw	2
  7506  0531  0086               	movwf	6
  7507  0532  0187               	clrf	7
  7508  0533  0876               	movf	??_ReadFromMem,w
  7509  0534  0081               	movwf	1
  7510  0535                     l2229:
  7511                           
  7512                           ;apps/src/bootloader.c: 53:   send_frame[3] = (uint8_t)(dbyte & 0x00FF);
  7513  0535  0823               	movf	ReadFromMem@dbyte,w
  7514  0536  00F6               	movwf	??_ReadFromMem
  7515  0537  0875               	movf	ReadFromMem@send_frame,w
  7516  0538  3E03               	addlw	3
  7517  0539  0086               	movwf	6
  7518  053A  0187               	clrf	7
  7519  053B  0876               	movf	??_ReadFromMem,w
  7520  053C  0081               	movwf	1
  7521  053D                     l2231:
  7522                           
  7523                           ;apps/src/bootloader.c: 54:   i++; i++;
  7524  053D  3001               	movlw	1
  7525  053E  00F6               	movwf	??_ReadFromMem
  7526  053F  0876               	movf	??_ReadFromMem,w
  7527  0540  07A5               	addwf	ReadFromMem@i,f
  7528  0541                     l2233:
  7529  0541  3001               	movlw	1
  7530  0542  00F6               	movwf	??_ReadFromMem
  7531  0543  0876               	movf	??_ReadFromMem,w
  7532  0544  07A5               	addwf	ReadFromMem@i,f
  7533                           
  7534                           ;apps/src/bootloader.c: 55:  } else {
  7535  0545  2D77               	goto	l2253
  7536  0546                     l2235:
  7537                           
  7538                           ;apps/src/bootloader.c: 56:   for (i = 0; i != 0x0020 + 0x0020; i += 2){
  7539  0546  01A5               	clrf	ReadFromMem@i
  7540  0547                     l2241:
  7541                           
  7542                           ;apps/src/bootloader.c: 57:    dbyte = FLASH_Read(def_addr);
  7543  0547  0821               	movf	ReadFromMem@def_addr+1,w
  7544  0548  00F1               	movwf	FLASH_Read@addr+1
  7545  0549  0820               	movf	ReadFromMem@def_addr,w
  7546  054A  00F0               	movwf	FLASH_Read@addr
  7547  054B  3182  22E1  3184   	fcall	_FLASH_Read
  7548  054E  0871               	movf	?_FLASH_Read+1,w
  7549  054F  0020               	movlb	0	; select bank0
  7550  0550  00A4               	movwf	ReadFromMem@dbyte+1
  7551  0551  0870               	movf	?_FLASH_Read,w
  7552  0552  00A3               	movwf	ReadFromMem@dbyte
  7553  0553                     l2243:
  7554                           
  7555                           ;apps/src/bootloader.c: 58:    send_frame[i+2] = (uint8_t)((dbyte & 0xFF00) >> 8);
  7556  0553  0824               	movf	ReadFromMem@dbyte+1,w
  7557  0554  00F6               	movwf	??_ReadFromMem
  7558  0555  0825               	movf	ReadFromMem@i,w
  7559  0556  0775               	addwf	ReadFromMem@send_frame,w
  7560  0557  00F7               	movwf	??_ReadFromMem+1
  7561  0558  0877               	movf	??_ReadFromMem+1,w
  7562  0559  3E02               	addlw	2
  7563  055A  0086               	movwf	6
  7564  055B  0187               	clrf	7
  7565  055C  0876               	movf	??_ReadFromMem,w
  7566  055D  0081               	movwf	1
  7567  055E                     l2245:
  7568                           
  7569                           ;apps/src/bootloader.c: 59:    send_frame[i+3] = (uint8_t)(dbyte & 0x00FF);
  7570  055E  0823               	movf	ReadFromMem@dbyte,w
  7571  055F  00F6               	movwf	??_ReadFromMem
  7572  0560  0825               	movf	ReadFromMem@i,w
  7573  0561  0775               	addwf	ReadFromMem@send_frame,w
  7574  0562  00F7               	movwf	??_ReadFromMem+1
  7575  0563  0877               	movf	??_ReadFromMem+1,w
  7576  0564  3E03               	addlw	3
  7577  0565  0086               	movwf	6
  7578  0566  0187               	clrf	7
  7579  0567  0876               	movf	??_ReadFromMem,w
  7580  0568  0081               	movwf	1
  7581  0569                     l2247:
  7582                           
  7583                           ;apps/src/bootloader.c: 60:    def_addr++;
  7584  0569  3001               	movlw	1
  7585  056A  07A0               	addwf	ReadFromMem@def_addr,f
  7586  056B  3000               	movlw	0
  7587  056C  3DA1               	addwfc	ReadFromMem@def_addr+1,f
  7588  056D                     l2249:
  7589                           
  7590                           ;apps/src/bootloader.c: 61:   }
  7591  056D  3002               	movlw	2
  7592  056E  00F6               	movwf	??_ReadFromMem
  7593  056F  0876               	movf	??_ReadFromMem,w
  7594  0570  07A5               	addwf	ReadFromMem@i,f
  7595  0571                     l2251:
  7596  0571  3040               	movlw	64
  7597  0572  0625               	xorwf	ReadFromMem@i,w
  7598  0573  1D03               	btfss	3,2
  7599  0574  2D76               	goto	u691
  7600  0575  2D77               	goto	u690
  7601  0576                     u691:
  7602  0576  2D47               	goto	l2241
  7603  0577                     u690:
  7604  0577                     l2253:
  7605                           
  7606                           ;apps/src/bootloader.c: 63:  send_frame[0] = i + 2;
  7607  0577  0825               	movf	ReadFromMem@i,w
  7608  0578  3E02               	addlw	2
  7609  0579  00F6               	movwf	??_ReadFromMem
  7610  057A  0875               	movf	ReadFromMem@send_frame,w
  7611  057B  0086               	movwf	6
  7612  057C  0187               	clrf	7
  7613  057D  0876               	movf	??_ReadFromMem,w
  7614  057E  0081               	movwf	1
  7615  057F                     l2255:
  7616                           
  7617                           ;apps/src/bootloader.c: 64:  send_frame[1] = 0x02;
  7618  057F  3002               	movlw	2
  7619  0580  00F6               	movwf	??_ReadFromMem
  7620  0581  0A75               	incf	ReadFromMem@send_frame,w
  7621  0582  0086               	movwf	6
  7622  0583  0187               	clrf	7
  7623  0584  0876               	movf	??_ReadFromMem,w
  7624  0585  0081               	movwf	1
  7625  0586                     l2257:
  7626                           
  7627                           ;apps/src/bootloader.c: 65:  return 1;
  7628  0586  3001               	movlw	1
  7629  0587                     l367:
  7630  0587  0008               	return
  7631  0588                     __end_of_ReadFromMem:
  7632                           
  7633                           	psect	text31
  7634  0486                     __ptext31:	
  7635 ;; *************** function _ReadBootloaderFlags *****************
  7636 ;; Defined at:
  7637 ;;		line 137 in file "apps/src/memory.c"
  7638 ;; Parameters:    Size  Location     Type
  7639 ;;		None
  7640 ;; Auto vars:     Size  Location     Type
  7641 ;;  buf            64    0[BANK0 ] unsigned short [32]
  7642 ;;  def_addr        2   66[BANK0 ] unsigned short 
  7643 ;;  dbyte           2   64[BANK0 ] unsigned short 
  7644 ;;  i               1   68[BANK0 ] unsigned char 
  7645 ;; Return value:  Size  Location     Type
  7646 ;;                  1    wreg      void 
  7647 ;; Registers used:
  7648 ;;		wreg, fsr1l, fsr1h, status,2, status,0, pclath, cstack
  7649 ;; Tracked objects:
  7650 ;;		On entry : 0/0
  7651 ;;		On exit  : 0/0
  7652 ;;		Unchanged: 0/0
  7653 ;; Data sizes:     COMMON   BANK0   BANK1   BANK2   BANK3   BANK4   BANK5   BANK6   BANK7   BANK8   BANK9  BANK10  BANK1
      +1  BANK12  BANK13  BANK14  BANK15  BANK16  BANK17  BANK18  BANK19  BANK20  BANK21  BANK22  BANK23  BANK24  BANK25
  7654 ;;      Params:         0       0       0       0       0       0       0       0       0       0       0       0       
      +0       0       0       0       0       0       0       0       0       0       0       0       0       0       0
  7655 ;;      Locals:         0      69       0       0       0       0       0       0       0       0       0       0       
      +0       0       0       0       0       0       0       0       0       0       0       0       0       0       0
  7656 ;;      Temps:          6       0       0       0       0       0       0       0       0       0       0       0       
      +0       0       0       0       0       0       0       0       0       0       0       0       0       0       0
  7657 ;;      Totals:         6      69       0       0       0       0       0       0       0       0       0       0       
      +0       0       0       0       0       0       0       0       0       0       0       0       0       0       0
  7658 ;;Total ram usage:       75 bytes
  7659 ;; Hardware stack levels used:    1
  7660 ;; Hardware stack levels required when called:    1
  7661 ;; This function calls:
  7662 ;;		_FLASH_Read
  7663 ;; This function is called by:
  7664 ;;		_main
  7665 ;; This function uses a non-reentrant model
  7666 ;;
  7667                           
  7668                           
  7669                           ;psect for function _ReadBootloaderFlags
  7670  0486                     _ReadBootloaderFlags:
  7671  0486                     l2121:	
  7672                           ;incstack = 0
  7673                           ; Regs used in _ReadBootloaderFlags: [wreg+fsr1l+fsr1h+status,2+status,0+pclath+cstack]
  7674                           
  7675                           
  7676                           ;apps/src/memory.c: 139:     uint16_t buf[0x0020];;apps/src/memory.c: 140:     uint16_t 
      +                          dbyte = 0;
  7677  0486  0020               	movlb	0	; select bank0
  7678  0487  01E0               	clrf	ReadBootloaderFlags@dbyte
  7679  0488  01E1               	clrf	ReadBootloaderFlags@dbyte+1
  7680  0489                     l2123:
  7681                           
  7682                           ;apps/src/memory.c: 141:     uint16_t def_addr = 0x3FE0;
  7683  0489  30E0               	movlw	224
  7684  048A  00E2               	movwf	ReadBootloaderFlags@def_addr
  7685  048B  303F               	movlw	63
  7686  048C  00E3               	movwf	ReadBootloaderFlags@def_addr+1
  7687  048D                     l2125:
  7688                           
  7689                           ;apps/src/memory.c: 143:         for (i = 0; i != 0x0020; i ++){
  7690  048D  01E4               	clrf	ReadBootloaderFlags@i
  7691  048E                     l2131:
  7692                           
  7693                           ;apps/src/memory.c: 144:             buf[i] = FLASH_Read(def_addr);
  7694  048E  0863               	movf	ReadBootloaderFlags@def_addr+1,w
  7695  048F  00F1               	movwf	FLASH_Read@addr+1
  7696  0490  0862               	movf	ReadBootloaderFlags@def_addr,w
  7697  0491  00F0               	movwf	FLASH_Read@addr
  7698  0492  3182  22E1  3184   	fcall	_FLASH_Read
  7699  0495  0020               	movlb	0	; select bank0
  7700  0496  3564               	lslf	ReadBootloaderFlags@i,w
  7701  0497  3E20               	addlw	(low (ReadBootloaderFlags@buf| 0))& (0+255)
  7702  0498  0086               	movwf	6
  7703  0499  0187               	clrf	7
  7704  049A  0870               	movf	?_FLASH_Read,w
  7705  049B  3FC0               	movwi [0]fsr1
  7706  049C  0871               	movf	?_FLASH_Read+1,w
  7707  049D  3FC1               	movwi [1]fsr1
  7708  049E                     l2133:
  7709                           
  7710                           ;apps/src/memory.c: 145:             def_addr++;
  7711  049E  3001               	movlw	1
  7712  049F  07E2               	addwf	ReadBootloaderFlags@def_addr,f
  7713  04A0  3000               	movlw	0
  7714  04A1  3DE3               	addwfc	ReadBootloaderFlags@def_addr+1,f
  7715  04A2                     l2135:
  7716                           
  7717                           ;apps/src/memory.c: 146:         }
  7718  04A2  3001               	movlw	1
  7719  04A3  00F5               	movwf	??_ReadBootloaderFlags
  7720  04A4  0875               	movf	??_ReadBootloaderFlags,w
  7721  04A5  07E4               	addwf	ReadBootloaderFlags@i,f
  7722  04A6                     l2137:
  7723  04A6  3020               	movlw	32
  7724  04A7  0664               	xorwf	ReadBootloaderFlags@i,w
  7725  04A8  1D03               	btfss	3,2
  7726  04A9  2CAB               	goto	u591
  7727  04AA  2CAC               	goto	u590
  7728  04AB                     u591:
  7729  04AB  2C8E               	goto	l2131
  7730  04AC                     u590:
  7731  04AC                     l2139:
  7732                           
  7733                           ;apps/src/memory.c: 148:     if ((uint8_t)(buf[0] & 0x00FF) == 0x00){ BLFlags.IsBLStart 
      +                          = 1;}
  7734  04AC  0820               	movf	ReadBootloaderFlags@buf,w
  7735  04AD  1D03               	btfss	3,2
  7736  04AE  2CB0               	goto	u601
  7737  04AF  2CB1               	goto	u600
  7738  04B0                     u601:
  7739  04B0  2CB4               	goto	l2143
  7740  04B1                     u600:
  7741  04B1                     l2141:
  7742  04B1  0022               	movlb	2	; select bank2
  7743  04B2  01E4               	clrf	_BLFlags^(0+256)
  7744  04B3  0AE4               	incf	_BLFlags^(0+256),f
  7745  04B4                     l2143:
  7746                           
  7747                           ;apps/src/memory.c: 149:     if ((uint8_t)(buf[1] & 0x00FF) == 0x00){ BLFlags.IsExtUpgra
      +                          de = 1;}
  7748  04B4  0020               	movlb	0	; select bank0
  7749  04B5  0822               	movf	ReadBootloaderFlags@buf+2,w
  7750  04B6  1D03               	btfss	3,2
  7751  04B7  2CB9               	goto	u611
  7752  04B8  2CBA               	goto	u610
  7753  04B9                     u611:
  7754  04B9  2CBD               	goto	l2147
  7755  04BA                     u610:
  7756  04BA                     l2145:
  7757  04BA  0022               	movlb	2	; select bank2
  7758  04BB  01E5               	clrf	(_BLFlags^(0+256)+1)
  7759  04BC  0AE5               	incf	(_BLFlags^(0+256)+1),f
  7760  04BD                     l2147:
  7761                           
  7762                           ;apps/src/memory.c: 150:     BLFlags.StartAddrExtUpgrade = (uint16_t)(((buf[2] << 8) & 0
      +                          xFF00) | (buf[3] & 0x00FF));
  7763  04BD  30FF               	movlw	255
  7764  04BE  0020               	movlb	0	; select bank0
  7765  04BF  0526               	andwf	ReadBootloaderFlags@buf+6,w
  7766  04C0  00F5               	movwf	??_ReadBootloaderFlags
  7767  04C1  3000               	movlw	0
  7768  04C2  0527               	andwf	ReadBootloaderFlags@buf+7,w
  7769  04C3  00F6               	movwf	??_ReadBootloaderFlags+1
  7770  04C4  0824               	movf	ReadBootloaderFlags@buf+4,w
  7771  04C5  00F8               	movwf	??_ReadBootloaderFlags+3
  7772  04C6  01F7               	clrf	??_ReadBootloaderFlags+2
  7773  04C7  3000               	movlw	0
  7774  04C8  0577               	andwf	??_ReadBootloaderFlags+2,w
  7775  04C9  00F9               	movwf	??_ReadBootloaderFlags+4
  7776  04CA  30FF               	movlw	255
  7777  04CB  0578               	andwf	??_ReadBootloaderFlags+3,w
  7778  04CC  00FA               	movwf	??_ReadBootloaderFlags+5
  7779  04CD  0875               	movf	??_ReadBootloaderFlags,w
  7780  04CE  0479               	iorwf	??_ReadBootloaderFlags+4,w
  7781  04CF  0022               	movlb	2	; select bank2
  7782  04D0  00E6               	movwf	(_BLFlags^(0+256)+2)
  7783  04D1  0876               	movf	??_ReadBootloaderFlags+1,w
  7784  04D2  047A               	iorwf	??_ReadBootloaderFlags+5,w
  7785  04D3  00E7               	movwf	((_BLFlags+1)^(0+256)+2)
  7786                           
  7787                           ;apps/src/memory.c: 151:     BLFlags.NumBlocksExtUpgrade = (uint16_t)(((buf[4] << 8) & 0
      +                          xFF00) | (buf[5] & 0x00FF));
  7788  04D4  30FF               	movlw	255
  7789  04D5  0020               	movlb	0	; select bank0
  7790  04D6  052A               	andwf	ReadBootloaderFlags@buf+10,w
  7791  04D7  00F5               	movwf	??_ReadBootloaderFlags
  7792  04D8  3000               	movlw	0
  7793  04D9  052B               	andwf	ReadBootloaderFlags@buf+11,w
  7794  04DA  00F6               	movwf	??_ReadBootloaderFlags+1
  7795  04DB  0828               	movf	ReadBootloaderFlags@buf+8,w
  7796  04DC  00F8               	movwf	??_ReadBootloaderFlags+3
  7797  04DD  01F7               	clrf	??_ReadBootloaderFlags+2
  7798  04DE  3000               	movlw	0
  7799  04DF  0577               	andwf	??_ReadBootloaderFlags+2,w
  7800  04E0  00F9               	movwf	??_ReadBootloaderFlags+4
  7801  04E1  30FF               	movlw	255
  7802  04E2  0578               	andwf	??_ReadBootloaderFlags+3,w
  7803  04E3  00FA               	movwf	??_ReadBootloaderFlags+5
  7804  04E4  0875               	movf	??_ReadBootloaderFlags,w
  7805  04E5  0479               	iorwf	??_ReadBootloaderFlags+4,w
  7806  04E6  0022               	movlb	2	; select bank2
  7807  04E7  00E8               	movwf	(_BLFlags^(0+256)+4)
  7808  04E8  0876               	movf	??_ReadBootloaderFlags+1,w
  7809  04E9  047A               	iorwf	??_ReadBootloaderFlags+5,w
  7810  04EA  00E9               	movwf	((_BLFlags+1)^(0+256)+4)
  7811                           
  7812                           ;apps/src/memory.c: 152:     BLFlags.StatusCodeExtUpgrade = (uint8_t)(buf[6] & 0x00FF);
  7813  04EB  0020               	movlb	0	; select bank0
  7814  04EC  082C               	movf	ReadBootloaderFlags@buf+12,w
  7815  04ED  00F5               	movwf	??_ReadBootloaderFlags
  7816  04EE  0875               	movf	??_ReadBootloaderFlags,w
  7817  04EF  0022               	movlb	2	; select bank2
  7818  04F0  00EA               	movwf	(_BLFlags^(0+256)+6)
  7819  04F1                     l454:
  7820  04F1  0008               	return
  7821  04F2                     __end_of_ReadBootloaderFlags:
  7822                           
  7823                           	psect	text32
  7824  02E1                     __ptext32:	
  7825 ;; *************** function _FLASH_Read *****************
  7826 ;; Defined at:
  7827 ;;		line 52 in file "apps/src/memory.c"
  7828 ;; Parameters:    Size  Location     Type
  7829 ;;  addr            2    0[COMMON] unsigned short 
  7830 ;; Auto vars:     Size  Location     Type
  7831 ;;  INR_state       1    4[COMMON] unsigned char 
  7832 ;; Return value:  Size  Location     Type
  7833 ;;                  2    0[COMMON] unsigned short 
  7834 ;; Registers used:
  7835 ;;		wreg, status,2, status,0
  7836 ;; Tracked objects:
  7837 ;;		On entry : 0/0
  7838 ;;		On exit  : 0/0
  7839 ;;		Unchanged: 0/0
  7840 ;; Data sizes:     COMMON   BANK0   BANK1   BANK2   BANK3   BANK4   BANK5   BANK6   BANK7   BANK8   BANK9  BANK10  BANK1
      +1  BANK12  BANK13  BANK14  BANK15  BANK16  BANK17  BANK18  BANK19  BANK20  BANK21  BANK22  BANK23  BANK24  BANK25
  7841 ;;      Params:         2       0       0       0       0       0       0       0       0       0       0       0       
      +0       0       0       0       0       0       0       0       0       0       0       0       0       0       0
  7842 ;;      Locals:         1       0       0       0       0       0       0       0       0       0       0       0       
      +0       0       0       0       0       0       0       0       0       0       0       0       0       0       0
  7843 ;;      Temps:          2       0       0       0       0       0       0       0       0       0       0       0       
      +0       0       0       0       0       0       0       0       0       0       0       0       0       0       0
  7844 ;;      Totals:         5       0       0       0       0       0       0       0       0       0       0       0       
      +0       0       0       0       0       0       0       0       0       0       0       0       0       0       0
  7845 ;;Total ram usage:        5 bytes
  7846 ;; Hardware stack levels used:    1
  7847 ;; This function calls:
  7848 ;;		Nothing
  7849 ;; This function is called by:
  7850 ;;		_ReadFromMem
  7851 ;;		_ReadBootloaderFlags
  7852 ;;		_WriteBootloaderFlags
  7853 ;; This function uses a non-reentrant model
  7854 ;;
  7855                           
  7856                           
  7857                           ;psect for function _FLASH_Read
  7858  02E1                     _FLASH_Read:
  7859  02E1                     l2017:	
  7860                           ;incstack = 0
  7861                           ; Regs used in _FLASH_Read: [wreg+status,2+status,0]
  7862                           
  7863                           
  7864                           ;apps/src/memory.c: 53:     uint8_t INR_state = INTCONbits.GIE;
  7865  02E1  3000               	movlw	0
  7866  02E2  1B8B               	btfsc	11,7	;volatile
  7867  02E3  3001               	movlw	1
  7868  02E4  00F4               	movwf	FLASH_Read@INR_state
  7869  02E5                     l2019:
  7870                           
  7871                           ;apps/src/memory.c: 54:     INTCONbits.GIE = 0;
  7872  02E5  138B               	bcf	11,7	;volatile
  7873                           
  7874                           ;apps/src/memory.c: 56:         EEADRH = (uint8_t)((addr & 0xFF00)>>8);
  7875  02E6  0871               	movf	FLASH_Read@addr+1,w
  7876  02E7  0023               	movlb	3	; select bank3
  7877  02E8  0092               	movwf	18	;volatile
  7878  02E9                     l2021:
  7879                           
  7880                           ;apps/src/memory.c: 57:         EEADRL = (uint8_t)(addr & 0x00FF);
  7881  02E9  0870               	movf	FLASH_Read@addr,w
  7882  02EA  0091               	movwf	17	;volatile
  7883  02EB                     l2023:
  7884                           
  7885                           ;apps/src/memory.c: 59:     if ((uint8_t)((addr & 0xFF00) >> 8) == 0x80){
  7886  02EB  0871               	movf	FLASH_Read@addr+1,w
  7887  02EC  00F3               	movwf	??_FLASH_Read+1
  7888  02ED  0870               	movf	FLASH_Read@addr,w
  7889  02EE  00F2               	movwf	??_FLASH_Read
  7890  02EF  0873               	movf	??_FLASH_Read+1,w
  7891  02F0  00F2               	movwf	??_FLASH_Read
  7892  02F1  01F3               	clrf	??_FLASH_Read+1
  7893  02F2  3080               	movlw	128
  7894  02F3  0672               	xorwf	??_FLASH_Read,w
  7895  02F4  1D03               	btfss	3,2
  7896  02F5  2AF7               	goto	u531
  7897  02F6  2AF8               	goto	u530
  7898  02F7                     u531:
  7899  02F7  2AFA               	goto	l435
  7900  02F8                     u530:
  7901  02F8                     l2025:
  7902                           
  7903                           ;apps/src/memory.c: 60:         EECON1bits.CFGS = 1;
  7904  02F8  1715               	bsf	21,6	;volsfr
  7905                           
  7906                           ;apps/src/memory.c: 61:     } else {
  7907  02F9  2AFB               	goto	l436
  7908  02FA                     l435:
  7909                           
  7910                           ;apps/src/memory.c: 62:         EECON1bits.CFGS = 0;
  7911  02FA  1315               	bcf	21,6	;volsfr
  7912  02FB                     l436:	
  7913                           ;apps/src/memory.c: 63:     }
  7914                           
  7915                           
  7916                           ;apps/src/memory.c: 65:     EECON1bits.EEPGD = 1;
  7917  02FB  1795               	bsf	21,7	;volsfr
  7918                           
  7919                           ;apps/src/memory.c: 67:     EECON1bits.RD = 1;
  7920  02FC  1415               	bsf	21,0	;volsfr
  7921                           
  7922                           ;apps/src/memory.c: 68:     __nop();
  7923  02FD  0000               	nop
  7924                           
  7925                           ;apps/src/memory.c: 69:     __nop();
  7926  02FE  0000               	nop
  7927  02FF                     l2027:
  7928                           
  7929                           ;apps/src/memory.c: 71:     INTCONbits.GIE = INR_state;
  7930  02FF  0C74               	rrf	FLASH_Read@INR_state,w
  7931  0300  1C03               	skipc
  7932  0301  138B               	bcf	11,7	;volatile
  7933  0302  1803               	skipnc
  7934  0303  178B               	bsf	11,7	;volatile
  7935  0304                     l2029:
  7936                           
  7937                           ;apps/src/memory.c: 72:     return ((uint16_t)((EEDATH << 8) | EEDATL));
  7938  0304  0023               	movlb	3	; select bank3
  7939  0305  0814               	movf	20,w	;volatile
  7940  0306  00F1               	movwf	?_FLASH_Read+1
  7941  0307  0813               	movf	19,w	;volatile
  7942  0308  00F0               	movwf	?_FLASH_Read
  7943  0309                     l437:
  7944  0309  0008               	return
  7945  030A                     __end_of_FLASH_Read:
  7946                           
  7947                           	psect	text33
  7948  01BA                     __ptext33:	
  7949 ;; *************** function _KeyBLRequired *****************
  7950 ;; Defined at:
  7951 ;;		line 3 in file "apps/src/bootloader.c"
  7952 ;; Parameters:    Size  Location     Type
  7953 ;;		None
  7954 ;; Auto vars:     Size  Location     Type
  7955 ;;		None
  7956 ;; Return value:  Size  Location     Type
  7957 ;;                  1    wreg      _Bool 
  7958 ;; Registers used:
  7959 ;;		wreg
  7960 ;; Tracked objects:
  7961 ;;		On entry : 0/0
  7962 ;;		On exit  : 0/0
  7963 ;;		Unchanged: 0/0
  7964 ;; Data sizes:     COMMON   BANK0   BANK1   BANK2   BANK3   BANK4   BANK5   BANK6   BANK7   BANK8   BANK9  BANK10  BANK1
      +1  BANK12  BANK13  BANK14  BANK15  BANK16  BANK17  BANK18  BANK19  BANK20  BANK21  BANK22  BANK23  BANK24  BANK25
  7965 ;;      Params:         0       0       0       0       0       0       0       0       0       0       0       0       
      +0       0       0       0       0       0       0       0       0       0       0       0       0       0       0
  7966 ;;      Locals:         0       0       0       0       0       0       0       0       0       0       0       0       
      +0       0       0       0       0       0       0       0       0       0       0       0       0       0       0
  7967 ;;      Temps:          0       0       0       0       0       0       0       0       0       0       0       0       
      +0       0       0       0       0       0       0       0       0       0       0       0       0       0       0
  7968 ;;      Totals:         0       0       0       0       0       0       0       0       0       0       0       0       
      +0       0       0       0       0       0       0       0       0       0       0       0       0       0       0
  7969 ;;Total ram usage:        0 bytes
  7970 ;; Hardware stack levels used:    1
  7971 ;; This function calls:
  7972 ;;		Nothing
  7973 ;; This function is called by:
  7974 ;;		_main
  7975 ;; This function uses a non-reentrant model
  7976 ;;
  7977                           
  7978                           
  7979                           ;psect for function _KeyBLRequired
  7980  01BA                     _KeyBLRequired:
  7981  01BA                     l2187:	
  7982                           ;incstack = 0
  7983                           ; Regs used in _KeyBLRequired: [wreg]
  7984                           
  7985                           
  7986                           ;apps/src/bootloader.c: 4:  if (PORTBbits.RB0 == 1) {
  7987  01BA  0020               	movlb	0	; select bank0
  7988  01BB  1C0D               	btfss	13,0	;volatile
  7989  01BC  29BE               	goto	u651
  7990  01BD  29BF               	goto	u650
  7991  01BE                     u651:
  7992  01BE  29C1               	goto	l2195
  7993  01BF                     u650:
  7994  01BF                     l2189:
  7995                           
  7996                           ;apps/src/bootloader.c: 5:   return 1;
  7997  01BF  3001               	movlw	1
  7998  01C0  29C2               	goto	l351
  7999  01C1                     l2195:
  8000                           
  8001                           ;apps/src/bootloader.c: 7:   return 0;
  8002  01C1  3000               	movlw	0
  8003  01C2                     l351:
  8004  01C2  0008               	return
  8005  01C3                     __end_of_KeyBLRequired:
  8006                           
  8007                           	psect	text34
  8008  021D                     __ptext34:	
  8009 ;; *************** function _DefineError *****************
  8010 ;; Defined at:
  8011 ;;		line 17 in file "apps/src/bootloader.c"
  8012 ;; Parameters:    Size  Location     Type
  8013 ;;  send_frame      1    wreg     PTR unsigned char 
  8014 ;;		 -> main@send_frame(66), 
  8015 ;; Auto vars:     Size  Location     Type
  8016 ;;  send_frame      1    1[COMMON] PTR unsigned char 
  8017 ;;		 -> main@send_frame(66), 
  8018 ;; Return value:  Size  Location     Type
  8019 ;;                  1    wreg      _Bool 
  8020 ;; Registers used:
  8021 ;;		wreg, fsr1l, fsr1h
  8022 ;; Tracked objects:
  8023 ;;		On entry : 0/0
  8024 ;;		On exit  : 0/0
  8025 ;;		Unchanged: 0/0
  8026 ;; Data sizes:     COMMON   BANK0   BANK1   BANK2   BANK3   BANK4   BANK5   BANK6   BANK7   BANK8   BANK9  BANK10  BANK1
      +1  BANK12  BANK13  BANK14  BANK15  BANK16  BANK17  BANK18  BANK19  BANK20  BANK21  BANK22  BANK23  BANK24  BANK25
  8027 ;;      Params:         0       0       0       0       0       0       0       0       0       0       0       0       
      +0       0       0       0       0       0       0       0       0       0       0       0       0       0       0
  8028 ;;      Locals:         1       0       0       0       0       0       0       0       0       0       0       0       
      +0       0       0       0       0       0       0       0       0       0       0       0       0       0       0
  8029 ;;      Temps:          1       0       0       0       0       0       0       0       0       0       0       0       
      +0       0       0       0       0       0       0       0       0       0       0       0       0       0       0
  8030 ;;      Totals:         2       0       0       0       0       0       0       0       0       0       0       0       
      +0       0       0       0       0       0       0       0       0       0       0       0       0       0       0
  8031 ;;Total ram usage:        2 bytes
  8032 ;; Hardware stack levels used:    1
  8033 ;; This function calls:
  8034 ;;		Nothing
  8035 ;; This function is called by:
  8036 ;;		_main
  8037 ;; This function uses a non-reentrant model
  8038 ;;
  8039                           
  8040                           
  8041                           ;psect for function _DefineError
  8042  021D                     _DefineError:
  8043                           
  8044                           ;incstack = 0
  8045                           ; Regs used in _DefineError: [wregfsr1]
  8046                           ;DefineError@send_frame stored from wreg
  8047  021D  00F1               	movwf	DefineError@send_frame
  8048  021E                     l2383:
  8049                           
  8050                           ;apps/src/bootloader.c: 18:  send_frame[0] = 0x02;
  8051  021E  3002               	movlw	2
  8052  021F  00F0               	movwf	??_DefineError
  8053  0220  0871               	movf	DefineError@send_frame,w
  8054  0221  0086               	movwf	6
  8055  0222  0187               	clrf	7
  8056  0223  0870               	movf	??_DefineError,w
  8057  0224  0081               	movwf	1
  8058                           
  8059                           ;apps/src/bootloader.c: 19:  send_frame[1] = 0xFF;
  8060  0225  30FF               	movlw	255
  8061  0226  00F0               	movwf	??_DefineError
  8062  0227  0A71               	incf	DefineError@send_frame,w
  8063  0228  0086               	movwf	6
  8064  0229  0187               	clrf	7
  8065  022A  0870               	movf	??_DefineError,w
  8066  022B  0081               	movwf	1
  8067  022C                     l2385:
  8068                           
  8069                           ;apps/src/bootloader.c: 20:  return 1;
  8070  022C  3001               	movlw	1
  8071  022D                     l360:
  8072  022D  0008               	return
  8073  022E                     __end_of_DefineError:
  8074                           
  8075                           	psect	text35
  8076  022E                     __ptext35:	
  8077 ;; *************** function _ClearArray *****************
  8078 ;; Defined at:
  8079 ;;		line 12 in file "apps/src/bootloader.c"
  8080 ;; Parameters:    Size  Location     Type
  8081 ;;  array           2    0[COMMON] PTR unsigned char 
  8082 ;;		 -> main@send_frame(66), main@recv_frame(68), 
  8083 ;; Auto vars:     Size  Location     Type
  8084 ;;  i               1    4[COMMON] unsigned char 
  8085 ;; Return value:  Size  Location     Type
  8086 ;;                  1    wreg      void 
  8087 ;; Registers used:
  8088 ;;		wreg, fsr1l, fsr1h, status,2, status,0
  8089 ;; Tracked objects:
  8090 ;;		On entry : 0/0
  8091 ;;		On exit  : 0/0
  8092 ;;		Unchanged: 0/0
  8093 ;; Data sizes:     COMMON   BANK0   BANK1   BANK2   BANK3   BANK4   BANK5   BANK6   BANK7   BANK8   BANK9  BANK10  BANK1
      +1  BANK12  BANK13  BANK14  BANK15  BANK16  BANK17  BANK18  BANK19  BANK20  BANK21  BANK22  BANK23  BANK24  BANK25
  8094 ;;      Params:         2       0       0       0       0       0       0       0       0       0       0       0       
      +0       0       0       0       0       0       0       0       0       0       0       0       0       0       0
  8095 ;;      Locals:         1       0       0       0       0       0       0       0       0       0       0       0       
      +0       0       0       0       0       0       0       0       0       0       0       0       0       0       0
  8096 ;;      Temps:          2       0       0       0       0       0       0       0       0       0       0       0       
      +0       0       0       0       0       0       0       0       0       0       0       0       0       0       0
  8097 ;;      Totals:         5       0       0       0       0       0       0       0       0       0       0       0       
      +0       0       0       0       0       0       0       0       0       0       0       0       0       0       0
  8098 ;;Total ram usage:        5 bytes
  8099 ;; Hardware stack levels used:    1
  8100 ;; This function calls:
  8101 ;;		Nothing
  8102 ;; This function is called by:
  8103 ;;		_main
  8104 ;; This function uses a non-reentrant model
  8105 ;;
  8106                           
  8107                           
  8108                           ;psect for function _ClearArray
  8109  022E                     _ClearArray:
  8110  022E                     l2109:	
  8111                           ;incstack = 0
  8112                           ; Regs used in _ClearArray: [wreg+fsr1l+fsr1h+status,2+status,0]
  8113                           
  8114                           
  8115                           ;apps/src/bootloader.c: 13:  uint8_t i = 0;
  8116  022E  01F4               	clrf	ClearArray@i
  8117                           
  8118                           ;apps/src/bootloader.c: 14:     for (i = 0; i != 66; i++){array[i]=0x00;}
  8119  022F  01F4               	clrf	ClearArray@i
  8120  0230                     l2115:
  8121  0230  0874               	movf	ClearArray@i,w
  8122  0231  00F2               	movwf	??_ClearArray
  8123  0232  01F3               	clrf	??_ClearArray+1
  8124  0233  0872               	movf	??_ClearArray,w
  8125  0234  0770               	addwf	ClearArray@array,w
  8126  0235  0086               	movwf	6
  8127  0236  0873               	movf	??_ClearArray+1,w
  8128  0237  3D71               	addwfc	ClearArray@array+1,w
  8129  0238  0087               	movwf	7
  8130  0239  0181               	clrf	1
  8131  023A                     l2117:
  8132  023A  3001               	movlw	1
  8133  023B  00F2               	movwf	??_ClearArray
  8134  023C  0872               	movf	??_ClearArray,w
  8135  023D  07F4               	addwf	ClearArray@i,f
  8136  023E                     l2119:
  8137  023E  3042               	movlw	66
  8138  023F  0674               	xorwf	ClearArray@i,w
  8139  0240  1D03               	btfss	3,2
  8140  0241  2A43               	goto	u581
  8141  0242  2A44               	goto	u580
  8142  0243                     u581:
  8143  0243  2A30               	goto	l2115
  8144  0244                     u580:
  8145  0244                     l357:
  8146  0244  0008               	return
  8147  0245                     __end_of_ClearArray:
  8148  007E                     btemp	set	126	;btemp
  8149  007E                     wtemp0	set	126
  8150                           
  8151                           	psect	config
  8152                           
  8153                           ;Config register CONFIG1 @ 0x8007
  8154                           ;	Oscillator Selection
  8155                           ;	FOSC = INTOSC, INTOSC oscillator: I/O function on CLKIN pin
  8156                           ;	Watchdog Timer Enable
  8157                           ;	WDTE = OFF, WDT disabled
  8158                           ;	Power-up Timer Enable
  8159                           ;	PWRTE = ON, PWRT enabled
  8160                           ;	MCLR Pin Function Select
  8161                           ;	MCLRE = OFF, MCLR/VPP pin function is digital input
  8162                           ;	Flash Program Memory Code Protection
  8163                           ;	CP = OFF, Program memory code protection is disabled
  8164                           ;	Data Memory Code Protection
  8165                           ;	CPD = OFF, Data memory code protection is disabled
  8166                           ;	Brown-out Reset Enable
  8167                           ;	BOREN = OFF, Brown-out Reset disabled
  8168                           ;	Clock Out Enable
  8169                           ;	CLKOUTEN = OFF, CLKOUT function is disabled. I/O or oscillator function on the CLKOUT 
      +                          pin
  8170                           ;	Internal/External Switchover
  8171                           ;	IESO = ON, Internal/External Switchover mode is enabled
  8172                           ;	Fail-Safe Clock Monitor Enable
  8173                           ;	FCMEN = ON, Fail-Safe Clock Monitor is enabled
  8174  8007                     	org	32775
  8175  8007  3984               	dw	14724
  8176                           
  8177                           ;Config register CONFIG2 @ 0x8008
  8178                           ;	Flash Memory Self-Write Protection
  8179                           ;	WRT = OFF, Write protection off
  8180                           ;	Voltage Regulator Capacitor Enable bit
  8181                           ;	VCAPEN = OFF, Vcap functionality is disabled on RA6.
  8182                           ;	PLL Enable
  8183                           ;	PLLEN = ON, 4x PLL enabled
  8184                           ;	Stack Overflow/Underflow Reset Enable
  8185                           ;	STVREN = ON, Stack Overflow or Underflow will cause a Reset
  8186                           ;	Brown-out Reset Voltage Selection
  8187                           ;	BORV = LO, Brown-out Reset Voltage (Vbor), low trip point selected.
  8188                           ;	Low Power Brown-Out Reset Enable Bit
  8189                           ;	LPBOR = OFF, Low power brown-out is disabled
  8190                           ;	Low-Voltage Programming Enable
  8191                           ;	LVP = ON, Low-voltage programming enabled
  8192  8008                     	org	32776
  8193  8008  3FFF               	dw	16383

Data Sizes:
    Strings     0
    Constant    4
    Data        0
    BSS         8
    Persistent  38
    Stack       0

Auto Spaces:
    Space          Size  Autos    Used
    COMMON           14     14      14
    BANK0            80     78      79
    BANK1            80     66      72
    BANK2            80     68      75
    BANK3            80      0       0
    BANK4            80      0       0
    BANK5            80      0       0
    BANK6            80      0       0
    BANK7            80      0       0
    BANK8            80      0       0
    BANK9            80      0       0
    BANK10           80      0       0
    BANK11           80      0       0
    BANK12           80      0       0
    BANK13           80      0       0
    BANK14           80      0       0
    BANK15           80      0       0
    BANK16           80      0       0
    BANK17           80      0       0
    BANK18           80      0       0
    BANK19           80      0       0
    BANK20           80      0       0
    BANK21           80      0       0
    BANK22           80      0       0
    BANK23           80      0       0
    BANK24           80      0       0
    BANK25           32      0       0

Pointer List with Targets:

    WriteToSerialEEPROM@send_frame	PTR unsigned char  size(1) Largest target is 66
		 -> main@send_frame(BANK1[66]), 

    WriteToSerialEEPROM@recv_frame	PTR unsigned char  size(1) Largest target is 68
		 -> main@recv_frame(BANK2[68]), 

    ReadFromSerialEEPROM@send_frame	PTR unsigned char  size(1) Largest target is 66
		 -> main@send_frame(BANK1[66]), 

    ReadFromSerialEEPROM@recv_frame	PTR unsigned char  size(1) Largest target is 68
		 -> main@recv_frame(BANK2[68]), 

    FLASH_Write@buffer	PTR unsigned char  size(2) Largest target is 68
		 -> WriteBootloaderFlags@buf(BANK0[68]), main@recv_frame(BANK2[68]), 

    UART_dataWrite@data_ptr	PTR unsigned char  size(1) Largest target is 66
		 -> main@send_frame(BANK1[66]), 

    WriteToMem@send_frame	PTR unsigned char  size(1) Largest target is 66
		 -> main@send_frame(BANK1[66]), 

    WriteToMem@recv_frame	PTR unsigned char  size(1) Largest target is 68
		 -> main@recv_frame(BANK2[68]), 

    ReadFromMem@send_frame	PTR unsigned char  size(1) Largest target is 66
		 -> main@send_frame(BANK1[66]), 

    ReadFromMem@recv_frame	PTR unsigned char  size(1) Largest target is 68
		 -> main@recv_frame(BANK2[68]), 

    DefineError@send_frame	PTR unsigned char  size(1) Largest target is 66
		 -> main@send_frame(BANK1[66]), 

    ClearArray@array	PTR unsigned char  size(2) Largest target is 68
		 -> main@send_frame(BANK1[66]), main@recv_frame(BANK2[68]), 

    EUSART_SetErrorHandler@interruptHandler	PTR FTN()void  size(2) Largest target is 1
		 -> EUSART_DefaultErrorHandler(), 

    EUSART_ErrorHandler	PTR FTN()void  size(2) Largest target is 1
		 -> Absolute function(), EUSART_DefaultErrorHandler(), 

    EUSART_SetOverrunErrorHandler@interruptHandler	PTR FTN()void  size(2) Largest target is 1
		 -> EUSART_DefaultOverrunErrorHandler(), 

    EUSART_OverrunErrorHandler	PTR FTN()void  size(2) Largest target is 1
		 -> Absolute function(), EUSART_DefaultOverrunErrorHandler(), 

    EUSART_SetFramingErrorHandler@interruptHandler	PTR FTN()void  size(2) Largest target is 1
		 -> EUSART_DefaultFramingErrorHandler(), 

    EUSART_FramingErrorHandler	PTR FTN()void  size(2) Largest target is 1
		 -> Absolute function(), EUSART_DefaultFramingErrorHandler(), 

    SPI_ReadBlock@block	PTR void  size(1) Largest target is 64
		 -> ReadFromSerialEEPROM@buffer(BANK0[64]), 

    SPI_ReadBlock@data	PTR unsigned char  size(1) Largest target is 64
		 -> ReadFromSerialEEPROM@buffer(BANK0[64]), 

    SPI_WriteBlock@block	PTR void  size(1) Largest target is 67
		 -> WriteToSerialEEPROM@buffer(BANK0[67]), ReadFromSerialEEPROM@buffer(BANK0[64]), 

    SPI_WriteBlock@data	PTR unsigned char  size(1) Largest target is 67
		 -> WriteToSerialEEPROM@buffer(BANK0[67]), ReadFromSerialEEPROM@buffer(BANK0[64]), 


Critical Paths under _main in COMMON

    _main->_WriteBootloaderFlags
    _main->_WriteToMem
    _WriteToSerialEEPROM->_SPI_WriteBlock
    _WriteToMem->_FLASH_Write
    _WriteBootloaderFlags->_FLASH_Write
    _UART_dataWrite->_EUSART_Write
    _UART_dataWrite->_EUSART_is_tx_ready
    _EUSART_Initialize->_EUSART_SetErrorHandler
    _EUSART_Initialize->_EUSART_SetFramingErrorHandler
    _EUSART_Initialize->_EUSART_SetOverrunErrorHandler
    _ReadFromSerialEEPROM->_SPI_ReadBlock
    _ReadFromSerialEEPROM->_SPI_WriteBlock
    _SPI_WriteBlock->_SPI_ExchangeByte
    _SPI_ReadBlock->_SPI_ExchangeByte
    _ReadFromMem->_FLASH_Read
    _ReadBootloaderFlags->_FLASH_Read

Critical Paths under _main in BANK0

    _main->_WriteBootloaderFlags

Critical Paths under _main in BANK1

    None.

Critical Paths under _main in BANK2

    None.

Critical Paths under _main in BANK3

    None.

Critical Paths under _main in BANK4

    None.

Critical Paths under _main in BANK5

    None.

Critical Paths under _main in BANK6

    None.

Critical Paths under _main in BANK7

    None.

Critical Paths under _main in BANK8

    None.

Critical Paths under _main in BANK9

    None.

Critical Paths under _main in BANK10

    None.

Critical Paths under _main in BANK11

    None.

Critical Paths under _main in BANK12

    None.

Critical Paths under _main in BANK13

    None.

Critical Paths under _main in BANK14

    None.

Critical Paths under _main in BANK15

    None.

Critical Paths under _main in BANK16

    None.

Critical Paths under _main in BANK17

    None.

Critical Paths under _main in BANK18

    None.

Critical Paths under _main in BANK19

    None.

Critical Paths under _main in BANK20

    None.

Critical Paths under _main in BANK21

    None.

Critical Paths under _main in BANK22

    None.

Critical Paths under _main in BANK23

    None.

Critical Paths under _main in BANK24

    None.

Critical Paths under _main in BANK25

    None.

Call Graph Tables:

 ---------------------------------------------------------------------------------
 (Depth) Function   	        Calls       Base Space   Used Autos Params    Refs
 ---------------------------------------------------------------------------------
 (0) _main                                               139   139      0    7750
                                             73 BANK0      5     5      0
                                              0 BANK1     66    66      0
                                              0 BANK2     68    68      0
                         _ClearArray
                        _DefineError
                      _KeyBLRequired
                _ReadBootloaderFlags
                        _ReadFromMem
               _ReadFromSerialEEPROM
                  _SYSTEM_Initialize
                           _StartApp
                      _UART_byteRead
                     _UART_dataWrite
                    _UART_preamFound
               _WriteBootloaderFlags
                         _WriteToMem
                _WriteToSerialEEPROM
 ---------------------------------------------------------------------------------
 (1) _WriteToSerialEEPROM                                 73    72      1    1312
                                              6 COMMON     3     2      1
                                              0 BANK0     70    70      0
                          _SPI_Close
                           _SPI_Open
                     _SPI_WriteBlock
 ---------------------------------------------------------------------------------
 (1) _WriteToMem                                           4     3      1     651
                                             13 COMMON     1     0      1
                                              0 BANK0      3     3      0
                        _FLASH_Write
 ---------------------------------------------------------------------------------
 (1) _WriteBootloaderFlags                                74    74      0    1230
                                             13 COMMON     1     1      0
                                              0 BANK0     73    73      0
                         _FLASH_Read
                        _FLASH_Write
 ---------------------------------------------------------------------------------
 (2) _FLASH_Write                                         13    11      2     431
                                              0 COMMON    13    11      2
                   _UnlockFlashWrite
 ---------------------------------------------------------------------------------
 (3) _UnlockFlashWrite                                     0     0      0       0
 ---------------------------------------------------------------------------------
 (1) _UART_preamFound                                      2     2      0      24
                                              0 COMMON     2     2      0
                        _EUSART_Read
                 _EUSART_is_rx_ready
 ---------------------------------------------------------------------------------
 (2) _EUSART_is_rx_ready                                   0     0      0       0
 ---------------------------------------------------------------------------------
 (1) _UART_dataWrite                                       4     3      1     252
                                              1 COMMON     4     3      1
                       _EUSART_Write
                  _EUSART_is_tx_done
                 _EUSART_is_tx_ready
 ---------------------------------------------------------------------------------
 (2) _EUSART_is_tx_ready                                   1     1      0      24
                                              0 COMMON     1     1      0
 ---------------------------------------------------------------------------------
 (2) _EUSART_is_tx_done                                    0     0      0       0
 ---------------------------------------------------------------------------------
 (2) _EUSART_Write                                         1     1      0      22
                                              0 COMMON     1     1      0
 ---------------------------------------------------------------------------------
 (1) _UART_byteRead                                        0     0      0       0
                        _EUSART_Read
 ---------------------------------------------------------------------------------
 (2) _EUSART_Read                                          0     0      0       0
 ---------------------------------------------------------------------------------
 (1) _StartApp                                             0     0      0       0
 ---------------------------------------------------------------------------------
 (1) _SYSTEM_Initialize                                    0     0      0     294
                  _EUSART_Initialize
              _OSCILLATOR_Initialize
             _PIN_MANAGER_Initialize
                     _SPI_Initialize
                     _WDT_Initialize
 ---------------------------------------------------------------------------------
 (2) _WDT_Initialize                                       0     0      0       0
 ---------------------------------------------------------------------------------
 (2) _SPI_Initialize                                       0     0      0       0
 ---------------------------------------------------------------------------------
 (2) _PIN_MANAGER_Initialize                               0     0      0       0
 ---------------------------------------------------------------------------------
 (2) _OSCILLATOR_Initialize                                0     0      0       0
 ---------------------------------------------------------------------------------
 (2) _EUSART_Initialize                                    0     0      0     294
             _EUSART_SetErrorHandler
      _EUSART_SetFramingErrorHandler
      _EUSART_SetOverrunErrorHandler
 ---------------------------------------------------------------------------------
 (3) _EUSART_SetOverrunErrorHandler                        2     0      2      98
                                              0 COMMON     2     0      2
 ---------------------------------------------------------------------------------
 (3) _EUSART_SetFramingErrorHandler                        2     0      2      98
                                              0 COMMON     2     0      2
 ---------------------------------------------------------------------------------
 (3) _EUSART_SetErrorHandler                               2     0      2      98
                                              0 COMMON     2     0      2
 ---------------------------------------------------------------------------------
 (1) _ReadFromSerialEEPROM                                70    69      1    1373
                                              6 COMMON     3     2      1
                                              0 BANK0     67    67      0
                          _SPI_Close
                           _SPI_Open
                      _SPI_ReadBlock
                     _SPI_WriteBlock
 ---------------------------------------------------------------------------------
 (2) _SPI_WriteBlock                                       5     3      2     635
                                              1 COMMON     5     3      2
                   _SPI_ExchangeByte
 ---------------------------------------------------------------------------------
 (2) _SPI_ReadBlock                                        5     3      2     199
                                              1 COMMON     5     3      2
                   _SPI_ExchangeByte
 ---------------------------------------------------------------------------------
 (3) _SPI_ExchangeByte                                     1     1      0      22
                                              0 COMMON     1     1      0
 ---------------------------------------------------------------------------------
 (2) _SPI_Open                                             4     4      0      88
                                              0 COMMON     4     4      0
 ---------------------------------------------------------------------------------
 (2) _SPI_Close                                            0     0      0       0
 ---------------------------------------------------------------------------------
 (1) _ReadFromMem                                         14    13      1     953
                                              5 COMMON     8     7      1
                                              0 BANK0      6     6      0
                         _FLASH_Read
 ---------------------------------------------------------------------------------
 (1) _ReadBootloaderFlags                                 75    75      0     671
                                              5 COMMON     6     6      0
                                              0 BANK0     69    69      0
                         _FLASH_Read
 ---------------------------------------------------------------------------------
 (2) _FLASH_Read                                           5     3      2     393
                                              0 COMMON     5     3      2
 ---------------------------------------------------------------------------------
 (1) _KeyBLRequired                                        0     0      0       0
 ---------------------------------------------------------------------------------
 (1) _DefineError                                          2     2      0     110
                                              0 COMMON     2     2      0
 ---------------------------------------------------------------------------------
 (1) _ClearArray                                           5     3      2     239
                                              0 COMMON     5     3      2
 ---------------------------------------------------------------------------------
 Estimated maximum stack depth 3
 ---------------------------------------------------------------------------------

 Call Graph Graphs:

 _main (ROOT)
   _ClearArray
   _DefineError
   _KeyBLRequired
   _ReadBootloaderFlags
     _FLASH_Read
   _ReadFromMem
     _FLASH_Read
   _ReadFromSerialEEPROM
     _SPI_Close
     _SPI_Open
     _SPI_ReadBlock
       _SPI_ExchangeByte
     _SPI_WriteBlock
       _SPI_ExchangeByte
   _SYSTEM_Initialize
     _EUSART_Initialize
       _EUSART_SetErrorHandler
       _EUSART_SetFramingErrorHandler
       _EUSART_SetOverrunErrorHandler
     _OSCILLATOR_Initialize
     _PIN_MANAGER_Initialize
     _SPI_Initialize
     _WDT_Initialize
   _StartApp
   _UART_byteRead
     _EUSART_Read
   _UART_dataWrite
     _EUSART_Write
     _EUSART_is_tx_done
     _EUSART_is_tx_ready
   _UART_preamFound
     _EUSART_Read
     _EUSART_is_rx_ready
   _WriteBootloaderFlags
     _FLASH_Read
     _FLASH_Write
       _UnlockFlashWrite
   _WriteToMem
     _FLASH_Write
       _UnlockFlashWrite
   _WriteToSerialEEPROM
     _SPI_Close
     _SPI_Open
     _SPI_WriteBlock
       _SPI_ExchangeByte

 Address spaces:
Name               Size   Autos  Total    Cost      Usage
BIGRAM             7F0      0       0       0        0.0%
EEDATA             100      0       0       0        0.0%
NULL                 0      0       0       0        0.0%
CODE                 0      0       0       0        0.0%
BITCOMMON            E      0       0       1        0.0%
BITSFR0              0      0       0       1        0.0%
SFR0                 0      0       0       1        0.0%
COMMON               E      E       E       2      100.0%
BITSFR1              0      0       0       2        0.0%
SFR1                 0      0       0       2        0.0%
BITSFR2              0      0       0       3        0.0%
SFR2                 0      0       0       3        0.0%
STACK                0      0       0       3        0.0%
BITBANK0            50      0       0       4        0.0%
BITSFR3              0      0       0       4        0.0%
SFR3                 0      0       0       4        0.0%
BANK0               50     4E      4F       5       98.8%
BITSFR4              0      0       0       5        0.0%
SFR4                 0      0       0       5        0.0%
BITBANK1            50      0       0       6        0.0%
BITSFR5              0      0       0       6        0.0%
SFR5                 0      0       0       6        0.0%
BANK1               50     42      48       7       90.0%
BITSFR6              0      0       0       7        0.0%
SFR6                 0      0       0       7        0.0%
BITBANK2            50      0       0       8        0.0%
BITSFR7              0      0       0       8        0.0%
SFR7                 0      0       0       8        0.0%
BANK2               50     44      4B       9       93.8%
BITSFR8              0      0       0       9        0.0%
SFR8                 0      0       0       9        0.0%
BITBANK3            50      0       0      10        0.0%
BITSFR9              0      0       0      10        0.0%
SFR9                 0      0       0      10        0.0%
BANK3               50      0       0      11        0.0%
BITSFR10             0      0       0      11        0.0%
SFR10                0      0       0      11        0.0%
BITBANK4            50      0       0      12        0.0%
BITSFR11             0      0       0      12        0.0%
SFR11                0      0       0      12        0.0%
BANK4               50      0       0      13        0.0%
BITSFR12             0      0       0      13        0.0%
SFR12                0      0       0      13        0.0%
BITSFR13             0      0       0      14        0.0%
SFR13                0      0       0      14        0.0%
ABS                  0      0      F0      14        0.0%
BITBANK5            50      0       0      15        0.0%
BITSFR14             0      0       0      15        0.0%
SFR14                0      0       0      15        0.0%
BANK5               50      0       0      16        0.0%
BITSFR15             0      0       0      16        0.0%
SFR15                0      0       0      16        0.0%
BITBANK6            50      0       0      17        0.0%
BITSFR16             0      0       0      17        0.0%
SFR16                0      0       0      17        0.0%
BANK6               50      0       0      18        0.0%
BITSFR17             0      0       0      18        0.0%
SFR17                0      0       0      18        0.0%
BITBANK7            50      0       0      19        0.0%
BITSFR18             0      0       0      19        0.0%
SFR18                0      0       0      19        0.0%
BANK7               50      0       0      20        0.0%
BITSFR19             0      0       0      20        0.0%
SFR19                0      0       0      20        0.0%
BITBANK8            50      0       0      21        0.0%
BITSFR20             0      0       0      21        0.0%
SFR20                0      0       0      21        0.0%
BANK8               50      0       0      22        0.0%
BITSFR21             0      0       0      22        0.0%
SFR21                0      0       0      22        0.0%
BITBANK9            50      0       0      23        0.0%
BITSFR22             0      0       0      23        0.0%
SFR22                0      0       0      23        0.0%
BANK9               50      0       0      24        0.0%
BITSFR23             0      0       0      24        0.0%
SFR23                0      0       0      24        0.0%
BITBANK10           50      0       0      25        0.0%
BITSFR24             0      0       0      25        0.0%
SFR24                0      0       0      25        0.0%
BANK10              50      0       0      26        0.0%
BITSFR25             0      0       0      26        0.0%
SFR25                0      0       0      26        0.0%
BITBANK11           50      0       0      27        0.0%
BITSFR26             0      0       0      27        0.0%
SFR26                0      0       0      27        0.0%
BITSFR27             0      0       0      28        0.0%
SFR27                0      0       0      28        0.0%
DATA                 0      0      F0      28        0.0%
BANK11              50      0       0      29        0.0%
BITSFR28             0      0       0      29        0.0%
SFR28                0      0       0      29        0.0%
BITBANK12           50      0       0      30        0.0%
BITSFR29             0      0       0      30        0.0%
SFR29                0      0       0      30        0.0%
BANK12              50      0       0      31        0.0%
BITSFR30             0      0       0      31        0.0%
SFR30                0      0       0      31        0.0%
BITBANK13           50      0       0      32        0.0%
BITSFR31             0      0       0      32        0.0%
SFR31                0      0       0      32        0.0%
BANK13              50      0       0      33        0.0%
BITBANK14           50      0       0      34        0.0%
BANK14              50      0       0      35        0.0%
BITBANK15           50      0       0      36        0.0%
BANK15              50      0       0      37        0.0%
BITBANK16           50      0       0      38        0.0%
BANK16              50      0       0      39        0.0%
BITBANK17           50      0       0      40        0.0%
BANK17              50      0       0      41        0.0%
BITBANK18           50      0       0      42        0.0%
BANK18              50      0       0      43        0.0%
BITBANK19           50      0       0      44        0.0%
BANK19              50      0       0      45        0.0%
BITBANK20           50      0       0      46        0.0%
BANK20              50      0       0      47        0.0%
BITBANK21           50      0       0      48        0.0%
BANK21              50      0       0      49        0.0%
BITBANK22           50      0       0      50        0.0%
BANK22              50      0       0      51        0.0%
BITBANK23           50      0       0      52        0.0%
BANK23              50      0       0      53        0.0%
BITBANK24           50      0       0      54        0.0%
BANK24              50      0       0      55        0.0%
BITBANK25           20      0       0      56        0.0%
BANK25              20      0       0      57        0.0%


Microchip Technology PIC Macro Assembler V2.20 build 20200408173844 
Symbol Table                                                                                   Tue Sep 15 23:33:53 2020

                       SPI_ReadBlock@blockSize 0071                                 _SPI_Initialize 01D6  
                                           l21 01E1                                             l31 01E6  
                                           l25 03C4                                             l33 01EB  
                                           l34 01EE                                             l28 018A  
                                           l55 029B                                             l49 027A  
                          ReadFromMem@def_addr 0020                                            l104 02E0  
                                          l112 019F                                            l121 01EF  
                                          l131 01D5                                            l115 019A  
                                          l125 01FD                                            l109 020C  
                                          l143 01AB                                            l311 072A  
                                          l128 01CD                                            l401 0339  
                                          l313 0733                                            l146 01B1  
                                          l330 07D4                                            l314 0735  
                                          l315 074B                                            l172 021C  
                                          l404 0196                                            l149 01A5  
                                          l351 01C2                                            l175 01B9  
                                          l360 022D                                            l432 01CB  
                                          l440 05CF                                            l520 06C0  
                                          l257 0375                                            l409 025C  
                                          l178 018E                                            l442 05E2  
                                          l435 02FA                                            l443 0633  
                                          l371 02BD                                            l436 02FB  
                                          l357 0244                                            l437 0309  
                                          l445 061A                                            l454 04F1  
                                          l374 018F                                            l462 0478  
                                          l367 0587                                            l463 0485  
                                          l527 06E5                                            l376 0191  
                                          l490 041F                                            u500 01F4  
                                          u501 01F3                                            u510 01FA  
                                          u511 01F9                                            u600 04B1  
                                          u440 01EB                                            u520 01D2  
                                          u601 04B0                                            u441 01EA  
                                          u521 01D1                                            u530 02F8  
                                          u610 04BA                                            u450 037C  
                                          u531 02F7                                            u611 04B9  
                                          u451 037B                                            u460 027A  
                                          u540 05BF                                            u620 0454  
                                          u700 02AE                                            u461 0279  
                                          u541 05BE                                            u621 0453  
                                          u701 02AD                                            u470 029B  
                                          u710 041E                                            u550 05E0  
                                          u630 0462                                            u471 029A  
                                          u711 041D                                            u551 05DF  
                                          u631 0461                                            u480 0204  
                                          u560 061A                                            u640 0470  
                                          u720 06C0                                            u800 0744  
                                          u481 0203                                            u561 0619  
                                          u641 046F                                            u721 06BF  
                                          u801 0743                                            u650 01BF  
                                          u490 0209                                            u730 0313  
                                          u570 0631                                            u810 0749  
                                          u651 01BE                                            u491 0208  
                                          u731 0312                                            u571 0630  
                                          u811 0748                                            u580 0244  
                                          u740 031F                                            u660 024D  
                                          u820 0767                                            u581 0243  
                                          u741 031E                                            u661 024C  
                                          u821 0766                                            u590 04AC  
                                          u750 0339                                            u670 0259  
                                          u830 07CA                                            u591 04AB  
                                          u751 0338                                            u671 0258  
                                          u831 07C9                                            u680 0521  
                                          u840 07D0                                            u760 070B  
                                          u681 0520                                            u841 07CF  
                                          u761 070A                                            u690 0577  
                                          u770 071A                                            u691 0576  
                                          u907 0622                                            u771 0719  
                                          u780 0720                                            u917 0314  
                                          u781 071F                                            u790 0733  
                                          u791 0732                                            u857 064E  
                                          u867 0674                                            u877 068C  
                                          u887 06CF                                            u897 05D7  
                      WriteBootloaderFlags@buf 0020                 ?_EUSART_SetFramingErrorHandler 0070  
               ReadFromSerialEEPROM@recv_frame 0061                                            wreg 0009  
                     ReadBootloaderFlags@dbyte 0060                                   ?_EUSART_Read 0070  
               ReadFromSerialEEPROM@send_frame 0076                                           l2001 036B  
                                         l2011 01B6                                           l2003 0372  
                                         l2021 02E9                                           l2013 01B7  
                                         l2005 0374                                           l2023 02EB  
                                         l2007 01B2                                           l2015 018B  
                                         l2103 0632                                           l2025 02F8  
                                         l2017 02E1                                           l2121 0486  
                                         l2009 01B5                                           l2201 0245  
                                         l2041 05AF                                           l2033 0588  
                                         l2115 0230                                           l2027 02FF  
                                         l2019 02E5                                           l2131 048E  
                                         l2123 0489                                           l2107 020D  
                                         l2203 024D                                           l2211 025B  
                                         l2051 05BF                                           l2043 05B1  
                                         l2035 058C                                           l2117 023A  
                                         l2109 022E                                           l2029 0304  
                                         l2141 04B1                                           l2133 049E  
                                         l2125 048D                                           l2221 04F7  
                                         l2301 0405                                           l2205 0253  
                                         l2061 05E0                                           l2053 05C0  
                                         l2045 05B2                                           l2037 058D  
                                         l2119 023E                                           l2143 04B4  
                                         l2135 04A2                                           l2231 053D  
                                         l2223 0516                                           l2303 0414  
                                         l2215 0193                                           l2207 0259  
                                         l2071 05E4                                           l2055 05D1  
                                         l2047 05B3                                           l2039 05AC  
                                         l2151 0423                                           l2311 0636  
                                         l2145 04BA                                           l2137 04A6  
                                         l2241 0547                                           l2233 0541  
                                         l2225 0521                                           l2305 0418  
                                         l2401 0325                                           l2081 060C  
                                         l2073 05E7                                           l2065 05E3  
                                         l2057 05D4                                           l2049 05B4  
                                         l2161 0434                                           l2153 0427  
                                         l2321 0649                                           l2313 0636  
                                         l2147 04BD                                           l2139 04AC  
                                         l2251 0571                                           l2243 0553  
                                         l2227 052D                                           l2235 0546  
                                         l2219 04F4                                           l2307 041E  
                                         l2403 032F                                           l2091 0626  
                                         l2083 0610                                           l2075 05E9  
                                         l2059 05DB                                           l2171 0454  
                                         l2163 043D                                           l2331 0665  
                                         l2323 064B                                           l2315 063A  
                                         l2411 06E9                                           l2245 055E  
                                         l2253 0577                                           l2229 0535  
                                         l2405 0333                                           l2093 0628  
                                         l2085 0614                                           l2077 05F9  
                                         l2181 0470                                           l2173 045C  
                                         l2165 0446                                           l2149 0420  
                                         l2261 029E                                           l2341 067D  
                                         l2333 0667                                           l2325 0652  
                                         l2317 063F                                           l2421 06FB  
                                         l2413 06E9                                           l2255 057F  
                                         l2247 0569                                           l2271 03C7  
                                         l2095 062D                                           l2079 0609  
                                         l2087 061C                                           l2183 0473  
                                         l2175 0462                                           l2167 044A  
                                         l2159 0428                                           l2263 02A9  
                                         l2351 0695                                           l2343 067F  
                                         l2335 066F                                           l2327 0657  
                                         l2319 0641                                           l2431 0705  
                                         l2423 06FD                                           l2415 06EB  
                                         l2407 06E6                                           l2257 0586  
                                         l2249 056D                                           l2281 03DE  
                                         l2273 03C7                                           l2089 061F  
                                         l2185 047E                                           l2177 0465  
                                         l2169 044E                                           l2265 02AE  
                                         l2361 06A7                                           l2353 069C  
                                         l2345 0687                                           l2337 0671  
                                         l2329 065E                                           l2441 071A  
                                         l2433 070B                                           l2425 06FE  
                                         l2417 06F2                                           l2409 06E9  
                                         l2195 01C1                                           l2187 01BA  
                                         l2291 03F5                                           l2283 03E0  
                                         l2275 03CB                                           l2179 046A  
                                         l2267 02BC                                           l2371 06CC  
                                         l2363 06B6                                           l2355 06A3  
                                         l2347 0689                                           l2339 0678  
                                         l2451 072B                                           l2443 0720  
                                         l2435 070C                                           l2427 0701  
                                         l2419 06F9                                           l2189 01BF  
                                         l2293 03FC                                           l2285 03E8  
                                         l2277 03D0                                           l1901 02BE  
                                         l2373 06D3                                           l2365 06BA  
                                         l2349 0690                                           l2461 074F  
                                         l2453 0736                                           l2445 0723  
                                         l2437 070F                                           l2429 0702  
                                         l2383 021E                                           l2295 0403  
                                         l2287 03F0                                           l2279 03D7  
                                         l1903 02C9                                           l1911 01FE  
                                         l2391 030B                                           l2199 0245  
                                         l2375 06D6                                           l2367 06C2  
                                         l2519 07B3                                           l2471 0782  
                                         l2463 075B                                           l2455 073E  
                                         l2447 0725                                           l2439 0712  
                                         l2385 022C                                           l2289 03F2  
                                         l1905 02D0                                           l1913 01FF  
                                         l2393 0313                                           l2377 06DD  
                                         l2369 06CA                                           l2473 078F  
                                         l2481 07C4                                           l2465 075F  
                                         l2457 0744                                           l2449 0728  
                                         l1843 01E3                                           l1851 01AC  
                                         l1907 02D7                                           l1931 01EF  
                                         l1915 0204                                           l2395 0317  
                                         l1923 019B                                           l2379 06E4  
                                         l2491 07E7                                           l2483 07CA  
                                         l2475 079C                                           l2467 0768  
                                         l2459 0749                                           l1845 01EC  
                                         l1853 01A0                                           l1909 02DE  
                                         l1933 01F4                                           l1917 0209  
                                         l2397 031F                                           l2389 030B  
                                         l1861 01CA                                           l2493 07EE  
                                         l2485 07D0                                           l2477 07A0  
                                         l2469 0775                                           l1871 037C  
                                         l1951 0343                                           l1863 01D6  
                                         l1935 01F5                                           l1943 01CD  
                                         l1927 0197                                           l1919 020B  
                                         l2399 0323                                           l1855 01C3  
                                         l2487 07DE                                           l2479 07A9  
                                         l1873 039A                                           l1849 01A6  
                                         l1961 034E                                           l1953 0345  
                                         l1865 01DD                                           l1937 01FA  
                                         l1945 01D2                                           l1857 01C8  
                                         l2489 07E0                                           l1883 0188  
                                         l1875 039B                                           l1891 026E  
                                         l1971 0358                                           l1963 0350  
                                         l1955 0347                                           l1947 033A  
                                         l1867 01DF                                           l1939 01FC  
                                         l1859 01C9                                           l1877 03AA  
                                         l1869 0377                                           l1893 027C  
                                         l1885 025E                                           l1981 035F  
                                         l1973 0359                                           l1965 0353  
                                         l1957 0349                                           l1949 0340  
                                         l1879 03C2                                           l1895 0281  
                                         l1887 0263                                           l1991 0365  
                                         l1983 0360                                           l1975 035A  
                                         l1967 0355                                           l1959 034B  
                                         l1897 028B                                           l1889 026A  
                                         l1993 0366                                           l1985 0361  
                                         l1977 035B                                           l1969 0357  
                                         l1899 028F                                           l1995 0367  
                                         l1987 0362                                           l1979 035D  
                                         l1997 0368                                           l1989 0363  
                                         l1999 0369                                           _LATA 010C  
                                         _LATB 010D                                           _LATC 010E  
                                         _LATD 010F                                           _LATE 0110  
                            ?_UnlockFlashWrite 0070                                           _WPUA 020C  
                                         _WPUB 020D                                           _WPUC 020E  
                                         _WPUD 020F                                           _WPUE 0210  
                                         _main 06E6                                           fsr0h 0005  
                                         fsr1h 0007                                           indf0 0000  
                                         fsr0l 0004                                           indf1 0001  
                                         fsr1l 0006                             ??_UnlockFlashWrite 0070  
                                         btemp 007E                                     _ClearArray 022E  
                               ?_SPI_ReadBlock 0071                                           start 0002  
                       __end_of_SPI_Initialize 01E2                                  ??_ReadFromMem 0076  
                          __size_of_FLASH_Read 0029                                UART_dataWrite@i 0074  
                                ?_EUSART_Write 0070                 __size_of_OSCILLATOR_Initialize 0008  
                __end_of_OSCILLATOR_Initialize 01BA                                          ?_main 0070  
                                        _TRISA 008C                                          _TRISB 008D  
                                        _TRISC 008E                                          _TRISD 008F  
                                        _TRISE 0090                                    _DefineError 021D  
                               _WDT_Initialize 018B                                          main@i 006C  
                             __end_of_SPI_Open 03C5                             __size_of_SPI_Close 0003  
                                        status 0003                                          wtemp0 007E  
                         _ReadFromSerialEEPROM 03C5                  __size_of_WriteBootloaderFlags 0066  
                               _SPI_WriteBlock 025D                                ?_SPI_Initialize 0070  
                              __initialization 07F3                                   __end_of_main 07F3  
                              _UART_preamFound 0245                                 ??_EUSART_Write 0070  
                         __size_of_FLASH_Write 00AC                                         ??_main 0069  
                          __end_of_ReadFromMem 0588                              SPI_ReadBlock@data 0075  
                  __end_of_ReadBootloaderFlags 04F2                         __end_of_WDT_Initialize 018F  
                             __end_of_StartApp 0193                       __end_of_SPI_ExchangeByte 01EF  
            _EUSART_DefaultFramingErrorHandler 0000                     _EUSART_OverrunErrorHandler 00E4  
                                       _EEADRH 0192                                         _EEADRL 0191  
                                       _EEDATH 0194                                         _EEDATL 0193  
                                       _EECON2 0196                                         _ANSELA 018C  
                                       _ANSELB 018D                                         _ANSELC 018E  
                                       _ANSELD 018F                                         _ANSELE 0190  
                   __end_of_EUSART_is_rx_ready 01A0                                         _BORCON 0116  
                                       _RC1REG 0199                                         _RC1STA 019D  
                                       _ODCONA 028C                                         _ODCONB 028D  
                                       _ODCONC 028E                                         _ODCOND 028F  
                                       _ODCONE 0290                                         _INLVLA 038C  
                                       _INLVLB 038D                                         _INLVLC 038E  
                                       _INLVLD 038F                                         _INLVLE 0390  
                   __end_of_EUSART_is_tx_ready 020D                                         _OSCCON 0099  
                              ??_SPI_ReadBlock 0073                                         _TX1REG 019A  
                        ?_ReadFromSerialEEPROM 0076                                         _WDTCON 0097  
                                       _TX1STA 019E                         __end_of_SPI_WriteBlock 027B  
                                  ?_ClearArray 0070                          ReadFromMem@recv_frame 0022  
                   ReadFromSerialEEPROM@buffer 0020                               WriteToMem@result 0022  
                        ReadFromMem@send_frame 0075                                   ReadFromMem@i 0025  
                            __end_of_SPI_Close 018B                          __end_of_KeyBLRequired 01C3  
                  ReadBootloaderFlags@def_addr 0062                                ?_WDT_Initialize 0070  
                                 ??_FLASH_Read 0072                                 FLASH_Read@addr 0070  
                         __size_of_EUSART_Read 000F                              _SYSTEM_Initialize 020D  
                      __end_of__initialization 07FD                                ?_SPI_WriteBlock 0071  
                           ?_SYSTEM_Initialize 0070                        __end_of_UART_preamFound 025D  
                       ReadBootloaderFlags@buf 0020                                 __pcstackCOMMON 0070  
                                  _ReadFromMem 04F2                            ??_SYSTEM_Initialize 0072  
                                   _WriteToMem 029C                             __end_of_FLASH_Read 030A  
                         WriteToMem@recv_frame 0021                                      ?_SPI_Open 0070  
                         FLASH_Write@writeAddr 007A                      WriteToSerialEEPROM@buffer 0020  
                          __size_of_ClearArray 0017                                 _OPTION_REGbits 0095  
                         WriteToMem@send_frame 007D                          __end_of_UART_byteRead 0197  
                      __size_of_UART_dataWrite 0030                   __size_of_WriteToSerialEEPROM 00B2  
              ??_EUSART_SetOverrunErrorHandler 0072                      __end_of_SYSTEM_Initialize 021D  
                                   __pbssBANK0 006E                                     __pbssBANK2 0164  
                           SPI_ReadBlock@block 0074                         ??_ReadFromSerialEEPROM 0077  
                         __end_of_EUSART_Write 01D6                                     __pmaintext 06E6  
                                    ?_StartApp 0070                      __size_of_UnlockFlashWrite 0009  
                                      _APFCON1 011D                                        _APFCON2 011C  
                                   ??_SPI_Open 0070                                        _BLFlags 0164  
                                 ?_DefineError 0070                                        _SP1BRGH 019C  
                                      _SP1BRGL 019B                  WriteToSerialEEPROM@recv_frame 0065  
                                      _OSCSTAT 009A                                        _OSCTUNE 0098  
                                      _SSP1ADD 0212                                        _SLRCONA 030C  
                                      _SLRCONB 030D                                        _SLRCONC 030E  
                                      _SLRCOND 030F                                        _SLRCONE 0310  
                                      _SSP1BUF 0211                       ??_EUSART_SetErrorHandler 0072  
                WriteToSerialEEPROM@send_frame 0076                               ??_SPI_Initialize 0070  
                             ?_UART_preamFound 0070                                 main@recv_frame 0120  
                                  ?_WriteToMem 007D                                     ??_StartApp 0070  
                                      __ptext1 0634                                        __ptext2 029C  
                                      __ptext3 0420                                        __ptext4 0588  
                                      __ptext5 01C3                                        __ptext6 0245  
                                      __ptext7 019B                                        __ptext8 030A  
                                      __ptext9 01FE                         UART_dataWrite@data_ptr 0073  
                               main@send_frame 00A0                   __end_of_WriteBootloaderFlags 0486  
                        _OSCILLATOR_Initialize 01B2                       ??_PIN_MANAGER_Initialize 0070  
                   __size_of_SYSTEM_Initialize 0010                              ?_SPI_ExchangeByte 0070  
                         end_of_initialization 07FD                             ??_SPI_ExchangeByte 0070  
        __end_of_EUSART_SetOverrunErrorHandler 01B2         __size_of_EUSART_SetOverrunErrorHandler 0006  
                _EUSART_SetOverrunErrorHandler 01AC                                   ??_ClearArray 0072  
                            _EUSART_Initialize 02BE                        SPI_WriteBlock@blockSize 0071  
                           ?_EUSART_Initialize 0070                             _EUSART_is_rx_ready 019B  
                                ??_FLASH_Write 0072                             _EUSART_is_tx_ready 01FE  
                          ??_EUSART_Initialize 0072                               ??_WDT_Initialize 0070  
                                    _PORTBbits 000D                            ?_EUSART_is_rx_ready 0070  
                            _spi_configuration 0800                            ?_EUSART_is_tx_ready 0070  
                           __end_of_ClearArray 0245                                      _SPI_Close 0188  
                               _UART_dataWrite 030A                                      _TRISCbits 008E  
                        __size_of_EUSART_Write 000A                               ReadFromMem@dbyte 0023  
                        WriteBootloaderFlags@i 0068                               ??_SPI_WriteBlock 0073  
              __size_of_EUSART_SetErrorHandler 0006                            __size_of_WriteToMem 0022  
                 __size_of_ReadBootloaderFlags 006C                      __end_of_EUSART_Initialize 02E1  
                         ??_EUSART_is_rx_ready 0070                           ??_EUSART_is_tx_ready 0070  
                        __end_of_SPI_ReadBlock 029C                              FLASH_Write@buffer 0070  
                          SPI_WriteBlock@block 0075                            _WriteToSerialEEPROM 0634  
                                 ?_ReadFromMem 0075                           SPI_ExchangeByte@data 0070  
                             _UnlockFlashWrite 01C3                      __end_of_spi_configuration 0804  
                   _EUSART_DefaultErrorHandler 0000                                   _EUSART_Write 01CC  
                       ?_OSCILLATOR_Initialize 0070                            __end_of_FLASH_Write 0634  
                       __end_of_UART_dataWrite 033A                              __size_of_SPI_Open 004F  
                          start_initialization 07F3                           ReadBootloaderFlags@i 0064  
                                   ?_SPI_Close 0070                           ?_WriteToSerialEEPROM 0076  
                        main@processing_status 006D                __size_of_PIN_MANAGER_Initialize 003C  
                         __size_of_DefineError 0011                                  ??_EUSART_Read 0070  
                       _EUSART_is_tx_ready$283 0070                             UART_dataWrite@size 0071  
                       __size_of_KeyBLRequired 0009                           _WriteBootloaderFlags 0420  
               ?_EUSART_SetOverrunErrorHandler 0070                 SPI_Open@spiUniqueConfiguration 0073  
                   _EUSART_FramingErrorHandler 00E6                         _EUSART_SetErrorHandler 01A0  
                            __size_of_StartApp 0004                                ClearArray@array 0070  
                              ?_UART_dataWrite 0071                          ReadFromSerialEEPROM@i 0062  
                                    ___latbits 0003                          ??_WriteToSerialEEPROM 0077  
                                __pcstackBANK0 0020                                  __pcstackBANK1 00A0  
                                __pcstackBANK2 0120                            FLASH_Read@INR_state 0074  
                   __size_of_EUSART_Initialize 0023                  __size_of_ReadFromSerialEEPROM 005B  
                          __end_of_EUSART_Read 01FE                          ?_WriteBootloaderFlags 0070  
                                    __pnvBANK1 00E2                         _PIN_MANAGER_Initialize 033A  
                      WriteToSerialEEPROM@SPI1 0063                         __size_of_UART_byteRead 0004  
                                 ??_WriteToMem 0020                                    _FLASH_Write 0588  
                    WriteBootloaderFlags@dbyte 0066                                       _BAUD1CON 019F  
                                _KeyBLRequired 01BA                                    ??_SPI_Close 0070  
                         WriteToSerialEEPROM@i 0064                             __end_of_WriteToMem 02BE  
                                     _LATAbits 010C         EUSART_SetErrorHandler@interruptHandler 0070  
                                     _LATEbits 0110                              _eusartRxLastError 006E  
                                     _PIR1bits 0011                ??_EUSART_SetFramingErrorHandler 0072  
                            _EUSART_is_tx_done 0197                      __size_of_SPI_ExchangeByte 000D  
                                     _SSP1CON1 0215                                       _SSP1CON2 0216  
            _EUSART_DefaultOverrunErrorHandler 0000                                       _SSP1STAT 0214  
                           ?_EUSART_is_tx_done 0070                       __size_of_UART_preamFound 0018  
                         __size_of_ReadFromMem 0096                            _ReadBootloaderFlags 0486  
                                     _SPI_Open 0376                                 ?_KeyBLRequired 0070  
                          ??_EUSART_is_tx_done 0070                            UART_preamFound@byte 0071  
                           SPI_WriteBlock@data 0074                                  _UART_byteRead 0193  
                                  _EUSART_Read 01EF                       __end_of_UnlockFlashWrite 01CC  
                         ?_ReadBootloaderFlags 0070                         ??_WriteBootloaderFlags 007D  
                                  ClearArray@i 0074                                     _EECON1bits 0195  
                    __end_of_EUSART_is_tx_done 019B                        __size_of_SPI_Initialize 000C  
                                     _StartApp 018F                        ??_OSCILLATOR_Initialize 0070  
                          _EUSART_ErrorHandler 00E2                                   FLASH_Write@i 007C  
                               ?_UART_byteRead 0070                   WriteBootloaderFlags@def_addr 0064  
                                   _FLASH_Read 02E1                                       __ptext10 0197  
                                     __ptext11 01CC                                       __ptext20 02BE  
                                     __ptext12 0193                                       __ptext21 01AC  
                                     __ptext13 01EF                                       __ptext30 04F2  
                                     __ptext22 01A6                                       __ptext14 018F  
                                     __ptext31 0486                                       __ptext23 01A0  
                                     __ptext15 020D                                       __ptext32 02E1  
                                     __ptext24 03C5                                       __ptext16 018B  
                                     __ptext33 01BA                                       __ptext25 025D  
                                     __ptext17 01D6                                       __ptext34 021D  
                                     __ptext26 027B                                       __ptext18 033A  
                                     __ptext35 022E                                       __ptext27 01E2  
                                     __ptext19 01B2                                       __ptext28 0376  
                                     __ptext29 0188                                   _SSP1CON1bits 0215  
                        ??_ReadBootloaderFlags 0075                    __size_of_EUSART_is_rx_ready 0005  
                                __size_of_main 010D                    __size_of_EUSART_is_tx_ready 000F  
                      ?_EUSART_SetErrorHandler 0070                                     _RC1STAbits 019D  
EUSART_SetOverrunErrorHandler@interruptHandler 0070                               ??_UART_dataWrite 0072  
                              ??_KeyBLRequired 0070          __end_of_EUSART_SetFramingErrorHandler 01AC  
       __size_of_EUSART_SetFramingErrorHandler 0006                  _EUSART_SetFramingErrorHandler 01A6  
                                ??_DefineError 0070                                     _INTCONbits 000B  
                            ??_UART_preamFound 0070                         __size_of_SPI_ReadBlock 0021  
                      __size_of_WDT_Initialize 0004                          DefineError@send_frame 0071  
                      ?_PIN_MANAGER_Initialize 0070                 __end_of_EUSART_SetErrorHandler 01A6  
                   __size_of_EUSART_is_tx_done 0004                        __size_of_SPI_WriteBlock 001E  
                             _SPI_ExchangeByte 01E2                                   ?_FLASH_Write 0070  
EUSART_SetFramingErrorHandler@interruptHandler 0070                    __end_of_WriteToSerialEEPROM 06E6  
                 __end_of_ReadFromSerialEEPROM 0420                                  __pstringtext1 0800  
                              ??_UART_byteRead 0070                                    ?_FLASH_Read 0070  
                                   _TX1STAbits 019E                            __end_of_DefineError 022E  
                           EUSART_Write@txData 0070                 __end_of_PIN_MANAGER_Initialize 0376  
                         FLASH_Write@INR_state 0079                                  _SPI_ReadBlock 027B  
                     ReadFromSerialEEPROM@SPI1 0060  
