

Microchip MPLAB XC8 Assembler V2.20 build 20200408173844 
                                                                                               Sun Sep  6 16:29:10 2020

Microchip MPLAB XC8 C Compiler v2.20 (Free license) build 20200408173844 Og1 
     1                           	processor	16F1789
     2                           	pagewidth 120
     3                           	opt	flic
     4                           	psect	stringtext1,global,class=STRCODE,delta=2,noexec
     5                           	psect	nvBANK0,global,class=BANK0,space=1,delta=1,noexec
     6                           	psect	nvBANK1,global,class=BANK1,space=1,delta=1,noexec
     7                           	psect	cinit,global,class=CODE,merge=1,delta=2
     8                           	psect	bssBANK0,global,class=BANK0,space=1,delta=1,noexec
     9                           	psect	cstackBANK2,global,class=BANK2,space=1,delta=1,noexec
    10                           	psect	cstackBANK1,global,class=BANK1,space=1,delta=1,noexec
    11                           	psect	cstackCOMMON,global,class=COMMON,space=1,delta=1,noexec
    12                           	psect	cstackBANK0,global,class=BANK0,space=1,delta=1,noexec
    13                           	psect	maintext,global,class=CODE,merge=1,split=1,delta=2
    14                           	psect	text1,local,class=CODE,merge=1,delta=2
    15                           	psect	text2,local,class=CODE,merge=1,delta=2
    16                           	psect	text3,local,class=CODE,merge=1,delta=2
    17                           	psect	text4,local,class=CODE,merge=1,delta=2
    18                           	psect	text5,local,class=CODE,merge=1,delta=2
    19                           	psect	text6,local,class=CODE,merge=1,delta=2
    20                           	psect	text7,local,class=CODE,merge=1,delta=2
    21                           	psect	text8,local,class=CODE,merge=1,delta=2
    22                           	psect	text9,local,class=CODE,merge=1,delta=2
    23                           	psect	text10,local,class=CODE,merge=1,delta=2
    24                           	psect	text11,local,class=CODE,merge=1,delta=2
    25                           	psect	text12,local,class=CODE,merge=1,delta=2
    26                           	psect	text13,local,class=CODE,merge=1,delta=2
    27                           	psect	text14,local,class=CODE,merge=1,delta=2
    28                           	psect	text15,local,class=CODE,merge=1,delta=2
    29                           	psect	text16,local,class=CODE,merge=1,delta=2
    30                           	psect	text17,local,class=CODE,merge=1,delta=2
    31                           	psect	text18,local,class=CODE,merge=1,delta=2
    32                           	psect	text19,local,class=CODE,merge=1,delta=2
    33                           	psect	text20,local,class=CODE,merge=1,delta=2
    34                           	psect	text21,local,class=CODE,merge=1,delta=2
    35                           	psect	text22,local,class=CODE,merge=1,delta=2
    36                           	psect	text23,local,class=CODE,merge=1,delta=2
    37                           	psect	text24,local,class=CODE,merge=1,delta=2
    38                           	psect	text25,local,class=CODE,merge=1,delta=2
    39                           	psect	text26,local,class=CODE,merge=1,delta=2
    40                           	psect	text27,local,class=CODE,merge=1,delta=2
    41                           	psect	text28,local,class=CODE,merge=1,delta=2
    42                           	psect	text29,local,class=CODE,merge=1,delta=2
    43                           	psect	text30,local,class=CODE,merge=1,delta=2
    44                           	psect	text31,local,class=CODE,merge=1,delta=2
    45                           	psect	config,global,abs,ovrld,class=CONFIG,space=4,delta=2,noexec
    46                           	dabs	1,0x7E,2
    47  0000                     
    48                           ; Version 2.20
    49                           ; Generated 12/02/2020 GMT
    50                           ; 
    51                           ; Copyright © 2020, Microchip Technology Inc. and its subsidiaries ("Microchip")
    52                           ; All rights reserved.
    53                           ; 
    54                           ; This software is developed by Microchip Technology Inc. and its subsidiaries ("Microch
      +                          ip").
    55                           ; 
    56                           ; Redistribution and use in source and binary forms, with or without modification, are
    57                           ; permitted provided that the following conditions are met:
    58                           ; 
    59                           ;     1. Redistributions of source code must retain the above copyright notice, this lis
      +                          t of
    60                           ;        conditions and the following disclaimer.
    61                           ; 
    62                           ;     2. Redistributions in binary form must reproduce the above copyright notice, this 
      +                          list
    63                           ;        of conditions and the following disclaimer in the documentation and/or other
    64                           ;        materials provided with the distribution.
    65                           ; 
    66                           ;     3. Microchip's name may not be used to endorse or promote products derived from th
      +                          is
    67                           ;        software without specific prior written permission.
    68                           ; 
    69                           ; THIS SOFTWARE IS PROVIDED BY MICROCHIP "AS IS" AND ANY EXPRESS OR IMPLIED WARRANTIES,
    70                           ; INCLUDING, BUT NOT LIMITED TO, THE IMPLIED WARRANTIES OF MERCHANTABILITY AND FITNESS F
      +                          OR
    71                           ; PURPOSE ARE DISCLAIMED.  IN NO EVENT SHALL MICROCHIP BE LIABLE FOR ANY DIRECT, INDIREC
      +                          T,
    72                           ; INCIDENTAL, SPECIAL, EXEMPLARY, OR CONSEQUENTIAL DAMAGES (INCLUDING BUT NOT LIMITED TO
    73                           ; PROCUREMENT OF SUBSTITUTE GOODS OR SERVICES; LOSS OF USE, DATA OR PROFITS; OR BUSINESS
    74                           ; INTERRUPTION) HOWSOEVER CAUSED AND ON ANY THEORY OF LIABILITY, WHETHER IN CONTRACT, ST
      +                          RICT
    75                           ; LIABILITY, OR TORT (INCLUDING NEGLIGENCE OR OTHERWISE) ARISING IN ANY WAY OUT OF THE U
      +                          SE OF
    76                           ; THIS SOFTWARE, EVEN IF ADVISED OF THE POSSIBILITY OF SUCH DAMAGE.
    77                           ; 
    78                           ; 
    79                           ; Code-generator required, PIC16F1789 Definitions
    80                           ; 
    81                           ; SFR Addresses
    82  0000                     	;# 
    83  0001                     	;# 
    84  0002                     	;# 
    85  0003                     	;# 
    86  0004                     	;# 
    87  0005                     	;# 
    88  0006                     	;# 
    89  0007                     	;# 
    90  0008                     	;# 
    91  0009                     	;# 
    92  000A                     	;# 
    93  000B                     	;# 
    94  000C                     	;# 
    95  000D                     	;# 
    96  000E                     	;# 
    97  000F                     	;# 
    98  0010                     	;# 
    99  0011                     	;# 
   100  0012                     	;# 
   101  0013                     	;# 
   102  0014                     	;# 
   103  0015                     	;# 
   104  0016                     	;# 
   105  0016                     	;# 
   106  0017                     	;# 
   107  0018                     	;# 
   108  0019                     	;# 
   109  001A                     	;# 
   110  001B                     	;# 
   111  001C                     	;# 
   112  008C                     	;# 
   113  008D                     	;# 
   114  008E                     	;# 
   115  008F                     	;# 
   116  0090                     	;# 
   117  0091                     	;# 
   118  0092                     	;# 
   119  0093                     	;# 
   120  0094                     	;# 
   121  0095                     	;# 
   122  0096                     	;# 
   123  0097                     	;# 
   124  0098                     	;# 
   125  0099                     	;# 
   126  009A                     	;# 
   127  009B                     	;# 
   128  009B                     	;# 
   129  009C                     	;# 
   130  009D                     	;# 
   131  009E                     	;# 
   132  009F                     	;# 
   133  010C                     	;# 
   134  010D                     	;# 
   135  010E                     	;# 
   136  010F                     	;# 
   137  0110                     	;# 
   138  0111                     	;# 
   139  0112                     	;# 
   140  0113                     	;# 
   141  0114                     	;# 
   142  0115                     	;# 
   143  0116                     	;# 
   144  0117                     	;# 
   145  0118                     	;# 
   146  0119                     	;# 
   147  011A                     	;# 
   148  011B                     	;# 
   149  011C                     	;# 
   150  011D                     	;# 
   151  011D                     	;# 
   152  011D                     	;# 
   153  011E                     	;# 
   154  011F                     	;# 
   155  018C                     	;# 
   156  018D                     	;# 
   157  018E                     	;# 
   158  018F                     	;# 
   159  0190                     	;# 
   160  0191                     	;# 
   161  0191                     	;# 
   162  0192                     	;# 
   163  0193                     	;# 
   164  0193                     	;# 
   165  0193                     	;# 
   166  0194                     	;# 
   167  0195                     	;# 
   168  0196                     	;# 
   169  0197                     	;# 
   170  0199                     	;# 
   171  0199                     	;# 
   172  0199                     	;# 
   173  019A                     	;# 
   174  019A                     	;# 
   175  019A                     	;# 
   176  019B                     	;# 
   177  019B                     	;# 
   178  019B                     	;# 
   179  019B                     	;# 
   180  019B                     	;# 
   181  019C                     	;# 
   182  019C                     	;# 
   183  019C                     	;# 
   184  019D                     	;# 
   185  019D                     	;# 
   186  019D                     	;# 
   187  019E                     	;# 
   188  019E                     	;# 
   189  019E                     	;# 
   190  019F                     	;# 
   191  019F                     	;# 
   192  019F                     	;# 
   193  019F                     	;# 
   194  019F                     	;# 
   195  020C                     	;# 
   196  020D                     	;# 
   197  020E                     	;# 
   198  020F                     	;# 
   199  0210                     	;# 
   200  0211                     	;# 
   201  0211                     	;# 
   202  0212                     	;# 
   203  0212                     	;# 
   204  0213                     	;# 
   205  0213                     	;# 
   206  0214                     	;# 
   207  0214                     	;# 
   208  0215                     	;# 
   209  0215                     	;# 
   210  0215                     	;# 
   211  0215                     	;# 
   212  0216                     	;# 
   213  0216                     	;# 
   214  0217                     	;# 
   215  0217                     	;# 
   216  028C                     	;# 
   217  028D                     	;# 
   218  028E                     	;# 
   219  028F                     	;# 
   220  0290                     	;# 
   221  0291                     	;# 
   222  0291                     	;# 
   223  0292                     	;# 
   224  0293                     	;# 
   225  0298                     	;# 
   226  0298                     	;# 
   227  0299                     	;# 
   228  029A                     	;# 
   229  030C                     	;# 
   230  030D                     	;# 
   231  030E                     	;# 
   232  030F                     	;# 
   233  0310                     	;# 
   234  0311                     	;# 
   235  0311                     	;# 
   236  0312                     	;# 
   237  0313                     	;# 
   238  038C                     	;# 
   239  038D                     	;# 
   240  038E                     	;# 
   241  038F                     	;# 
   242  0390                     	;# 
   243  0391                     	;# 
   244  0392                     	;# 
   245  0393                     	;# 
   246  0394                     	;# 
   247  0395                     	;# 
   248  0396                     	;# 
   249  0397                     	;# 
   250  0398                     	;# 
   251  0399                     	;# 
   252  039D                     	;# 
   253  039E                     	;# 
   254  039F                     	;# 
   255  0511                     	;# 
   256  0513                     	;# 
   257  0515                     	;# 
   258  051A                     	;# 
   259  0591                     	;# 
   260  0592                     	;# 
   261  0592                     	;# 
   262  0593                     	;# 
   263  0594                     	;# 
   264  0594                     	;# 
   265  0595                     	;# 
   266  0596                     	;# 
   267  0596                     	;# 
   268  0E91                     	;# 
   269  0E92                     	;# 
   270  0E93                     	;# 
   271  0E94                     	;# 
   272  0E95                     	;# 
   273  0E96                     	;# 
   274  0E97                     	;# 
   275  0E98                     	;# 
   276  0E99                     	;# 
   277  0E9A                     	;# 
   278  0E9B                     	;# 
   279  0E9C                     	;# 
   280  0E9D                     	;# 
   281  0E9E                     	;# 
   282  0E9F                     	;# 
   283  0EA0                     	;# 
   284  0EA1                     	;# 
   285  0EA1                     	;# 
   286  0EA2                     	;# 
   287  0EA3                     	;# 
   288  0EA3                     	;# 
   289  0EA4                     	;# 
   290  0EA5                     	;# 
   291  0EA5                     	;# 
   292  0EA6                     	;# 
   293  0EA7                     	;# 
   294  0EA7                     	;# 
   295  0EA8                     	;# 
   296  0EA9                     	;# 
   297  0EAA                     	;# 
   298  0EAB                     	;# 
   299  0EAC                     	;# 
   300  0EAD                     	;# 
   301  0EAE                     	;# 
   302  0EAF                     	;# 
   303  0EB1                     	;# 
   304  0EB2                     	;# 
   305  0EB3                     	;# 
   306  0EB4                     	;# 
   307  0EB5                     	;# 
   308  0EB6                     	;# 
   309  0EB7                     	;# 
   310  0EB8                     	;# 
   311  0EB9                     	;# 
   312  0EBA                     	;# 
   313  0EBB                     	;# 
   314  0EBC                     	;# 
   315  0EBD                     	;# 
   316  0EBE                     	;# 
   317  0EBF                     	;# 
   318  0EC0                     	;# 
   319  0EC1                     	;# 
   320  0EC1                     	;# 
   321  0EC2                     	;# 
   322  0EC3                     	;# 
   323  0EC3                     	;# 
   324  0EC4                     	;# 
   325  0EC5                     	;# 
   326  0EC5                     	;# 
   327  0EC6                     	;# 
   328  0EC7                     	;# 
   329  0EC7                     	;# 
   330  0EC8                     	;# 
   331  0EC9                     	;# 
   332  0ECA                     	;# 
   333  0ECB                     	;# 
   334  0ECC                     	;# 
   335  0ECD                     	;# 
   336  0ECE                     	;# 
   337  0ECF                     	;# 
   338  0ED1                     	;# 
   339  0ED2                     	;# 
   340  0ED3                     	;# 
   341  0ED4                     	;# 
   342  0ED5                     	;# 
   343  0ED6                     	;# 
   344  0ED7                     	;# 
   345  0ED8                     	;# 
   346  0ED9                     	;# 
   347  0EDA                     	;# 
   348  0EDB                     	;# 
   349  0EDC                     	;# 
   350  0EDD                     	;# 
   351  0EDE                     	;# 
   352  0EDF                     	;# 
   353  0EE0                     	;# 
   354  0EE1                     	;# 
   355  0EE1                     	;# 
   356  0EE2                     	;# 
   357  0EE3                     	;# 
   358  0EE3                     	;# 
   359  0EE4                     	;# 
   360  0EE5                     	;# 
   361  0EE5                     	;# 
   362  0EE6                     	;# 
   363  0EE7                     	;# 
   364  0EE7                     	;# 
   365  0EE8                     	;# 
   366  0EE9                     	;# 
   367  0EEA                     	;# 
   368  0EEB                     	;# 
   369  0EEC                     	;# 
   370  0EED                     	;# 
   371  0EEE                     	;# 
   372  0EEF                     	;# 
   373  0F11                     	;# 
   374  0F12                     	;# 
   375  0F13                     	;# 
   376  0F14                     	;# 
   377  0F15                     	;# 
   378  0F16                     	;# 
   379  0F17                     	;# 
   380  0F18                     	;# 
   381  0F19                     	;# 
   382  0F1A                     	;# 
   383  0F1B                     	;# 
   384  0F1C                     	;# 
   385  0F1D                     	;# 
   386  0F1E                     	;# 
   387  0F1F                     	;# 
   388  0F20                     	;# 
   389  0F21                     	;# 
   390  0F21                     	;# 
   391  0F22                     	;# 
   392  0F23                     	;# 
   393  0F23                     	;# 
   394  0F24                     	;# 
   395  0F25                     	;# 
   396  0F25                     	;# 
   397  0F26                     	;# 
   398  0F27                     	;# 
   399  0F27                     	;# 
   400  0F28                     	;# 
   401  0F29                     	;# 
   402  0F2A                     	;# 
   403  0F2B                     	;# 
   404  0F2C                     	;# 
   405  0F2D                     	;# 
   406  0F2E                     	;# 
   407  0F2F                     	;# 
   408  0FE4                     	;# 
   409  0FE5                     	;# 
   410  0FE6                     	;# 
   411  0FE7                     	;# 
   412  0FE8                     	;# 
   413  0FE9                     	;# 
   414  0FEA                     	;# 
   415  0FEB                     	;# 
   416  0FED                     	;# 
   417  0FEE                     	;# 
   418  0FEF                     	;# 
   419  0000                     	;# 
   420  0001                     	;# 
   421  0002                     	;# 
   422  0003                     	;# 
   423  0004                     	;# 
   424  0005                     	;# 
   425  0006                     	;# 
   426  0007                     	;# 
   427  0008                     	;# 
   428  0009                     	;# 
   429  000A                     	;# 
   430  000B                     	;# 
   431  000C                     	;# 
   432  000D                     	;# 
   433  000E                     	;# 
   434  000F                     	;# 
   435  0010                     	;# 
   436  0011                     	;# 
   437  0012                     	;# 
   438  0013                     	;# 
   439  0014                     	;# 
   440  0015                     	;# 
   441  0016                     	;# 
   442  0016                     	;# 
   443  0017                     	;# 
   444  0018                     	;# 
   445  0019                     	;# 
   446  001A                     	;# 
   447  001B                     	;# 
   448  001C                     	;# 
   449  008C                     	;# 
   450  008D                     	;# 
   451  008E                     	;# 
   452  008F                     	;# 
   453  0090                     	;# 
   454  0091                     	;# 
   455  0092                     	;# 
   456  0093                     	;# 
   457  0094                     	;# 
   458  0095                     	;# 
   459  0096                     	;# 
   460  0097                     	;# 
   461  0098                     	;# 
   462  0099                     	;# 
   463  009A                     	;# 
   464  009B                     	;# 
   465  009B                     	;# 
   466  009C                     	;# 
   467  009D                     	;# 
   468  009E                     	;# 
   469  009F                     	;# 
   470  010C                     	;# 
   471  010D                     	;# 
   472  010E                     	;# 
   473  010F                     	;# 
   474  0110                     	;# 
   475  0111                     	;# 
   476  0112                     	;# 
   477  0113                     	;# 
   478  0114                     	;# 
   479  0115                     	;# 
   480  0116                     	;# 
   481  0117                     	;# 
   482  0118                     	;# 
   483  0119                     	;# 
   484  011A                     	;# 
   485  011B                     	;# 
   486  011C                     	;# 
   487  011D                     	;# 
   488  011D                     	;# 
   489  011D                     	;# 
   490  011E                     	;# 
   491  011F                     	;# 
   492  018C                     	;# 
   493  018D                     	;# 
   494  018E                     	;# 
   495  018F                     	;# 
   496  0190                     	;# 
   497  0191                     	;# 
   498  0191                     	;# 
   499  0192                     	;# 
   500  0193                     	;# 
   501  0193                     	;# 
   502  0193                     	;# 
   503  0194                     	;# 
   504  0195                     	;# 
   505  0196                     	;# 
   506  0197                     	;# 
   507  0199                     	;# 
   508  0199                     	;# 
   509  0199                     	;# 
   510  019A                     	;# 
   511  019A                     	;# 
   512  019A                     	;# 
   513  019B                     	;# 
   514  019B                     	;# 
   515  019B                     	;# 
   516  019B                     	;# 
   517  019B                     	;# 
   518  019C                     	;# 
   519  019C                     	;# 
   520  019C                     	;# 
   521  019D                     	;# 
   522  019D                     	;# 
   523  019D                     	;# 
   524  019E                     	;# 
   525  019E                     	;# 
   526  019E                     	;# 
   527  019F                     	;# 
   528  019F                     	;# 
   529  019F                     	;# 
   530  019F                     	;# 
   531  019F                     	;# 
   532  020C                     	;# 
   533  020D                     	;# 
   534  020E                     	;# 
   535  020F                     	;# 
   536  0210                     	;# 
   537  0211                     	;# 
   538  0211                     	;# 
   539  0212                     	;# 
   540  0212                     	;# 
   541  0213                     	;# 
   542  0213                     	;# 
   543  0214                     	;# 
   544  0214                     	;# 
   545  0215                     	;# 
   546  0215                     	;# 
   547  0215                     	;# 
   548  0215                     	;# 
   549  0216                     	;# 
   550  0216                     	;# 
   551  0217                     	;# 
   552  0217                     	;# 
   553  028C                     	;# 
   554  028D                     	;# 
   555  028E                     	;# 
   556  028F                     	;# 
   557  0290                     	;# 
   558  0291                     	;# 
   559  0291                     	;# 
   560  0292                     	;# 
   561  0293                     	;# 
   562  0298                     	;# 
   563  0298                     	;# 
   564  0299                     	;# 
   565  029A                     	;# 
   566  030C                     	;# 
   567  030D                     	;# 
   568  030E                     	;# 
   569  030F                     	;# 
   570  0310                     	;# 
   571  0311                     	;# 
   572  0311                     	;# 
   573  0312                     	;# 
   574  0313                     	;# 
   575  038C                     	;# 
   576  038D                     	;# 
   577  038E                     	;# 
   578  038F                     	;# 
   579  0390                     	;# 
   580  0391                     	;# 
   581  0392                     	;# 
   582  0393                     	;# 
   583  0394                     	;# 
   584  0395                     	;# 
   585  0396                     	;# 
   586  0397                     	;# 
   587  0398                     	;# 
   588  0399                     	;# 
   589  039D                     	;# 
   590  039E                     	;# 
   591  039F                     	;# 
   592  0511                     	;# 
   593  0513                     	;# 
   594  0515                     	;# 
   595  051A                     	;# 
   596  0591                     	;# 
   597  0592                     	;# 
   598  0592                     	;# 
   599  0593                     	;# 
   600  0594                     	;# 
   601  0594                     	;# 
   602  0595                     	;# 
   603  0596                     	;# 
   604  0596                     	;# 
   605  0E91                     	;# 
   606  0E92                     	;# 
   607  0E93                     	;# 
   608  0E94                     	;# 
   609  0E95                     	;# 
   610  0E96                     	;# 
   611  0E97                     	;# 
   612  0E98                     	;# 
   613  0E99                     	;# 
   614  0E9A                     	;# 
   615  0E9B                     	;# 
   616  0E9C                     	;# 
   617  0E9D                     	;# 
   618  0E9E                     	;# 
   619  0E9F                     	;# 
   620  0EA0                     	;# 
   621  0EA1                     	;# 
   622  0EA1                     	;# 
   623  0EA2                     	;# 
   624  0EA3                     	;# 
   625  0EA3                     	;# 
   626  0EA4                     	;# 
   627  0EA5                     	;# 
   628  0EA5                     	;# 
   629  0EA6                     	;# 
   630  0EA7                     	;# 
   631  0EA7                     	;# 
   632  0EA8                     	;# 
   633  0EA9                     	;# 
   634  0EAA                     	;# 
   635  0EAB                     	;# 
   636  0EAC                     	;# 
   637  0EAD                     	;# 
   638  0EAE                     	;# 
   639  0EAF                     	;# 
   640  0EB1                     	;# 
   641  0EB2                     	;# 
   642  0EB3                     	;# 
   643  0EB4                     	;# 
   644  0EB5                     	;# 
   645  0EB6                     	;# 
   646  0EB7                     	;# 
   647  0EB8                     	;# 
   648  0EB9                     	;# 
   649  0EBA                     	;# 
   650  0EBB                     	;# 
   651  0EBC                     	;# 
   652  0EBD                     	;# 
   653  0EBE                     	;# 
   654  0EBF                     	;# 
   655  0EC0                     	;# 
   656  0EC1                     	;# 
   657  0EC1                     	;# 
   658  0EC2                     	;# 
   659  0EC3                     	;# 
   660  0EC3                     	;# 
   661  0EC4                     	;# 
   662  0EC5                     	;# 
   663  0EC5                     	;# 
   664  0EC6                     	;# 
   665  0EC7                     	;# 
   666  0EC7                     	;# 
   667  0EC8                     	;# 
   668  0EC9                     	;# 
   669  0ECA                     	;# 
   670  0ECB                     	;# 
   671  0ECC                     	;# 
   672  0ECD                     	;# 
   673  0ECE                     	;# 
   674  0ECF                     	;# 
   675  0ED1                     	;# 
   676  0ED2                     	;# 
   677  0ED3                     	;# 
   678  0ED4                     	;# 
   679  0ED5                     	;# 
   680  0ED6                     	;# 
   681  0ED7                     	;# 
   682  0ED8                     	;# 
   683  0ED9                     	;# 
   684  0EDA                     	;# 
   685  0EDB                     	;# 
   686  0EDC                     	;# 
   687  0EDD                     	;# 
   688  0EDE                     	;# 
   689  0EDF                     	;# 
   690  0EE0                     	;# 
   691  0EE1                     	;# 
   692  0EE1                     	;# 
   693  0EE2                     	;# 
   694  0EE3                     	;# 
   695  0EE3                     	;# 
   696  0EE4                     	;# 
   697  0EE5                     	;# 
   698  0EE5                     	;# 
   699  0EE6                     	;# 
   700  0EE7                     	;# 
   701  0EE7                     	;# 
   702  0EE8                     	;# 
   703  0EE9                     	;# 
   704  0EEA                     	;# 
   705  0EEB                     	;# 
   706  0EEC                     	;# 
   707  0EED                     	;# 
   708  0EEE                     	;# 
   709  0EEF                     	;# 
   710  0F11                     	;# 
   711  0F12                     	;# 
   712  0F13                     	;# 
   713  0F14                     	;# 
   714  0F15                     	;# 
   715  0F16                     	;# 
   716  0F17                     	;# 
   717  0F18                     	;# 
   718  0F19                     	;# 
   719  0F1A                     	;# 
   720  0F1B                     	;# 
   721  0F1C                     	;# 
   722  0F1D                     	;# 
   723  0F1E                     	;# 
   724  0F1F                     	;# 
   725  0F20                     	;# 
   726  0F21                     	;# 
   727  0F21                     	;# 
   728  0F22                     	;# 
   729  0F23                     	;# 
   730  0F23                     	;# 
   731  0F24                     	;# 
   732  0F25                     	;# 
   733  0F25                     	;# 
   734  0F26                     	;# 
   735  0F27                     	;# 
   736  0F27                     	;# 
   737  0F28                     	;# 
   738  0F29                     	;# 
   739  0F2A                     	;# 
   740  0F2B                     	;# 
   741  0F2C                     	;# 
   742  0F2D                     	;# 
   743  0F2E                     	;# 
   744  0F2F                     	;# 
   745  0FE4                     	;# 
   746  0FE5                     	;# 
   747  0FE6                     	;# 
   748  0FE7                     	;# 
   749  0FE8                     	;# 
   750  0FE9                     	;# 
   751  0FEA                     	;# 
   752  0FEB                     	;# 
   753  0FED                     	;# 
   754  0FEE                     	;# 
   755  0FEF                     	;# 
   756  0000                     	;# 
   757  0001                     	;# 
   758  0002                     	;# 
   759  0003                     	;# 
   760  0004                     	;# 
   761  0005                     	;# 
   762  0006                     	;# 
   763  0007                     	;# 
   764  0008                     	;# 
   765  0009                     	;# 
   766  000A                     	;# 
   767  000B                     	;# 
   768  000C                     	;# 
   769  000D                     	;# 
   770  000E                     	;# 
   771  000F                     	;# 
   772  0010                     	;# 
   773  0011                     	;# 
   774  0012                     	;# 
   775  0013                     	;# 
   776  0014                     	;# 
   777  0015                     	;# 
   778  0016                     	;# 
   779  0016                     	;# 
   780  0017                     	;# 
   781  0018                     	;# 
   782  0019                     	;# 
   783  001A                     	;# 
   784  001B                     	;# 
   785  001C                     	;# 
   786  008C                     	;# 
   787  008D                     	;# 
   788  008E                     	;# 
   789  008F                     	;# 
   790  0090                     	;# 
   791  0091                     	;# 
   792  0092                     	;# 
   793  0093                     	;# 
   794  0094                     	;# 
   795  0095                     	;# 
   796  0096                     	;# 
   797  0097                     	;# 
   798  0098                     	;# 
   799  0099                     	;# 
   800  009A                     	;# 
   801  009B                     	;# 
   802  009B                     	;# 
   803  009C                     	;# 
   804  009D                     	;# 
   805  009E                     	;# 
   806  009F                     	;# 
   807  010C                     	;# 
   808  010D                     	;# 
   809  010E                     	;# 
   810  010F                     	;# 
   811  0110                     	;# 
   812  0111                     	;# 
   813  0112                     	;# 
   814  0113                     	;# 
   815  0114                     	;# 
   816  0115                     	;# 
   817  0116                     	;# 
   818  0117                     	;# 
   819  0118                     	;# 
   820  0119                     	;# 
   821  011A                     	;# 
   822  011B                     	;# 
   823  011C                     	;# 
   824  011D                     	;# 
   825  011D                     	;# 
   826  011D                     	;# 
   827  011E                     	;# 
   828  011F                     	;# 
   829  018C                     	;# 
   830  018D                     	;# 
   831  018E                     	;# 
   832  018F                     	;# 
   833  0190                     	;# 
   834  0191                     	;# 
   835  0191                     	;# 
   836  0192                     	;# 
   837  0193                     	;# 
   838  0193                     	;# 
   839  0193                     	;# 
   840  0194                     	;# 
   841  0195                     	;# 
   842  0196                     	;# 
   843  0197                     	;# 
   844  0199                     	;# 
   845  0199                     	;# 
   846  0199                     	;# 
   847  019A                     	;# 
   848  019A                     	;# 
   849  019A                     	;# 
   850  019B                     	;# 
   851  019B                     	;# 
   852  019B                     	;# 
   853  019B                     	;# 
   854  019B                     	;# 
   855  019C                     	;# 
   856  019C                     	;# 
   857  019C                     	;# 
   858  019D                     	;# 
   859  019D                     	;# 
   860  019D                     	;# 
   861  019E                     	;# 
   862  019E                     	;# 
   863  019E                     	;# 
   864  019F                     	;# 
   865  019F                     	;# 
   866  019F                     	;# 
   867  019F                     	;# 
   868  019F                     	;# 
   869  020C                     	;# 
   870  020D                     	;# 
   871  020E                     	;# 
   872  020F                     	;# 
   873  0210                     	;# 
   874  0211                     	;# 
   875  0211                     	;# 
   876  0212                     	;# 
   877  0212                     	;# 
   878  0213                     	;# 
   879  0213                     	;# 
   880  0214                     	;# 
   881  0214                     	;# 
   882  0215                     	;# 
   883  0215                     	;# 
   884  0215                     	;# 
   885  0215                     	;# 
   886  0216                     	;# 
   887  0216                     	;# 
   888  0217                     	;# 
   889  0217                     	;# 
   890  028C                     	;# 
   891  028D                     	;# 
   892  028E                     	;# 
   893  028F                     	;# 
   894  0290                     	;# 
   895  0291                     	;# 
   896  0291                     	;# 
   897  0292                     	;# 
   898  0293                     	;# 
   899  0298                     	;# 
   900  0298                     	;# 
   901  0299                     	;# 
   902  029A                     	;# 
   903  030C                     	;# 
   904  030D                     	;# 
   905  030E                     	;# 
   906  030F                     	;# 
   907  0310                     	;# 
   908  0311                     	;# 
   909  0311                     	;# 
   910  0312                     	;# 
   911  0313                     	;# 
   912  038C                     	;# 
   913  038D                     	;# 
   914  038E                     	;# 
   915  038F                     	;# 
   916  0390                     	;# 
   917  0391                     	;# 
   918  0392                     	;# 
   919  0393                     	;# 
   920  0394                     	;# 
   921  0395                     	;# 
   922  0396                     	;# 
   923  0397                     	;# 
   924  0398                     	;# 
   925  0399                     	;# 
   926  039D                     	;# 
   927  039E                     	;# 
   928  039F                     	;# 
   929  0511                     	;# 
   930  0513                     	;# 
   931  0515                     	;# 
   932  051A                     	;# 
   933  0591                     	;# 
   934  0592                     	;# 
   935  0592                     	;# 
   936  0593                     	;# 
   937  0594                     	;# 
   938  0594                     	;# 
   939  0595                     	;# 
   940  0596                     	;# 
   941  0596                     	;# 
   942  0E91                     	;# 
   943  0E92                     	;# 
   944  0E93                     	;# 
   945  0E94                     	;# 
   946  0E95                     	;# 
   947  0E96                     	;# 
   948  0E97                     	;# 
   949  0E98                     	;# 
   950  0E99                     	;# 
   951  0E9A                     	;# 
   952  0E9B                     	;# 
   953  0E9C                     	;# 
   954  0E9D                     	;# 
   955  0E9E                     	;# 
   956  0E9F                     	;# 
   957  0EA0                     	;# 
   958  0EA1                     	;# 
   959  0EA1                     	;# 
   960  0EA2                     	;# 
   961  0EA3                     	;# 
   962  0EA3                     	;# 
   963  0EA4                     	;# 
   964  0EA5                     	;# 
   965  0EA5                     	;# 
   966  0EA6                     	;# 
   967  0EA7                     	;# 
   968  0EA7                     	;# 
   969  0EA8                     	;# 
   970  0EA9                     	;# 
   971  0EAA                     	;# 
   972  0EAB                     	;# 
   973  0EAC                     	;# 
   974  0EAD                     	;# 
   975  0EAE                     	;# 
   976  0EAF                     	;# 
   977  0EB1                     	;# 
   978  0EB2                     	;# 
   979  0EB3                     	;# 
   980  0EB4                     	;# 
   981  0EB5                     	;# 
   982  0EB6                     	;# 
   983  0EB7                     	;# 
   984  0EB8                     	;# 
   985  0EB9                     	;# 
   986  0EBA                     	;# 
   987  0EBB                     	;# 
   988  0EBC                     	;# 
   989  0EBD                     	;# 
   990  0EBE                     	;# 
   991  0EBF                     	;# 
   992  0EC0                     	;# 
   993  0EC1                     	;# 
   994  0EC1                     	;# 
   995  0EC2                     	;# 
   996  0EC3                     	;# 
   997  0EC3                     	;# 
   998  0EC4                     	;# 
   999  0EC5                     	;# 
  1000  0EC5                     	;# 
  1001  0EC6                     	;# 
  1002  0EC7                     	;# 
  1003  0EC7                     	;# 
  1004  0EC8                     	;# 
  1005  0EC9                     	;# 
  1006  0ECA                     	;# 
  1007  0ECB                     	;# 
  1008  0ECC                     	;# 
  1009  0ECD                     	;# 
  1010  0ECE                     	;# 
  1011  0ECF                     	;# 
  1012  0ED1                     	;# 
  1013  0ED2                     	;# 
  1014  0ED3                     	;# 
  1015  0ED4                     	;# 
  1016  0ED5                     	;# 
  1017  0ED6                     	;# 
  1018  0ED7                     	;# 
  1019  0ED8                     	;# 
  1020  0ED9                     	;# 
  1021  0EDA                     	;# 
  1022  0EDB                     	;# 
  1023  0EDC                     	;# 
  1024  0EDD                     	;# 
  1025  0EDE                     	;# 
  1026  0EDF                     	;# 
  1027  0EE0                     	;# 
  1028  0EE1                     	;# 
  1029  0EE1                     	;# 
  1030  0EE2                     	;# 
  1031  0EE3                     	;# 
  1032  0EE3                     	;# 
  1033  0EE4                     	;# 
  1034  0EE5                     	;# 
  1035  0EE5                     	;# 
  1036  0EE6                     	;# 
  1037  0EE7                     	;# 
  1038  0EE7                     	;# 
  1039  0EE8                     	;# 
  1040  0EE9                     	;# 
  1041  0EEA                     	;# 
  1042  0EEB                     	;# 
  1043  0EEC                     	;# 
  1044  0EED                     	;# 
  1045  0EEE                     	;# 
  1046  0EEF                     	;# 
  1047  0F11                     	;# 
  1048  0F12                     	;# 
  1049  0F13                     	;# 
  1050  0F14                     	;# 
  1051  0F15                     	;# 
  1052  0F16                     	;# 
  1053  0F17                     	;# 
  1054  0F18                     	;# 
  1055  0F19                     	;# 
  1056  0F1A                     	;# 
  1057  0F1B                     	;# 
  1058  0F1C                     	;# 
  1059  0F1D                     	;# 
  1060  0F1E                     	;# 
  1061  0F1F                     	;# 
  1062  0F20                     	;# 
  1063  0F21                     	;# 
  1064  0F21                     	;# 
  1065  0F22                     	;# 
  1066  0F23                     	;# 
  1067  0F23                     	;# 
  1068  0F24                     	;# 
  1069  0F25                     	;# 
  1070  0F25                     	;# 
  1071  0F26                     	;# 
  1072  0F27                     	;# 
  1073  0F27                     	;# 
  1074  0F28                     	;# 
  1075  0F29                     	;# 
  1076  0F2A                     	;# 
  1077  0F2B                     	;# 
  1078  0F2C                     	;# 
  1079  0F2D                     	;# 
  1080  0F2E                     	;# 
  1081  0F2F                     	;# 
  1082  0FE4                     	;# 
  1083  0FE5                     	;# 
  1084  0FE6                     	;# 
  1085  0FE7                     	;# 
  1086  0FE8                     	;# 
  1087  0FE9                     	;# 
  1088  0FEA                     	;# 
  1089  0FEB                     	;# 
  1090  0FED                     	;# 
  1091  0FEE                     	;# 
  1092  0FEF                     	;# 
  1093  0000                     	;# 
  1094  0001                     	;# 
  1095  0002                     	;# 
  1096  0003                     	;# 
  1097  0004                     	;# 
  1098  0005                     	;# 
  1099  0006                     	;# 
  1100  0007                     	;# 
  1101  0008                     	;# 
  1102  0009                     	;# 
  1103  000A                     	;# 
  1104  000B                     	;# 
  1105  000C                     	;# 
  1106  000D                     	;# 
  1107  000E                     	;# 
  1108  000F                     	;# 
  1109  0010                     	;# 
  1110  0011                     	;# 
  1111  0012                     	;# 
  1112  0013                     	;# 
  1113  0014                     	;# 
  1114  0015                     	;# 
  1115  0016                     	;# 
  1116  0016                     	;# 
  1117  0017                     	;# 
  1118  0018                     	;# 
  1119  0019                     	;# 
  1120  001A                     	;# 
  1121  001B                     	;# 
  1122  001C                     	;# 
  1123  008C                     	;# 
  1124  008D                     	;# 
  1125  008E                     	;# 
  1126  008F                     	;# 
  1127  0090                     	;# 
  1128  0091                     	;# 
  1129  0092                     	;# 
  1130  0093                     	;# 
  1131  0094                     	;# 
  1132  0095                     	;# 
  1133  0096                     	;# 
  1134  0097                     	;# 
  1135  0098                     	;# 
  1136  0099                     	;# 
  1137  009A                     	;# 
  1138  009B                     	;# 
  1139  009B                     	;# 
  1140  009C                     	;# 
  1141  009D                     	;# 
  1142  009E                     	;# 
  1143  009F                     	;# 
  1144  010C                     	;# 
  1145  010D                     	;# 
  1146  010E                     	;# 
  1147  010F                     	;# 
  1148  0110                     	;# 
  1149  0111                     	;# 
  1150  0112                     	;# 
  1151  0113                     	;# 
  1152  0114                     	;# 
  1153  0115                     	;# 
  1154  0116                     	;# 
  1155  0117                     	;# 
  1156  0118                     	;# 
  1157  0119                     	;# 
  1158  011A                     	;# 
  1159  011B                     	;# 
  1160  011C                     	;# 
  1161  011D                     	;# 
  1162  011D                     	;# 
  1163  011D                     	;# 
  1164  011E                     	;# 
  1165  011F                     	;# 
  1166  018C                     	;# 
  1167  018D                     	;# 
  1168  018E                     	;# 
  1169  018F                     	;# 
  1170  0190                     	;# 
  1171  0191                     	;# 
  1172  0191                     	;# 
  1173  0192                     	;# 
  1174  0193                     	;# 
  1175  0193                     	;# 
  1176  0193                     	;# 
  1177  0194                     	;# 
  1178  0195                     	;# 
  1179  0196                     	;# 
  1180  0197                     	;# 
  1181  0199                     	;# 
  1182  0199                     	;# 
  1183  0199                     	;# 
  1184  019A                     	;# 
  1185  019A                     	;# 
  1186  019A                     	;# 
  1187  019B                     	;# 
  1188  019B                     	;# 
  1189  019B                     	;# 
  1190  019B                     	;# 
  1191  019B                     	;# 
  1192  019C                     	;# 
  1193  019C                     	;# 
  1194  019C                     	;# 
  1195  019D                     	;# 
  1196  019D                     	;# 
  1197  019D                     	;# 
  1198  019E                     	;# 
  1199  019E                     	;# 
  1200  019E                     	;# 
  1201  019F                     	;# 
  1202  019F                     	;# 
  1203  019F                     	;# 
  1204  019F                     	;# 
  1205  019F                     	;# 
  1206  020C                     	;# 
  1207  020D                     	;# 
  1208  020E                     	;# 
  1209  020F                     	;# 
  1210  0210                     	;# 
  1211  0211                     	;# 
  1212  0211                     	;# 
  1213  0212                     	;# 
  1214  0212                     	;# 
  1215  0213                     	;# 
  1216  0213                     	;# 
  1217  0214                     	;# 
  1218  0214                     	;# 
  1219  0215                     	;# 
  1220  0215                     	;# 
  1221  0215                     	;# 
  1222  0215                     	;# 
  1223  0216                     	;# 
  1224  0216                     	;# 
  1225  0217                     	;# 
  1226  0217                     	;# 
  1227  028C                     	;# 
  1228  028D                     	;# 
  1229  028E                     	;# 
  1230  028F                     	;# 
  1231  0290                     	;# 
  1232  0291                     	;# 
  1233  0291                     	;# 
  1234  0292                     	;# 
  1235  0293                     	;# 
  1236  0298                     	;# 
  1237  0298                     	;# 
  1238  0299                     	;# 
  1239  029A                     	;# 
  1240  030C                     	;# 
  1241  030D                     	;# 
  1242  030E                     	;# 
  1243  030F                     	;# 
  1244  0310                     	;# 
  1245  0311                     	;# 
  1246  0311                     	;# 
  1247  0312                     	;# 
  1248  0313                     	;# 
  1249  038C                     	;# 
  1250  038D                     	;# 
  1251  038E                     	;# 
  1252  038F                     	;# 
  1253  0390                     	;# 
  1254  0391                     	;# 
  1255  0392                     	;# 
  1256  0393                     	;# 
  1257  0394                     	;# 
  1258  0395                     	;# 
  1259  0396                     	;# 
  1260  0397                     	;# 
  1261  0398                     	;# 
  1262  0399                     	;# 
  1263  039D                     	;# 
  1264  039E                     	;# 
  1265  039F                     	;# 
  1266  0511                     	;# 
  1267  0513                     	;# 
  1268  0515                     	;# 
  1269  051A                     	;# 
  1270  0591                     	;# 
  1271  0592                     	;# 
  1272  0592                     	;# 
  1273  0593                     	;# 
  1274  0594                     	;# 
  1275  0594                     	;# 
  1276  0595                     	;# 
  1277  0596                     	;# 
  1278  0596                     	;# 
  1279  0E91                     	;# 
  1280  0E92                     	;# 
  1281  0E93                     	;# 
  1282  0E94                     	;# 
  1283  0E95                     	;# 
  1284  0E96                     	;# 
  1285  0E97                     	;# 
  1286  0E98                     	;# 
  1287  0E99                     	;# 
  1288  0E9A                     	;# 
  1289  0E9B                     	;# 
  1290  0E9C                     	;# 
  1291  0E9D                     	;# 
  1292  0E9E                     	;# 
  1293  0E9F                     	;# 
  1294  0EA0                     	;# 
  1295  0EA1                     	;# 
  1296  0EA1                     	;# 
  1297  0EA2                     	;# 
  1298  0EA3                     	;# 
  1299  0EA3                     	;# 
  1300  0EA4                     	;# 
  1301  0EA5                     	;# 
  1302  0EA5                     	;# 
  1303  0EA6                     	;# 
  1304  0EA7                     	;# 
  1305  0EA7                     	;# 
  1306  0EA8                     	;# 
  1307  0EA9                     	;# 
  1308  0EAA                     	;# 
  1309  0EAB                     	;# 
  1310  0EAC                     	;# 
  1311  0EAD                     	;# 
  1312  0EAE                     	;# 
  1313  0EAF                     	;# 
  1314  0EB1                     	;# 
  1315  0EB2                     	;# 
  1316  0EB3                     	;# 
  1317  0EB4                     	;# 
  1318  0EB5                     	;# 
  1319  0EB6                     	;# 
  1320  0EB7                     	;# 
  1321  0EB8                     	;# 
  1322  0EB9                     	;# 
  1323  0EBA                     	;# 
  1324  0EBB                     	;# 
  1325  0EBC                     	;# 
  1326  0EBD                     	;# 
  1327  0EBE                     	;# 
  1328  0EBF                     	;# 
  1329  0EC0                     	;# 
  1330  0EC1                     	;# 
  1331  0EC1                     	;# 
  1332  0EC2                     	;# 
  1333  0EC3                     	;# 
  1334  0EC3                     	;# 
  1335  0EC4                     	;# 
  1336  0EC5                     	;# 
  1337  0EC5                     	;# 
  1338  0EC6                     	;# 
  1339  0EC7                     	;# 
  1340  0EC7                     	;# 
  1341  0EC8                     	;# 
  1342  0EC9                     	;# 
  1343  0ECA                     	;# 
  1344  0ECB                     	;# 
  1345  0ECC                     	;# 
  1346  0ECD                     	;# 
  1347  0ECE                     	;# 
  1348  0ECF                     	;# 
  1349  0ED1                     	;# 
  1350  0ED2                     	;# 
  1351  0ED3                     	;# 
  1352  0ED4                     	;# 
  1353  0ED5                     	;# 
  1354  0ED6                     	;# 
  1355  0ED7                     	;# 
  1356  0ED8                     	;# 
  1357  0ED9                     	;# 
  1358  0EDA                     	;# 
  1359  0EDB                     	;# 
  1360  0EDC                     	;# 
  1361  0EDD                     	;# 
  1362  0EDE                     	;# 
  1363  0EDF                     	;# 
  1364  0EE0                     	;# 
  1365  0EE1                     	;# 
  1366  0EE1                     	;# 
  1367  0EE2                     	;# 
  1368  0EE3                     	;# 
  1369  0EE3                     	;# 
  1370  0EE4                     	;# 
  1371  0EE5                     	;# 
  1372  0EE5                     	;# 
  1373  0EE6                     	;# 
  1374  0EE7                     	;# 
  1375  0EE7                     	;# 
  1376  0EE8                     	;# 
  1377  0EE9                     	;# 
  1378  0EEA                     	;# 
  1379  0EEB                     	;# 
  1380  0EEC                     	;# 
  1381  0EED                     	;# 
  1382  0EEE                     	;# 
  1383  0EEF                     	;# 
  1384  0F11                     	;# 
  1385  0F12                     	;# 
  1386  0F13                     	;# 
  1387  0F14                     	;# 
  1388  0F15                     	;# 
  1389  0F16                     	;# 
  1390  0F17                     	;# 
  1391  0F18                     	;# 
  1392  0F19                     	;# 
  1393  0F1A                     	;# 
  1394  0F1B                     	;# 
  1395  0F1C                     	;# 
  1396  0F1D                     	;# 
  1397  0F1E                     	;# 
  1398  0F1F                     	;# 
  1399  0F20                     	;# 
  1400  0F21                     	;# 
  1401  0F21                     	;# 
  1402  0F22                     	;# 
  1403  0F23                     	;# 
  1404  0F23                     	;# 
  1405  0F24                     	;# 
  1406  0F25                     	;# 
  1407  0F25                     	;# 
  1408  0F26                     	;# 
  1409  0F27                     	;# 
  1410  0F27                     	;# 
  1411  0F28                     	;# 
  1412  0F29                     	;# 
  1413  0F2A                     	;# 
  1414  0F2B                     	;# 
  1415  0F2C                     	;# 
  1416  0F2D                     	;# 
  1417  0F2E                     	;# 
  1418  0F2F                     	;# 
  1419  0FE4                     	;# 
  1420  0FE5                     	;# 
  1421  0FE6                     	;# 
  1422  0FE7                     	;# 
  1423  0FE8                     	;# 
  1424  0FE9                     	;# 
  1425  0FEA                     	;# 
  1426  0FEB                     	;# 
  1427  0FED                     	;# 
  1428  0FEE                     	;# 
  1429  0FEF                     	;# 
  1430  0000                     	;# 
  1431  0001                     	;# 
  1432  0002                     	;# 
  1433  0003                     	;# 
  1434  0004                     	;# 
  1435  0005                     	;# 
  1436  0006                     	;# 
  1437  0007                     	;# 
  1438  0008                     	;# 
  1439  0009                     	;# 
  1440  000A                     	;# 
  1441  000B                     	;# 
  1442  000C                     	;# 
  1443  000D                     	;# 
  1444  000E                     	;# 
  1445  000F                     	;# 
  1446  0010                     	;# 
  1447  0011                     	;# 
  1448  0012                     	;# 
  1449  0013                     	;# 
  1450  0014                     	;# 
  1451  0015                     	;# 
  1452  0016                     	;# 
  1453  0016                     	;# 
  1454  0017                     	;# 
  1455  0018                     	;# 
  1456  0019                     	;# 
  1457  001A                     	;# 
  1458  001B                     	;# 
  1459  001C                     	;# 
  1460  008C                     	;# 
  1461  008D                     	;# 
  1462  008E                     	;# 
  1463  008F                     	;# 
  1464  0090                     	;# 
  1465  0091                     	;# 
  1466  0092                     	;# 
  1467  0093                     	;# 
  1468  0094                     	;# 
  1469  0095                     	;# 
  1470  0096                     	;# 
  1471  0097                     	;# 
  1472  0098                     	;# 
  1473  0099                     	;# 
  1474  009A                     	;# 
  1475  009B                     	;# 
  1476  009B                     	;# 
  1477  009C                     	;# 
  1478  009D                     	;# 
  1479  009E                     	;# 
  1480  009F                     	;# 
  1481  010C                     	;# 
  1482  010D                     	;# 
  1483  010E                     	;# 
  1484  010F                     	;# 
  1485  0110                     	;# 
  1486  0111                     	;# 
  1487  0112                     	;# 
  1488  0113                     	;# 
  1489  0114                     	;# 
  1490  0115                     	;# 
  1491  0116                     	;# 
  1492  0117                     	;# 
  1493  0118                     	;# 
  1494  0119                     	;# 
  1495  011A                     	;# 
  1496  011B                     	;# 
  1497  011C                     	;# 
  1498  011D                     	;# 
  1499  011D                     	;# 
  1500  011D                     	;# 
  1501  011E                     	;# 
  1502  011F                     	;# 
  1503  018C                     	;# 
  1504  018D                     	;# 
  1505  018E                     	;# 
  1506  018F                     	;# 
  1507  0190                     	;# 
  1508  0191                     	;# 
  1509  0191                     	;# 
  1510  0192                     	;# 
  1511  0193                     	;# 
  1512  0193                     	;# 
  1513  0193                     	;# 
  1514  0194                     	;# 
  1515  0195                     	;# 
  1516  0196                     	;# 
  1517  0197                     	;# 
  1518  0199                     	;# 
  1519  0199                     	;# 
  1520  0199                     	;# 
  1521  019A                     	;# 
  1522  019A                     	;# 
  1523  019A                     	;# 
  1524  019B                     	;# 
  1525  019B                     	;# 
  1526  019B                     	;# 
  1527  019B                     	;# 
  1528  019B                     	;# 
  1529  019C                     	;# 
  1530  019C                     	;# 
  1531  019C                     	;# 
  1532  019D                     	;# 
  1533  019D                     	;# 
  1534  019D                     	;# 
  1535  019E                     	;# 
  1536  019E                     	;# 
  1537  019E                     	;# 
  1538  019F                     	;# 
  1539  019F                     	;# 
  1540  019F                     	;# 
  1541  019F                     	;# 
  1542  019F                     	;# 
  1543  020C                     	;# 
  1544  020D                     	;# 
  1545  020E                     	;# 
  1546  020F                     	;# 
  1547  0210                     	;# 
  1548  0211                     	;# 
  1549  0211                     	;# 
  1550  0212                     	;# 
  1551  0212                     	;# 
  1552  0213                     	;# 
  1553  0213                     	;# 
  1554  0214                     	;# 
  1555  0214                     	;# 
  1556  0215                     	;# 
  1557  0215                     	;# 
  1558  0215                     	;# 
  1559  0215                     	;# 
  1560  0216                     	;# 
  1561  0216                     	;# 
  1562  0217                     	;# 
  1563  0217                     	;# 
  1564  028C                     	;# 
  1565  028D                     	;# 
  1566  028E                     	;# 
  1567  028F                     	;# 
  1568  0290                     	;# 
  1569  0291                     	;# 
  1570  0291                     	;# 
  1571  0292                     	;# 
  1572  0293                     	;# 
  1573  0298                     	;# 
  1574  0298                     	;# 
  1575  0299                     	;# 
  1576  029A                     	;# 
  1577  030C                     	;# 
  1578  030D                     	;# 
  1579  030E                     	;# 
  1580  030F                     	;# 
  1581  0310                     	;# 
  1582  0311                     	;# 
  1583  0311                     	;# 
  1584  0312                     	;# 
  1585  0313                     	;# 
  1586  038C                     	;# 
  1587  038D                     	;# 
  1588  038E                     	;# 
  1589  038F                     	;# 
  1590  0390                     	;# 
  1591  0391                     	;# 
  1592  0392                     	;# 
  1593  0393                     	;# 
  1594  0394                     	;# 
  1595  0395                     	;# 
  1596  0396                     	;# 
  1597  0397                     	;# 
  1598  0398                     	;# 
  1599  0399                     	;# 
  1600  039D                     	;# 
  1601  039E                     	;# 
  1602  039F                     	;# 
  1603  0511                     	;# 
  1604  0513                     	;# 
  1605  0515                     	;# 
  1606  051A                     	;# 
  1607  0591                     	;# 
  1608  0592                     	;# 
  1609  0592                     	;# 
  1610  0593                     	;# 
  1611  0594                     	;# 
  1612  0594                     	;# 
  1613  0595                     	;# 
  1614  0596                     	;# 
  1615  0596                     	;# 
  1616  0E91                     	;# 
  1617  0E92                     	;# 
  1618  0E93                     	;# 
  1619  0E94                     	;# 
  1620  0E95                     	;# 
  1621  0E96                     	;# 
  1622  0E97                     	;# 
  1623  0E98                     	;# 
  1624  0E99                     	;# 
  1625  0E9A                     	;# 
  1626  0E9B                     	;# 
  1627  0E9C                     	;# 
  1628  0E9D                     	;# 
  1629  0E9E                     	;# 
  1630  0E9F                     	;# 
  1631  0EA0                     	;# 
  1632  0EA1                     	;# 
  1633  0EA1                     	;# 
  1634  0EA2                     	;# 
  1635  0EA3                     	;# 
  1636  0EA3                     	;# 
  1637  0EA4                     	;# 
  1638  0EA5                     	;# 
  1639  0EA5                     	;# 
  1640  0EA6                     	;# 
  1641  0EA7                     	;# 
  1642  0EA7                     	;# 
  1643  0EA8                     	;# 
  1644  0EA9                     	;# 
  1645  0EAA                     	;# 
  1646  0EAB                     	;# 
  1647  0EAC                     	;# 
  1648  0EAD                     	;# 
  1649  0EAE                     	;# 
  1650  0EAF                     	;# 
  1651  0EB1                     	;# 
  1652  0EB2                     	;# 
  1653  0EB3                     	;# 
  1654  0EB4                     	;# 
  1655  0EB5                     	;# 
  1656  0EB6                     	;# 
  1657  0EB7                     	;# 
  1658  0EB8                     	;# 
  1659  0EB9                     	;# 
  1660  0EBA                     	;# 
  1661  0EBB                     	;# 
  1662  0EBC                     	;# 
  1663  0EBD                     	;# 
  1664  0EBE                     	;# 
  1665  0EBF                     	;# 
  1666  0EC0                     	;# 
  1667  0EC1                     	;# 
  1668  0EC1                     	;# 
  1669  0EC2                     	;# 
  1670  0EC3                     	;# 
  1671  0EC3                     	;# 
  1672  0EC4                     	;# 
  1673  0EC5                     	;# 
  1674  0EC5                     	;# 
  1675  0EC6                     	;# 
  1676  0EC7                     	;# 
  1677  0EC7                     	;# 
  1678  0EC8                     	;# 
  1679  0EC9                     	;# 
  1680  0ECA                     	;# 
  1681  0ECB                     	;# 
  1682  0ECC                     	;# 
  1683  0ECD                     	;# 
  1684  0ECE                     	;# 
  1685  0ECF                     	;# 
  1686  0ED1                     	;# 
  1687  0ED2                     	;# 
  1688  0ED3                     	;# 
  1689  0ED4                     	;# 
  1690  0ED5                     	;# 
  1691  0ED6                     	;# 
  1692  0ED7                     	;# 
  1693  0ED8                     	;# 
  1694  0ED9                     	;# 
  1695  0EDA                     	;# 
  1696  0EDB                     	;# 
  1697  0EDC                     	;# 
  1698  0EDD                     	;# 
  1699  0EDE                     	;# 
  1700  0EDF                     	;# 
  1701  0EE0                     	;# 
  1702  0EE1                     	;# 
  1703  0EE1                     	;# 
  1704  0EE2                     	;# 
  1705  0EE3                     	;# 
  1706  0EE3                     	;# 
  1707  0EE4                     	;# 
  1708  0EE5                     	;# 
  1709  0EE5                     	;# 
  1710  0EE6                     	;# 
  1711  0EE7                     	;# 
  1712  0EE7                     	;# 
  1713  0EE8                     	;# 
  1714  0EE9                     	;# 
  1715  0EEA                     	;# 
  1716  0EEB                     	;# 
  1717  0EEC                     	;# 
  1718  0EED                     	;# 
  1719  0EEE                     	;# 
  1720  0EEF                     	;# 
  1721  0F11                     	;# 
  1722  0F12                     	;# 
  1723  0F13                     	;# 
  1724  0F14                     	;# 
  1725  0F15                     	;# 
  1726  0F16                     	;# 
  1727  0F17                     	;# 
  1728  0F18                     	;# 
  1729  0F19                     	;# 
  1730  0F1A                     	;# 
  1731  0F1B                     	;# 
  1732  0F1C                     	;# 
  1733  0F1D                     	;# 
  1734  0F1E                     	;# 
  1735  0F1F                     	;# 
  1736  0F20                     	;# 
  1737  0F21                     	;# 
  1738  0F21                     	;# 
  1739  0F22                     	;# 
  1740  0F23                     	;# 
  1741  0F23                     	;# 
  1742  0F24                     	;# 
  1743  0F25                     	;# 
  1744  0F25                     	;# 
  1745  0F26                     	;# 
  1746  0F27                     	;# 
  1747  0F27                     	;# 
  1748  0F28                     	;# 
  1749  0F29                     	;# 
  1750  0F2A                     	;# 
  1751  0F2B                     	;# 
  1752  0F2C                     	;# 
  1753  0F2D                     	;# 
  1754  0F2E                     	;# 
  1755  0F2F                     	;# 
  1756  0FE4                     	;# 
  1757  0FE5                     	;# 
  1758  0FE6                     	;# 
  1759  0FE7                     	;# 
  1760  0FE8                     	;# 
  1761  0FE9                     	;# 
  1762  0FEA                     	;# 
  1763  0FEB                     	;# 
  1764  0FED                     	;# 
  1765  0FEE                     	;# 
  1766  0FEF                     	;# 
  1767  0000                     	;# 
  1768  0001                     	;# 
  1769  0002                     	;# 
  1770  0003                     	;# 
  1771  0004                     	;# 
  1772  0005                     	;# 
  1773  0006                     	;# 
  1774  0007                     	;# 
  1775  0008                     	;# 
  1776  0009                     	;# 
  1777  000A                     	;# 
  1778  000B                     	;# 
  1779  000C                     	;# 
  1780  000D                     	;# 
  1781  000E                     	;# 
  1782  000F                     	;# 
  1783  0010                     	;# 
  1784  0011                     	;# 
  1785  0012                     	;# 
  1786  0013                     	;# 
  1787  0014                     	;# 
  1788  0015                     	;# 
  1789  0016                     	;# 
  1790  0016                     	;# 
  1791  0017                     	;# 
  1792  0018                     	;# 
  1793  0019                     	;# 
  1794  001A                     	;# 
  1795  001B                     	;# 
  1796  001C                     	;# 
  1797  008C                     	;# 
  1798  008D                     	;# 
  1799  008E                     	;# 
  1800  008F                     	;# 
  1801  0090                     	;# 
  1802  0091                     	;# 
  1803  0092                     	;# 
  1804  0093                     	;# 
  1805  0094                     	;# 
  1806  0095                     	;# 
  1807  0096                     	;# 
  1808  0097                     	;# 
  1809  0098                     	;# 
  1810  0099                     	;# 
  1811  009A                     	;# 
  1812  009B                     	;# 
  1813  009B                     	;# 
  1814  009C                     	;# 
  1815  009D                     	;# 
  1816  009E                     	;# 
  1817  009F                     	;# 
  1818  010C                     	;# 
  1819  010D                     	;# 
  1820  010E                     	;# 
  1821  010F                     	;# 
  1822  0110                     	;# 
  1823  0111                     	;# 
  1824  0112                     	;# 
  1825  0113                     	;# 
  1826  0114                     	;# 
  1827  0115                     	;# 
  1828  0116                     	;# 
  1829  0117                     	;# 
  1830  0118                     	;# 
  1831  0119                     	;# 
  1832  011A                     	;# 
  1833  011B                     	;# 
  1834  011C                     	;# 
  1835  011D                     	;# 
  1836  011D                     	;# 
  1837  011D                     	;# 
  1838  011E                     	;# 
  1839  011F                     	;# 
  1840  018C                     	;# 
  1841  018D                     	;# 
  1842  018E                     	;# 
  1843  018F                     	;# 
  1844  0190                     	;# 
  1845  0191                     	;# 
  1846  0191                     	;# 
  1847  0192                     	;# 
  1848  0193                     	;# 
  1849  0193                     	;# 
  1850  0193                     	;# 
  1851  0194                     	;# 
  1852  0195                     	;# 
  1853  0196                     	;# 
  1854  0197                     	;# 
  1855  0199                     	;# 
  1856  0199                     	;# 
  1857  0199                     	;# 
  1858  019A                     	;# 
  1859  019A                     	;# 
  1860  019A                     	;# 
  1861  019B                     	;# 
  1862  019B                     	;# 
  1863  019B                     	;# 
  1864  019B                     	;# 
  1865  019B                     	;# 
  1866  019C                     	;# 
  1867  019C                     	;# 
  1868  019C                     	;# 
  1869  019D                     	;# 
  1870  019D                     	;# 
  1871  019D                     	;# 
  1872  019E                     	;# 
  1873  019E                     	;# 
  1874  019E                     	;# 
  1875  019F                     	;# 
  1876  019F                     	;# 
  1877  019F                     	;# 
  1878  019F                     	;# 
  1879  019F                     	;# 
  1880  020C                     	;# 
  1881  020D                     	;# 
  1882  020E                     	;# 
  1883  020F                     	;# 
  1884  0210                     	;# 
  1885  0211                     	;# 
  1886  0211                     	;# 
  1887  0212                     	;# 
  1888  0212                     	;# 
  1889  0213                     	;# 
  1890  0213                     	;# 
  1891  0214                     	;# 
  1892  0214                     	;# 
  1893  0215                     	;# 
  1894  0215                     	;# 
  1895  0215                     	;# 
  1896  0215                     	;# 
  1897  0216                     	;# 
  1898  0216                     	;# 
  1899  0217                     	;# 
  1900  0217                     	;# 
  1901  028C                     	;# 
  1902  028D                     	;# 
  1903  028E                     	;# 
  1904  028F                     	;# 
  1905  0290                     	;# 
  1906  0291                     	;# 
  1907  0291                     	;# 
  1908  0292                     	;# 
  1909  0293                     	;# 
  1910  0298                     	;# 
  1911  0298                     	;# 
  1912  0299                     	;# 
  1913  029A                     	;# 
  1914  030C                     	;# 
  1915  030D                     	;# 
  1916  030E                     	;# 
  1917  030F                     	;# 
  1918  0310                     	;# 
  1919  0311                     	;# 
  1920  0311                     	;# 
  1921  0312                     	;# 
  1922  0313                     	;# 
  1923  038C                     	;# 
  1924  038D                     	;# 
  1925  038E                     	;# 
  1926  038F                     	;# 
  1927  0390                     	;# 
  1928  0391                     	;# 
  1929  0392                     	;# 
  1930  0393                     	;# 
  1931  0394                     	;# 
  1932  0395                     	;# 
  1933  0396                     	;# 
  1934  0397                     	;# 
  1935  0398                     	;# 
  1936  0399                     	;# 
  1937  039D                     	;# 
  1938  039E                     	;# 
  1939  039F                     	;# 
  1940  0511                     	;# 
  1941  0513                     	;# 
  1942  0515                     	;# 
  1943  051A                     	;# 
  1944  0591                     	;# 
  1945  0592                     	;# 
  1946  0592                     	;# 
  1947  0593                     	;# 
  1948  0594                     	;# 
  1949  0594                     	;# 
  1950  0595                     	;# 
  1951  0596                     	;# 
  1952  0596                     	;# 
  1953  0E91                     	;# 
  1954  0E92                     	;# 
  1955  0E93                     	;# 
  1956  0E94                     	;# 
  1957  0E95                     	;# 
  1958  0E96                     	;# 
  1959  0E97                     	;# 
  1960  0E98                     	;# 
  1961  0E99                     	;# 
  1962  0E9A                     	;# 
  1963  0E9B                     	;# 
  1964  0E9C                     	;# 
  1965  0E9D                     	;# 
  1966  0E9E                     	;# 
  1967  0E9F                     	;# 
  1968  0EA0                     	;# 
  1969  0EA1                     	;# 
  1970  0EA1                     	;# 
  1971  0EA2                     	;# 
  1972  0EA3                     	;# 
  1973  0EA3                     	;# 
  1974  0EA4                     	;# 
  1975  0EA5                     	;# 
  1976  0EA5                     	;# 
  1977  0EA6                     	;# 
  1978  0EA7                     	;# 
  1979  0EA7                     	;# 
  1980  0EA8                     	;# 
  1981  0EA9                     	;# 
  1982  0EAA                     	;# 
  1983  0EAB                     	;# 
  1984  0EAC                     	;# 
  1985  0EAD                     	;# 
  1986  0EAE                     	;# 
  1987  0EAF                     	;# 
  1988  0EB1                     	;# 
  1989  0EB2                     	;# 
  1990  0EB3                     	;# 
  1991  0EB4                     	;# 
  1992  0EB5                     	;# 
  1993  0EB6                     	;# 
  1994  0EB7                     	;# 
  1995  0EB8                     	;# 
  1996  0EB9                     	;# 
  1997  0EBA                     	;# 
  1998  0EBB                     	;# 
  1999  0EBC                     	;# 
  2000  0EBD                     	;# 
  2001  0EBE                     	;# 
  2002  0EBF                     	;# 
  2003  0EC0                     	;# 
  2004  0EC1                     	;# 
  2005  0EC1                     	;# 
  2006  0EC2                     	;# 
  2007  0EC3                     	;# 
  2008  0EC3                     	;# 
  2009  0EC4                     	;# 
  2010  0EC5                     	;# 
  2011  0EC5                     	;# 
  2012  0EC6                     	;# 
  2013  0EC7                     	;# 
  2014  0EC7                     	;# 
  2015  0EC8                     	;# 
  2016  0EC9                     	;# 
  2017  0ECA                     	;# 
  2018  0ECB                     	;# 
  2019  0ECC                     	;# 
  2020  0ECD                     	;# 
  2021  0ECE                     	;# 
  2022  0ECF                     	;# 
  2023  0ED1                     	;# 
  2024  0ED2                     	;# 
  2025  0ED3                     	;# 
  2026  0ED4                     	;# 
  2027  0ED5                     	;# 
  2028  0ED6                     	;# 
  2029  0ED7                     	;# 
  2030  0ED8                     	;# 
  2031  0ED9                     	;# 
  2032  0EDA                     	;# 
  2033  0EDB                     	;# 
  2034  0EDC                     	;# 
  2035  0EDD                     	;# 
  2036  0EDE                     	;# 
  2037  0EDF                     	;# 
  2038  0EE0                     	;# 
  2039  0EE1                     	;# 
  2040  0EE1                     	;# 
  2041  0EE2                     	;# 
  2042  0EE3                     	;# 
  2043  0EE3                     	;# 
  2044  0EE4                     	;# 
  2045  0EE5                     	;# 
  2046  0EE5                     	;# 
  2047  0EE6                     	;# 
  2048  0EE7                     	;# 
  2049  0EE7                     	;# 
  2050  0EE8                     	;# 
  2051  0EE9                     	;# 
  2052  0EEA                     	;# 
  2053  0EEB                     	;# 
  2054  0EEC                     	;# 
  2055  0EED                     	;# 
  2056  0EEE                     	;# 
  2057  0EEF                     	;# 
  2058  0F11                     	;# 
  2059  0F12                     	;# 
  2060  0F13                     	;# 
  2061  0F14                     	;# 
  2062  0F15                     	;# 
  2063  0F16                     	;# 
  2064  0F17                     	;# 
  2065  0F18                     	;# 
  2066  0F19                     	;# 
  2067  0F1A                     	;# 
  2068  0F1B                     	;# 
  2069  0F1C                     	;# 
  2070  0F1D                     	;# 
  2071  0F1E                     	;# 
  2072  0F1F                     	;# 
  2073  0F20                     	;# 
  2074  0F21                     	;# 
  2075  0F21                     	;# 
  2076  0F22                     	;# 
  2077  0F23                     	;# 
  2078  0F23                     	;# 
  2079  0F24                     	;# 
  2080  0F25                     	;# 
  2081  0F25                     	;# 
  2082  0F26                     	;# 
  2083  0F27                     	;# 
  2084  0F27                     	;# 
  2085  0F28                     	;# 
  2086  0F29                     	;# 
  2087  0F2A                     	;# 
  2088  0F2B                     	;# 
  2089  0F2C                     	;# 
  2090  0F2D                     	;# 
  2091  0F2E                     	;# 
  2092  0F2F                     	;# 
  2093  0FE4                     	;# 
  2094  0FE5                     	;# 
  2095  0FE6                     	;# 
  2096  0FE7                     	;# 
  2097  0FE8                     	;# 
  2098  0FE9                     	;# 
  2099  0FEA                     	;# 
  2100  0FEB                     	;# 
  2101  0FED                     	;# 
  2102  0FEE                     	;# 
  2103  0FEF                     	;# 
  2104  0000                     	;# 
  2105  0001                     	;# 
  2106  0002                     	;# 
  2107  0003                     	;# 
  2108  0004                     	;# 
  2109  0005                     	;# 
  2110  0006                     	;# 
  2111  0007                     	;# 
  2112  0008                     	;# 
  2113  0009                     	;# 
  2114  000A                     	;# 
  2115  000B                     	;# 
  2116  000C                     	;# 
  2117  000D                     	;# 
  2118  000E                     	;# 
  2119  000F                     	;# 
  2120  0010                     	;# 
  2121  0011                     	;# 
  2122  0012                     	;# 
  2123  0013                     	;# 
  2124  0014                     	;# 
  2125  0015                     	;# 
  2126  0016                     	;# 
  2127  0016                     	;# 
  2128  0017                     	;# 
  2129  0018                     	;# 
  2130  0019                     	;# 
  2131  001A                     	;# 
  2132  001B                     	;# 
  2133  001C                     	;# 
  2134  008C                     	;# 
  2135  008D                     	;# 
  2136  008E                     	;# 
  2137  008F                     	;# 
  2138  0090                     	;# 
  2139  0091                     	;# 
  2140  0092                     	;# 
  2141  0093                     	;# 
  2142  0094                     	;# 
  2143  0095                     	;# 
  2144  0096                     	;# 
  2145  0097                     	;# 
  2146  0098                     	;# 
  2147  0099                     	;# 
  2148  009A                     	;# 
  2149  009B                     	;# 
  2150  009B                     	;# 
  2151  009C                     	;# 
  2152  009D                     	;# 
  2153  009E                     	;# 
  2154  009F                     	;# 
  2155  010C                     	;# 
  2156  010D                     	;# 
  2157  010E                     	;# 
  2158  010F                     	;# 
  2159  0110                     	;# 
  2160  0111                     	;# 
  2161  0112                     	;# 
  2162  0113                     	;# 
  2163  0114                     	;# 
  2164  0115                     	;# 
  2165  0116                     	;# 
  2166  0117                     	;# 
  2167  0118                     	;# 
  2168  0119                     	;# 
  2169  011A                     	;# 
  2170  011B                     	;# 
  2171  011C                     	;# 
  2172  011D                     	;# 
  2173  011D                     	;# 
  2174  011D                     	;# 
  2175  011E                     	;# 
  2176  011F                     	;# 
  2177  018C                     	;# 
  2178  018D                     	;# 
  2179  018E                     	;# 
  2180  018F                     	;# 
  2181  0190                     	;# 
  2182  0191                     	;# 
  2183  0191                     	;# 
  2184  0192                     	;# 
  2185  0193                     	;# 
  2186  0193                     	;# 
  2187  0193                     	;# 
  2188  0194                     	;# 
  2189  0195                     	;# 
  2190  0196                     	;# 
  2191  0197                     	;# 
  2192  0199                     	;# 
  2193  0199                     	;# 
  2194  0199                     	;# 
  2195  019A                     	;# 
  2196  019A                     	;# 
  2197  019A                     	;# 
  2198  019B                     	;# 
  2199  019B                     	;# 
  2200  019B                     	;# 
  2201  019B                     	;# 
  2202  019B                     	;# 
  2203  019C                     	;# 
  2204  019C                     	;# 
  2205  019C                     	;# 
  2206  019D                     	;# 
  2207  019D                     	;# 
  2208  019D                     	;# 
  2209  019E                     	;# 
  2210  019E                     	;# 
  2211  019E                     	;# 
  2212  019F                     	;# 
  2213  019F                     	;# 
  2214  019F                     	;# 
  2215  019F                     	;# 
  2216  019F                     	;# 
  2217  020C                     	;# 
  2218  020D                     	;# 
  2219  020E                     	;# 
  2220  020F                     	;# 
  2221  0210                     	;# 
  2222  0211                     	;# 
  2223  0211                     	;# 
  2224  0212                     	;# 
  2225  0212                     	;# 
  2226  0213                     	;# 
  2227  0213                     	;# 
  2228  0214                     	;# 
  2229  0214                     	;# 
  2230  0215                     	;# 
  2231  0215                     	;# 
  2232  0215                     	;# 
  2233  0215                     	;# 
  2234  0216                     	;# 
  2235  0216                     	;# 
  2236  0217                     	;# 
  2237  0217                     	;# 
  2238  028C                     	;# 
  2239  028D                     	;# 
  2240  028E                     	;# 
  2241  028F                     	;# 
  2242  0290                     	;# 
  2243  0291                     	;# 
  2244  0291                     	;# 
  2245  0292                     	;# 
  2246  0293                     	;# 
  2247  0298                     	;# 
  2248  0298                     	;# 
  2249  0299                     	;# 
  2250  029A                     	;# 
  2251  030C                     	;# 
  2252  030D                     	;# 
  2253  030E                     	;# 
  2254  030F                     	;# 
  2255  0310                     	;# 
  2256  0311                     	;# 
  2257  0311                     	;# 
  2258  0312                     	;# 
  2259  0313                     	;# 
  2260  038C                     	;# 
  2261  038D                     	;# 
  2262  038E                     	;# 
  2263  038F                     	;# 
  2264  0390                     	;# 
  2265  0391                     	;# 
  2266  0392                     	;# 
  2267  0393                     	;# 
  2268  0394                     	;# 
  2269  0395                     	;# 
  2270  0396                     	;# 
  2271  0397                     	;# 
  2272  0398                     	;# 
  2273  0399                     	;# 
  2274  039D                     	;# 
  2275  039E                     	;# 
  2276  039F                     	;# 
  2277  0511                     	;# 
  2278  0513                     	;# 
  2279  0515                     	;# 
  2280  051A                     	;# 
  2281  0591                     	;# 
  2282  0592                     	;# 
  2283  0592                     	;# 
  2284  0593                     	;# 
  2285  0594                     	;# 
  2286  0594                     	;# 
  2287  0595                     	;# 
  2288  0596                     	;# 
  2289  0596                     	;# 
  2290  0E91                     	;# 
  2291  0E92                     	;# 
  2292  0E93                     	;# 
  2293  0E94                     	;# 
  2294  0E95                     	;# 
  2295  0E96                     	;# 
  2296  0E97                     	;# 
  2297  0E98                     	;# 
  2298  0E99                     	;# 
  2299  0E9A                     	;# 
  2300  0E9B                     	;# 
  2301  0E9C                     	;# 
  2302  0E9D                     	;# 
  2303  0E9E                     	;# 
  2304  0E9F                     	;# 
  2305  0EA0                     	;# 
  2306  0EA1                     	;# 
  2307  0EA1                     	;# 
  2308  0EA2                     	;# 
  2309  0EA3                     	;# 
  2310  0EA3                     	;# 
  2311  0EA4                     	;# 
  2312  0EA5                     	;# 
  2313  0EA5                     	;# 
  2314  0EA6                     	;# 
  2315  0EA7                     	;# 
  2316  0EA7                     	;# 
  2317  0EA8                     	;# 
  2318  0EA9                     	;# 
  2319  0EAA                     	;# 
  2320  0EAB                     	;# 
  2321  0EAC                     	;# 
  2322  0EAD                     	;# 
  2323  0EAE                     	;# 
  2324  0EAF                     	;# 
  2325  0EB1                     	;# 
  2326  0EB2                     	;# 
  2327  0EB3                     	;# 
  2328  0EB4                     	;# 
  2329  0EB5                     	;# 
  2330  0EB6                     	;# 
  2331  0EB7                     	;# 
  2332  0EB8                     	;# 
  2333  0EB9                     	;# 
  2334  0EBA                     	;# 
  2335  0EBB                     	;# 
  2336  0EBC                     	;# 
  2337  0EBD                     	;# 
  2338  0EBE                     	;# 
  2339  0EBF                     	;# 
  2340  0EC0                     	;# 
  2341  0EC1                     	;# 
  2342  0EC1                     	;# 
  2343  0EC2                     	;# 
  2344  0EC3                     	;# 
  2345  0EC3                     	;# 
  2346  0EC4                     	;# 
  2347  0EC5                     	;# 
  2348  0EC5                     	;# 
  2349  0EC6                     	;# 
  2350  0EC7                     	;# 
  2351  0EC7                     	;# 
  2352  0EC8                     	;# 
  2353  0EC9                     	;# 
  2354  0ECA                     	;# 
  2355  0ECB                     	;# 
  2356  0ECC                     	;# 
  2357  0ECD                     	;# 
  2358  0ECE                     	;# 
  2359  0ECF                     	;# 
  2360  0ED1                     	;# 
  2361  0ED2                     	;# 
  2362  0ED3                     	;# 
  2363  0ED4                     	;# 
  2364  0ED5                     	;# 
  2365  0ED6                     	;# 
  2366  0ED7                     	;# 
  2367  0ED8                     	;# 
  2368  0ED9                     	;# 
  2369  0EDA                     	;# 
  2370  0EDB                     	;# 
  2371  0EDC                     	;# 
  2372  0EDD                     	;# 
  2373  0EDE                     	;# 
  2374  0EDF                     	;# 
  2375  0EE0                     	;# 
  2376  0EE1                     	;# 
  2377  0EE1                     	;# 
  2378  0EE2                     	;# 
  2379  0EE3                     	;# 
  2380  0EE3                     	;# 
  2381  0EE4                     	;# 
  2382  0EE5                     	;# 
  2383  0EE5                     	;# 
  2384  0EE6                     	;# 
  2385  0EE7                     	;# 
  2386  0EE7                     	;# 
  2387  0EE8                     	;# 
  2388  0EE9                     	;# 
  2389  0EEA                     	;# 
  2390  0EEB                     	;# 
  2391  0EEC                     	;# 
  2392  0EED                     	;# 
  2393  0EEE                     	;# 
  2394  0EEF                     	;# 
  2395  0F11                     	;# 
  2396  0F12                     	;# 
  2397  0F13                     	;# 
  2398  0F14                     	;# 
  2399  0F15                     	;# 
  2400  0F16                     	;# 
  2401  0F17                     	;# 
  2402  0F18                     	;# 
  2403  0F19                     	;# 
  2404  0F1A                     	;# 
  2405  0F1B                     	;# 
  2406  0F1C                     	;# 
  2407  0F1D                     	;# 
  2408  0F1E                     	;# 
  2409  0F1F                     	;# 
  2410  0F20                     	;# 
  2411  0F21                     	;# 
  2412  0F21                     	;# 
  2413  0F22                     	;# 
  2414  0F23                     	;# 
  2415  0F23                     	;# 
  2416  0F24                     	;# 
  2417  0F25                     	;# 
  2418  0F25                     	;# 
  2419  0F26                     	;# 
  2420  0F27                     	;# 
  2421  0F27                     	;# 
  2422  0F28                     	;# 
  2423  0F29                     	;# 
  2424  0F2A                     	;# 
  2425  0F2B                     	;# 
  2426  0F2C                     	;# 
  2427  0F2D                     	;# 
  2428  0F2E                     	;# 
  2429  0F2F                     	;# 
  2430  0FE4                     	;# 
  2431  0FE5                     	;# 
  2432  0FE6                     	;# 
  2433  0FE7                     	;# 
  2434  0FE8                     	;# 
  2435  0FE9                     	;# 
  2436  0FEA                     	;# 
  2437  0FEB                     	;# 
  2438  0FED                     	;# 
  2439  0FEE                     	;# 
  2440  0FEF                     	;# 
  2441  0000                     	;# 
  2442  0001                     	;# 
  2443  0002                     	;# 
  2444  0003                     	;# 
  2445  0004                     	;# 
  2446  0005                     	;# 
  2447  0006                     	;# 
  2448  0007                     	;# 
  2449  0008                     	;# 
  2450  0009                     	;# 
  2451  000A                     	;# 
  2452  000B                     	;# 
  2453  000C                     	;# 
  2454  000D                     	;# 
  2455  000E                     	;# 
  2456  000F                     	;# 
  2457  0010                     	;# 
  2458  0011                     	;# 
  2459  0012                     	;# 
  2460  0013                     	;# 
  2461  0014                     	;# 
  2462  0015                     	;# 
  2463  0016                     	;# 
  2464  0016                     	;# 
  2465  0017                     	;# 
  2466  0018                     	;# 
  2467  0019                     	;# 
  2468  001A                     	;# 
  2469  001B                     	;# 
  2470  001C                     	;# 
  2471  008C                     	;# 
  2472  008D                     	;# 
  2473  008E                     	;# 
  2474  008F                     	;# 
  2475  0090                     	;# 
  2476  0091                     	;# 
  2477  0092                     	;# 
  2478  0093                     	;# 
  2479  0094                     	;# 
  2480  0095                     	;# 
  2481  0096                     	;# 
  2482  0097                     	;# 
  2483  0098                     	;# 
  2484  0099                     	;# 
  2485  009A                     	;# 
  2486  009B                     	;# 
  2487  009B                     	;# 
  2488  009C                     	;# 
  2489  009D                     	;# 
  2490  009E                     	;# 
  2491  009F                     	;# 
  2492  010C                     	;# 
  2493  010D                     	;# 
  2494  010E                     	;# 
  2495  010F                     	;# 
  2496  0110                     	;# 
  2497  0111                     	;# 
  2498  0112                     	;# 
  2499  0113                     	;# 
  2500  0114                     	;# 
  2501  0115                     	;# 
  2502  0116                     	;# 
  2503  0117                     	;# 
  2504  0118                     	;# 
  2505  0119                     	;# 
  2506  011A                     	;# 
  2507  011B                     	;# 
  2508  011C                     	;# 
  2509  011D                     	;# 
  2510  011D                     	;# 
  2511  011D                     	;# 
  2512  011E                     	;# 
  2513  011F                     	;# 
  2514  018C                     	;# 
  2515  018D                     	;# 
  2516  018E                     	;# 
  2517  018F                     	;# 
  2518  0190                     	;# 
  2519  0191                     	;# 
  2520  0191                     	;# 
  2521  0192                     	;# 
  2522  0193                     	;# 
  2523  0193                     	;# 
  2524  0193                     	;# 
  2525  0194                     	;# 
  2526  0195                     	;# 
  2527  0196                     	;# 
  2528  0197                     	;# 
  2529  0199                     	;# 
  2530  0199                     	;# 
  2531  0199                     	;# 
  2532  019A                     	;# 
  2533  019A                     	;# 
  2534  019A                     	;# 
  2535  019B                     	;# 
  2536  019B                     	;# 
  2537  019B                     	;# 
  2538  019B                     	;# 
  2539  019B                     	;# 
  2540  019C                     	;# 
  2541  019C                     	;# 
  2542  019C                     	;# 
  2543  019D                     	;# 
  2544  019D                     	;# 
  2545  019D                     	;# 
  2546  019E                     	;# 
  2547  019E                     	;# 
  2548  019E                     	;# 
  2549  019F                     	;# 
  2550  019F                     	;# 
  2551  019F                     	;# 
  2552  019F                     	;# 
  2553  019F                     	;# 
  2554  020C                     	;# 
  2555  020D                     	;# 
  2556  020E                     	;# 
  2557  020F                     	;# 
  2558  0210                     	;# 
  2559  0211                     	;# 
  2560  0211                     	;# 
  2561  0212                     	;# 
  2562  0212                     	;# 
  2563  0213                     	;# 
  2564  0213                     	;# 
  2565  0214                     	;# 
  2566  0214                     	;# 
  2567  0215                     	;# 
  2568  0215                     	;# 
  2569  0215                     	;# 
  2570  0215                     	;# 
  2571  0216                     	;# 
  2572  0216                     	;# 
  2573  0217                     	;# 
  2574  0217                     	;# 
  2575  028C                     	;# 
  2576  028D                     	;# 
  2577  028E                     	;# 
  2578  028F                     	;# 
  2579  0290                     	;# 
  2580  0291                     	;# 
  2581  0291                     	;# 
  2582  0292                     	;# 
  2583  0293                     	;# 
  2584  0298                     	;# 
  2585  0298                     	;# 
  2586  0299                     	;# 
  2587  029A                     	;# 
  2588  030C                     	;# 
  2589  030D                     	;# 
  2590  030E                     	;# 
  2591  030F                     	;# 
  2592  0310                     	;# 
  2593  0311                     	;# 
  2594  0311                     	;# 
  2595  0312                     	;# 
  2596  0313                     	;# 
  2597  038C                     	;# 
  2598  038D                     	;# 
  2599  038E                     	;# 
  2600  038F                     	;# 
  2601  0390                     	;# 
  2602  0391                     	;# 
  2603  0392                     	;# 
  2604  0393                     	;# 
  2605  0394                     	;# 
  2606  0395                     	;# 
  2607  0396                     	;# 
  2608  0397                     	;# 
  2609  0398                     	;# 
  2610  0399                     	;# 
  2611  039D                     	;# 
  2612  039E                     	;# 
  2613  039F                     	;# 
  2614  0511                     	;# 
  2615  0513                     	;# 
  2616  0515                     	;# 
  2617  051A                     	;# 
  2618  0591                     	;# 
  2619  0592                     	;# 
  2620  0592                     	;# 
  2621  0593                     	;# 
  2622  0594                     	;# 
  2623  0594                     	;# 
  2624  0595                     	;# 
  2625  0596                     	;# 
  2626  0596                     	;# 
  2627  0E91                     	;# 
  2628  0E92                     	;# 
  2629  0E93                     	;# 
  2630  0E94                     	;# 
  2631  0E95                     	;# 
  2632  0E96                     	;# 
  2633  0E97                     	;# 
  2634  0E98                     	;# 
  2635  0E99                     	;# 
  2636  0E9A                     	;# 
  2637  0E9B                     	;# 
  2638  0E9C                     	;# 
  2639  0E9D                     	;# 
  2640  0E9E                     	;# 
  2641  0E9F                     	;# 
  2642  0EA0                     	;# 
  2643  0EA1                     	;# 
  2644  0EA1                     	;# 
  2645  0EA2                     	;# 
  2646  0EA3                     	;# 
  2647  0EA3                     	;# 
  2648  0EA4                     	;# 
  2649  0EA5                     	;# 
  2650  0EA5                     	;# 
  2651  0EA6                     	;# 
  2652  0EA7                     	;# 
  2653  0EA7                     	;# 
  2654  0EA8                     	;# 
  2655  0EA9                     	;# 
  2656  0EAA                     	;# 
  2657  0EAB                     	;# 
  2658  0EAC                     	;# 
  2659  0EAD                     	;# 
  2660  0EAE                     	;# 
  2661  0EAF                     	;# 
  2662  0EB1                     	;# 
  2663  0EB2                     	;# 
  2664  0EB3                     	;# 
  2665  0EB4                     	;# 
  2666  0EB5                     	;# 
  2667  0EB6                     	;# 
  2668  0EB7                     	;# 
  2669  0EB8                     	;# 
  2670  0EB9                     	;# 
  2671  0EBA                     	;# 
  2672  0EBB                     	;# 
  2673  0EBC                     	;# 
  2674  0EBD                     	;# 
  2675  0EBE                     	;# 
  2676  0EBF                     	;# 
  2677  0EC0                     	;# 
  2678  0EC1                     	;# 
  2679  0EC1                     	;# 
  2680  0EC2                     	;# 
  2681  0EC3                     	;# 
  2682  0EC3                     	;# 
  2683  0EC4                     	;# 
  2684  0EC5                     	;# 
  2685  0EC5                     	;# 
  2686  0EC6                     	;# 
  2687  0EC7                     	;# 
  2688  0EC7                     	;# 
  2689  0EC8                     	;# 
  2690  0EC9                     	;# 
  2691  0ECA                     	;# 
  2692  0ECB                     	;# 
  2693  0ECC                     	;# 
  2694  0ECD                     	;# 
  2695  0ECE                     	;# 
  2696  0ECF                     	;# 
  2697  0ED1                     	;# 
  2698  0ED2                     	;# 
  2699  0ED3                     	;# 
  2700  0ED4                     	;# 
  2701  0ED5                     	;# 
  2702  0ED6                     	;# 
  2703  0ED7                     	;# 
  2704  0ED8                     	;# 
  2705  0ED9                     	;# 
  2706  0EDA                     	;# 
  2707  0EDB                     	;# 
  2708  0EDC                     	;# 
  2709  0EDD                     	;# 
  2710  0EDE                     	;# 
  2711  0EDF                     	;# 
  2712  0EE0                     	;# 
  2713  0EE1                     	;# 
  2714  0EE1                     	;# 
  2715  0EE2                     	;# 
  2716  0EE3                     	;# 
  2717  0EE3                     	;# 
  2718  0EE4                     	;# 
  2719  0EE5                     	;# 
  2720  0EE5                     	;# 
  2721  0EE6                     	;# 
  2722  0EE7                     	;# 
  2723  0EE7                     	;# 
  2724  0EE8                     	;# 
  2725  0EE9                     	;# 
  2726  0EEA                     	;# 
  2727  0EEB                     	;# 
  2728  0EEC                     	;# 
  2729  0EED                     	;# 
  2730  0EEE                     	;# 
  2731  0EEF                     	;# 
  2732  0F11                     	;# 
  2733  0F12                     	;# 
  2734  0F13                     	;# 
  2735  0F14                     	;# 
  2736  0F15                     	;# 
  2737  0F16                     	;# 
  2738  0F17                     	;# 
  2739  0F18                     	;# 
  2740  0F19                     	;# 
  2741  0F1A                     	;# 
  2742  0F1B                     	;# 
  2743  0F1C                     	;# 
  2744  0F1D                     	;# 
  2745  0F1E                     	;# 
  2746  0F1F                     	;# 
  2747  0F20                     	;# 
  2748  0F21                     	;# 
  2749  0F21                     	;# 
  2750  0F22                     	;# 
  2751  0F23                     	;# 
  2752  0F23                     	;# 
  2753  0F24                     	;# 
  2754  0F25                     	;# 
  2755  0F25                     	;# 
  2756  0F26                     	;# 
  2757  0F27                     	;# 
  2758  0F27                     	;# 
  2759  0F28                     	;# 
  2760  0F29                     	;# 
  2761  0F2A                     	;# 
  2762  0F2B                     	;# 
  2763  0F2C                     	;# 
  2764  0F2D                     	;# 
  2765  0F2E                     	;# 
  2766  0F2F                     	;# 
  2767  0FE4                     	;# 
  2768  0FE5                     	;# 
  2769  0FE6                     	;# 
  2770  0FE7                     	;# 
  2771  0FE8                     	;# 
  2772  0FE9                     	;# 
  2773  0FEA                     	;# 
  2774  0FEB                     	;# 
  2775  0FED                     	;# 
  2776  0FEE                     	;# 
  2777  0FEF                     	;# 
  2778  0000                     	;# 
  2779  0001                     	;# 
  2780  0002                     	;# 
  2781  0003                     	;# 
  2782  0004                     	;# 
  2783  0005                     	;# 
  2784  0006                     	;# 
  2785  0007                     	;# 
  2786  0008                     	;# 
  2787  0009                     	;# 
  2788  000A                     	;# 
  2789  000B                     	;# 
  2790  000C                     	;# 
  2791  000D                     	;# 
  2792  000E                     	;# 
  2793  000F                     	;# 
  2794  0010                     	;# 
  2795  0011                     	;# 
  2796  0012                     	;# 
  2797  0013                     	;# 
  2798  0014                     	;# 
  2799  0015                     	;# 
  2800  0016                     	;# 
  2801  0016                     	;# 
  2802  0017                     	;# 
  2803  0018                     	;# 
  2804  0019                     	;# 
  2805  001A                     	;# 
  2806  001B                     	;# 
  2807  001C                     	;# 
  2808  008C                     	;# 
  2809  008D                     	;# 
  2810  008E                     	;# 
  2811  008F                     	;# 
  2812  0090                     	;# 
  2813  0091                     	;# 
  2814  0092                     	;# 
  2815  0093                     	;# 
  2816  0094                     	;# 
  2817  0095                     	;# 
  2818  0096                     	;# 
  2819  0097                     	;# 
  2820  0098                     	;# 
  2821  0099                     	;# 
  2822  009A                     	;# 
  2823  009B                     	;# 
  2824  009B                     	;# 
  2825  009C                     	;# 
  2826  009D                     	;# 
  2827  009E                     	;# 
  2828  009F                     	;# 
  2829  010C                     	;# 
  2830  010D                     	;# 
  2831  010E                     	;# 
  2832  010F                     	;# 
  2833  0110                     	;# 
  2834  0111                     	;# 
  2835  0112                     	;# 
  2836  0113                     	;# 
  2837  0114                     	;# 
  2838  0115                     	;# 
  2839  0116                     	;# 
  2840  0117                     	;# 
  2841  0118                     	;# 
  2842  0119                     	;# 
  2843  011A                     	;# 
  2844  011B                     	;# 
  2845  011C                     	;# 
  2846  011D                     	;# 
  2847  011D                     	;# 
  2848  011D                     	;# 
  2849  011E                     	;# 
  2850  011F                     	;# 
  2851  018C                     	;# 
  2852  018D                     	;# 
  2853  018E                     	;# 
  2854  018F                     	;# 
  2855  0190                     	;# 
  2856  0191                     	;# 
  2857  0191                     	;# 
  2858  0192                     	;# 
  2859  0193                     	;# 
  2860  0193                     	;# 
  2861  0193                     	;# 
  2862  0194                     	;# 
  2863  0195                     	;# 
  2864  0196                     	;# 
  2865  0197                     	;# 
  2866  0199                     	;# 
  2867  0199                     	;# 
  2868  0199                     	;# 
  2869  019A                     	;# 
  2870  019A                     	;# 
  2871  019A                     	;# 
  2872  019B                     	;# 
  2873  019B                     	;# 
  2874  019B                     	;# 
  2875  019B                     	;# 
  2876  019B                     	;# 
  2877  019C                     	;# 
  2878  019C                     	;# 
  2879  019C                     	;# 
  2880  019D                     	;# 
  2881  019D                     	;# 
  2882  019D                     	;# 
  2883  019E                     	;# 
  2884  019E                     	;# 
  2885  019E                     	;# 
  2886  019F                     	;# 
  2887  019F                     	;# 
  2888  019F                     	;# 
  2889  019F                     	;# 
  2890  019F                     	;# 
  2891  020C                     	;# 
  2892  020D                     	;# 
  2893  020E                     	;# 
  2894  020F                     	;# 
  2895  0210                     	;# 
  2896  0211                     	;# 
  2897  0211                     	;# 
  2898  0212                     	;# 
  2899  0212                     	;# 
  2900  0213                     	;# 
  2901  0213                     	;# 
  2902  0214                     	;# 
  2903  0214                     	;# 
  2904  0215                     	;# 
  2905  0215                     	;# 
  2906  0215                     	;# 
  2907  0215                     	;# 
  2908  0216                     	;# 
  2909  0216                     	;# 
  2910  0217                     	;# 
  2911  0217                     	;# 
  2912  028C                     	;# 
  2913  028D                     	;# 
  2914  028E                     	;# 
  2915  028F                     	;# 
  2916  0290                     	;# 
  2917  0291                     	;# 
  2918  0291                     	;# 
  2919  0292                     	;# 
  2920  0293                     	;# 
  2921  0298                     	;# 
  2922  0298                     	;# 
  2923  0299                     	;# 
  2924  029A                     	;# 
  2925  030C                     	;# 
  2926  030D                     	;# 
  2927  030E                     	;# 
  2928  030F                     	;# 
  2929  0310                     	;# 
  2930  0311                     	;# 
  2931  0311                     	;# 
  2932  0312                     	;# 
  2933  0313                     	;# 
  2934  038C                     	;# 
  2935  038D                     	;# 
  2936  038E                     	;# 
  2937  038F                     	;# 
  2938  0390                     	;# 
  2939  0391                     	;# 
  2940  0392                     	;# 
  2941  0393                     	;# 
  2942  0394                     	;# 
  2943  0395                     	;# 
  2944  0396                     	;# 
  2945  0397                     	;# 
  2946  0398                     	;# 
  2947  0399                     	;# 
  2948  039D                     	;# 
  2949  039E                     	;# 
  2950  039F                     	;# 
  2951  0511                     	;# 
  2952  0513                     	;# 
  2953  0515                     	;# 
  2954  051A                     	;# 
  2955  0591                     	;# 
  2956  0592                     	;# 
  2957  0592                     	;# 
  2958  0593                     	;# 
  2959  0594                     	;# 
  2960  0594                     	;# 
  2961  0595                     	;# 
  2962  0596                     	;# 
  2963  0596                     	;# 
  2964  0E91                     	;# 
  2965  0E92                     	;# 
  2966  0E93                     	;# 
  2967  0E94                     	;# 
  2968  0E95                     	;# 
  2969  0E96                     	;# 
  2970  0E97                     	;# 
  2971  0E98                     	;# 
  2972  0E99                     	;# 
  2973  0E9A                     	;# 
  2974  0E9B                     	;# 
  2975  0E9C                     	;# 
  2976  0E9D                     	;# 
  2977  0E9E                     	;# 
  2978  0E9F                     	;# 
  2979  0EA0                     	;# 
  2980  0EA1                     	;# 
  2981  0EA1                     	;# 
  2982  0EA2                     	;# 
  2983  0EA3                     	;# 
  2984  0EA3                     	;# 
  2985  0EA4                     	;# 
  2986  0EA5                     	;# 
  2987  0EA5                     	;# 
  2988  0EA6                     	;# 
  2989  0EA7                     	;# 
  2990  0EA7                     	;# 
  2991  0EA8                     	;# 
  2992  0EA9                     	;# 
  2993  0EAA                     	;# 
  2994  0EAB                     	;# 
  2995  0EAC                     	;# 
  2996  0EAD                     	;# 
  2997  0EAE                     	;# 
  2998  0EAF                     	;# 
  2999  0EB1                     	;# 
  3000  0EB2                     	;# 
  3001  0EB3                     	;# 
  3002  0EB4                     	;# 
  3003  0EB5                     	;# 
  3004  0EB6                     	;# 
  3005  0EB7                     	;# 
  3006  0EB8                     	;# 
  3007  0EB9                     	;# 
  3008  0EBA                     	;# 
  3009  0EBB                     	;# 
  3010  0EBC                     	;# 
  3011  0EBD                     	;# 
  3012  0EBE                     	;# 
  3013  0EBF                     	;# 
  3014  0EC0                     	;# 
  3015  0EC1                     	;# 
  3016  0EC1                     	;# 
  3017  0EC2                     	;# 
  3018  0EC3                     	;# 
  3019  0EC3                     	;# 
  3020  0EC4                     	;# 
  3021  0EC5                     	;# 
  3022  0EC5                     	;# 
  3023  0EC6                     	;# 
  3024  0EC7                     	;# 
  3025  0EC7                     	;# 
  3026  0EC8                     	;# 
  3027  0EC9                     	;# 
  3028  0ECA                     	;# 
  3029  0ECB                     	;# 
  3030  0ECC                     	;# 
  3031  0ECD                     	;# 
  3032  0ECE                     	;# 
  3033  0ECF                     	;# 
  3034  0ED1                     	;# 
  3035  0ED2                     	;# 
  3036  0ED3                     	;# 
  3037  0ED4                     	;# 
  3038  0ED5                     	;# 
  3039  0ED6                     	;# 
  3040  0ED7                     	;# 
  3041  0ED8                     	;# 
  3042  0ED9                     	;# 
  3043  0EDA                     	;# 
  3044  0EDB                     	;# 
  3045  0EDC                     	;# 
  3046  0EDD                     	;# 
  3047  0EDE                     	;# 
  3048  0EDF                     	;# 
  3049  0EE0                     	;# 
  3050  0EE1                     	;# 
  3051  0EE1                     	;# 
  3052  0EE2                     	;# 
  3053  0EE3                     	;# 
  3054  0EE3                     	;# 
  3055  0EE4                     	;# 
  3056  0EE5                     	;# 
  3057  0EE5                     	;# 
  3058  0EE6                     	;# 
  3059  0EE7                     	;# 
  3060  0EE7                     	;# 
  3061  0EE8                     	;# 
  3062  0EE9                     	;# 
  3063  0EEA                     	;# 
  3064  0EEB                     	;# 
  3065  0EEC                     	;# 
  3066  0EED                     	;# 
  3067  0EEE                     	;# 
  3068  0EEF                     	;# 
  3069  0F11                     	;# 
  3070  0F12                     	;# 
  3071  0F13                     	;# 
  3072  0F14                     	;# 
  3073  0F15                     	;# 
  3074  0F16                     	;# 
  3075  0F17                     	;# 
  3076  0F18                     	;# 
  3077  0F19                     	;# 
  3078  0F1A                     	;# 
  3079  0F1B                     	;# 
  3080  0F1C                     	;# 
  3081  0F1D                     	;# 
  3082  0F1E                     	;# 
  3083  0F1F                     	;# 
  3084  0F20                     	;# 
  3085  0F21                     	;# 
  3086  0F21                     	;# 
  3087  0F22                     	;# 
  3088  0F23                     	;# 
  3089  0F23                     	;# 
  3090  0F24                     	;# 
  3091  0F25                     	;# 
  3092  0F25                     	;# 
  3093  0F26                     	;# 
  3094  0F27                     	;# 
  3095  0F27                     	;# 
  3096  0F28                     	;# 
  3097  0F29                     	;# 
  3098  0F2A                     	;# 
  3099  0F2B                     	;# 
  3100  0F2C                     	;# 
  3101  0F2D                     	;# 
  3102  0F2E                     	;# 
  3103  0F2F                     	;# 
  3104  0FE4                     	;# 
  3105  0FE5                     	;# 
  3106  0FE6                     	;# 
  3107  0FE7                     	;# 
  3108  0FE8                     	;# 
  3109  0FE9                     	;# 
  3110  0FEA                     	;# 
  3111  0FEB                     	;# 
  3112  0FED                     	;# 
  3113  0FEE                     	;# 
  3114  0FEF                     	;# 
  3115  0000                     	;# 
  3116  0001                     	;# 
  3117  0002                     	;# 
  3118  0003                     	;# 
  3119  0004                     	;# 
  3120  0005                     	;# 
  3121  0006                     	;# 
  3122  0007                     	;# 
  3123  0008                     	;# 
  3124  0009                     	;# 
  3125  000A                     	;# 
  3126  000B                     	;# 
  3127  000C                     	;# 
  3128  000D                     	;# 
  3129  000E                     	;# 
  3130  000F                     	;# 
  3131  0010                     	;# 
  3132  0011                     	;# 
  3133  0012                     	;# 
  3134  0013                     	;# 
  3135  0014                     	;# 
  3136  0015                     	;# 
  3137  0016                     	;# 
  3138  0016                     	;# 
  3139  0017                     	;# 
  3140  0018                     	;# 
  3141  0019                     	;# 
  3142  001A                     	;# 
  3143  001B                     	;# 
  3144  001C                     	;# 
  3145  008C                     	;# 
  3146  008D                     	;# 
  3147  008E                     	;# 
  3148  008F                     	;# 
  3149  0090                     	;# 
  3150  0091                     	;# 
  3151  0092                     	;# 
  3152  0093                     	;# 
  3153  0094                     	;# 
  3154  0095                     	;# 
  3155  0096                     	;# 
  3156  0097                     	;# 
  3157  0098                     	;# 
  3158  0099                     	;# 
  3159  009A                     	;# 
  3160  009B                     	;# 
  3161  009B                     	;# 
  3162  009C                     	;# 
  3163  009D                     	;# 
  3164  009E                     	;# 
  3165  009F                     	;# 
  3166  010C                     	;# 
  3167  010D                     	;# 
  3168  010E                     	;# 
  3169  010F                     	;# 
  3170  0110                     	;# 
  3171  0111                     	;# 
  3172  0112                     	;# 
  3173  0113                     	;# 
  3174  0114                     	;# 
  3175  0115                     	;# 
  3176  0116                     	;# 
  3177  0117                     	;# 
  3178  0118                     	;# 
  3179  0119                     	;# 
  3180  011A                     	;# 
  3181  011B                     	;# 
  3182  011C                     	;# 
  3183  011D                     	;# 
  3184  011D                     	;# 
  3185  011D                     	;# 
  3186  011E                     	;# 
  3187  011F                     	;# 
  3188  018C                     	;# 
  3189  018D                     	;# 
  3190  018E                     	;# 
  3191  018F                     	;# 
  3192  0190                     	;# 
  3193  0191                     	;# 
  3194  0191                     	;# 
  3195  0192                     	;# 
  3196  0193                     	;# 
  3197  0193                     	;# 
  3198  0193                     	;# 
  3199  0194                     	;# 
  3200  0195                     	;# 
  3201  0196                     	;# 
  3202  0197                     	;# 
  3203  0199                     	;# 
  3204  0199                     	;# 
  3205  0199                     	;# 
  3206  019A                     	;# 
  3207  019A                     	;# 
  3208  019A                     	;# 
  3209  019B                     	;# 
  3210  019B                     	;# 
  3211  019B                     	;# 
  3212  019B                     	;# 
  3213  019B                     	;# 
  3214  019C                     	;# 
  3215  019C                     	;# 
  3216  019C                     	;# 
  3217  019D                     	;# 
  3218  019D                     	;# 
  3219  019D                     	;# 
  3220  019E                     	;# 
  3221  019E                     	;# 
  3222  019E                     	;# 
  3223  019F                     	;# 
  3224  019F                     	;# 
  3225  019F                     	;# 
  3226  019F                     	;# 
  3227  019F                     	;# 
  3228  020C                     	;# 
  3229  020D                     	;# 
  3230  020E                     	;# 
  3231  020F                     	;# 
  3232  0210                     	;# 
  3233  0211                     	;# 
  3234  0211                     	;# 
  3235  0212                     	;# 
  3236  0212                     	;# 
  3237  0213                     	;# 
  3238  0213                     	;# 
  3239  0214                     	;# 
  3240  0214                     	;# 
  3241  0215                     	;# 
  3242  0215                     	;# 
  3243  0215                     	;# 
  3244  0215                     	;# 
  3245  0216                     	;# 
  3246  0216                     	;# 
  3247  0217                     	;# 
  3248  0217                     	;# 
  3249  028C                     	;# 
  3250  028D                     	;# 
  3251  028E                     	;# 
  3252  028F                     	;# 
  3253  0290                     	;# 
  3254  0291                     	;# 
  3255  0291                     	;# 
  3256  0292                     	;# 
  3257  0293                     	;# 
  3258  0298                     	;# 
  3259  0298                     	;# 
  3260  0299                     	;# 
  3261  029A                     	;# 
  3262  030C                     	;# 
  3263  030D                     	;# 
  3264  030E                     	;# 
  3265  030F                     	;# 
  3266  0310                     	;# 
  3267  0311                     	;# 
  3268  0311                     	;# 
  3269  0312                     	;# 
  3270  0313                     	;# 
  3271  038C                     	;# 
  3272  038D                     	;# 
  3273  038E                     	;# 
  3274  038F                     	;# 
  3275  0390                     	;# 
  3276  0391                     	;# 
  3277  0392                     	;# 
  3278  0393                     	;# 
  3279  0394                     	;# 
  3280  0395                     	;# 
  3281  0396                     	;# 
  3282  0397                     	;# 
  3283  0398                     	;# 
  3284  0399                     	;# 
  3285  039D                     	;# 
  3286  039E                     	;# 
  3287  039F                     	;# 
  3288  0511                     	;# 
  3289  0513                     	;# 
  3290  0515                     	;# 
  3291  051A                     	;# 
  3292  0591                     	;# 
  3293  0592                     	;# 
  3294  0592                     	;# 
  3295  0593                     	;# 
  3296  0594                     	;# 
  3297  0594                     	;# 
  3298  0595                     	;# 
  3299  0596                     	;# 
  3300  0596                     	;# 
  3301  0E91                     	;# 
  3302  0E92                     	;# 
  3303  0E93                     	;# 
  3304  0E94                     	;# 
  3305  0E95                     	;# 
  3306  0E96                     	;# 
  3307  0E97                     	;# 
  3308  0E98                     	;# 
  3309  0E99                     	;# 
  3310  0E9A                     	;# 
  3311  0E9B                     	;# 
  3312  0E9C                     	;# 
  3313  0E9D                     	;# 
  3314  0E9E                     	;# 
  3315  0E9F                     	;# 
  3316  0EA0                     	;# 
  3317  0EA1                     	;# 
  3318  0EA1                     	;# 
  3319  0EA2                     	;# 
  3320  0EA3                     	;# 
  3321  0EA3                     	;# 
  3322  0EA4                     	;# 
  3323  0EA5                     	;# 
  3324  0EA5                     	;# 
  3325  0EA6                     	;# 
  3326  0EA7                     	;# 
  3327  0EA7                     	;# 
  3328  0EA8                     	;# 
  3329  0EA9                     	;# 
  3330  0EAA                     	;# 
  3331  0EAB                     	;# 
  3332  0EAC                     	;# 
  3333  0EAD                     	;# 
  3334  0EAE                     	;# 
  3335  0EAF                     	;# 
  3336  0EB1                     	;# 
  3337  0EB2                     	;# 
  3338  0EB3                     	;# 
  3339  0EB4                     	;# 
  3340  0EB5                     	;# 
  3341  0EB6                     	;# 
  3342  0EB7                     	;# 
  3343  0EB8                     	;# 
  3344  0EB9                     	;# 
  3345  0EBA                     	;# 
  3346  0EBB                     	;# 
  3347  0EBC                     	;# 
  3348  0EBD                     	;# 
  3349  0EBE                     	;# 
  3350  0EBF                     	;# 
  3351  0EC0                     	;# 
  3352  0EC1                     	;# 
  3353  0EC1                     	;# 
  3354  0EC2                     	;# 
  3355  0EC3                     	;# 
  3356  0EC3                     	;# 
  3357  0EC4                     	;# 
  3358  0EC5                     	;# 
  3359  0EC5                     	;# 
  3360  0EC6                     	;# 
  3361  0EC7                     	;# 
  3362  0EC7                     	;# 
  3363  0EC8                     	;# 
  3364  0EC9                     	;# 
  3365  0ECA                     	;# 
  3366  0ECB                     	;# 
  3367  0ECC                     	;# 
  3368  0ECD                     	;# 
  3369  0ECE                     	;# 
  3370  0ECF                     	;# 
  3371  0ED1                     	;# 
  3372  0ED2                     	;# 
  3373  0ED3                     	;# 
  3374  0ED4                     	;# 
  3375  0ED5                     	;# 
  3376  0ED6                     	;# 
  3377  0ED7                     	;# 
  3378  0ED8                     	;# 
  3379  0ED9                     	;# 
  3380  0EDA                     	;# 
  3381  0EDB                     	;# 
  3382  0EDC                     	;# 
  3383  0EDD                     	;# 
  3384  0EDE                     	;# 
  3385  0EDF                     	;# 
  3386  0EE0                     	;# 
  3387  0EE1                     	;# 
  3388  0EE1                     	;# 
  3389  0EE2                     	;# 
  3390  0EE3                     	;# 
  3391  0EE3                     	;# 
  3392  0EE4                     	;# 
  3393  0EE5                     	;# 
  3394  0EE5                     	;# 
  3395  0EE6                     	;# 
  3396  0EE7                     	;# 
  3397  0EE7                     	;# 
  3398  0EE8                     	;# 
  3399  0EE9                     	;# 
  3400  0EEA                     	;# 
  3401  0EEB                     	;# 
  3402  0EEC                     	;# 
  3403  0EED                     	;# 
  3404  0EEE                     	;# 
  3405  0EEF                     	;# 
  3406  0F11                     	;# 
  3407  0F12                     	;# 
  3408  0F13                     	;# 
  3409  0F14                     	;# 
  3410  0F15                     	;# 
  3411  0F16                     	;# 
  3412  0F17                     	;# 
  3413  0F18                     	;# 
  3414  0F19                     	;# 
  3415  0F1A                     	;# 
  3416  0F1B                     	;# 
  3417  0F1C                     	;# 
  3418  0F1D                     	;# 
  3419  0F1E                     	;# 
  3420  0F1F                     	;# 
  3421  0F20                     	;# 
  3422  0F21                     	;# 
  3423  0F21                     	;# 
  3424  0F22                     	;# 
  3425  0F23                     	;# 
  3426  0F23                     	;# 
  3427  0F24                     	;# 
  3428  0F25                     	;# 
  3429  0F25                     	;# 
  3430  0F26                     	;# 
  3431  0F27                     	;# 
  3432  0F27                     	;# 
  3433  0F28                     	;# 
  3434  0F29                     	;# 
  3435  0F2A                     	;# 
  3436  0F2B                     	;# 
  3437  0F2C                     	;# 
  3438  0F2D                     	;# 
  3439  0F2E                     	;# 
  3440  0F2F                     	;# 
  3441  0FE4                     	;# 
  3442  0FE5                     	;# 
  3443  0FE6                     	;# 
  3444  0FE7                     	;# 
  3445  0FE8                     	;# 
  3446  0FE9                     	;# 
  3447  0FEA                     	;# 
  3448  0FEB                     	;# 
  3449  0FED                     	;# 
  3450  0FEE                     	;# 
  3451  0FEF                     	;# 
  3452                           
  3453 ;; Function _EUSART_DefaultFramingErrorHandler is unused but had its address taken
  3454  0000                     
  3455 ;; Function _EUSART_DefaultOverrunErrorHandler is unused but had its address taken
  3456  0000                     
  3457 ;; Function _EUSART_DefaultErrorHandler is unused but had its address taken
  3458  0000                     
  3459                           	psect	stringtext1
  3460  0800                     __pstringtext1:
  3461  0800                     _spi_configuration:
  3462  0800  3402               	retlw	2
  3463  0801  3440               	retlw	64
  3464  0802  3401               	retlw	1
  3465  0803  3400               	retlw	0
  3466  0804                     __end_of_spi_configuration:
  3467                           
  3468                           	psect	nvBANK0
  3469  006B                     __pnvBANK0:
  3470  006B                     _EUSART_OverrunErrorHandler:
  3471  006B                     	ds	2
  3472  006D                     _EUSART_FramingErrorHandler:
  3473  006D                     	ds	2
  3474                           
  3475                           	psect	nvBANK1
  3476  00E2                     __pnvBANK1:
  3477  00E2                     _EUSART_ErrorHandler:
  3478  00E2                     	ds	2
  3479  000B                     _INTCONbits	set	11
  3480  0011                     _PIR1bits	set	17
  3481  0095                     _OPTION_REGbits	set	149
  3482  008F                     _TRISD	set	143
  3483  008E                     _TRISC	set	142
  3484  008D                     _TRISB	set	141
  3485  008C                     _TRISA	set	140
  3486  0090                     _TRISE	set	144
  3487  0097                     _WDTCON	set	151
  3488  0098                     _OSCTUNE	set	152
  3489  009A                     _OSCSTAT	set	154
  3490  0099                     _OSCCON	set	153
  3491  008E                     _TRISCbits	set	142
  3492  010C                     _LATAbits	set	268
  3493  0110                     _LATEbits	set	272
  3494  011C                     _APFCON2	set	284
  3495  011D                     _APFCON1	set	285
  3496  010E                     _LATC	set	270
  3497  010D                     _LATB	set	269
  3498  010C                     _LATA	set	268
  3499  010F                     _LATD	set	271
  3500  0110                     _LATE	set	272
  3501  0116                     _BORCON	set	278
  3502  0193                     _EEDATL	set	403
  3503  0194                     _EEDATH	set	404
  3504  0191                     _EEADRL	set	401
  3505  0192                     _EEADRH	set	402
  3506  0195                     _EECON1bits	set	405
  3507  0196                     _EECON2	set	406
  3508  018C                     _ANSELA	set	396
  3509  0190                     _ANSELE	set	400
  3510  018D                     _ANSELB	set	397
  3511  018E                     _ANSELC	set	398
  3512  018F                     _ANSELD	set	399
  3513  019A                     _TX1REG	set	410
  3514  0199                     _RC1REG	set	409
  3515  019D                     _RC1STAbits	set	413
  3516  019E                     _TX1STAbits	set	414
  3517  019C                     _SP1BRGH	set	412
  3518  019B                     _SP1BRGL	set	411
  3519  019E                     _TX1STA	set	414
  3520  019D                     _RC1STA	set	413
  3521  019F                     _BAUD1CON	set	415
  3522  020E                     _WPUC	set	526
  3523  020C                     _WPUA	set	524
  3524  020D                     _WPUB	set	525
  3525  0210                     _WPUE	set	528
  3526  020F                     _WPUD	set	527
  3527  0211                     _SSP1BUF	set	529
  3528  0216                     _SSP1CON2	set	534
  3529  0215                     _SSP1CON1bits	set	533
  3530  0212                     _SSP1ADD	set	530
  3531  0215                     _SSP1CON1	set	533
  3532  0214                     _SSP1STAT	set	532
  3533  028F                     _ODCOND	set	655
  3534  028E                     _ODCONC	set	654
  3535  028D                     _ODCONB	set	653
  3536  028C                     _ODCONA	set	652
  3537  0290                     _ODCONE	set	656
  3538  0310                     _SLRCONE	set	784
  3539  030F                     _SLRCOND	set	783
  3540  030E                     _SLRCONC	set	782
  3541  030D                     _SLRCONB	set	781
  3542  030C                     _SLRCONA	set	780
  3543  0390                     _INLVLE	set	912
  3544  038F                     _INLVLD	set	911
  3545  038E                     _INLVLC	set	910
  3546  038D                     _INLVLB	set	909
  3547  038C                     _INLVLA	set	908
  3548                           
  3549                           	psect	cinit
  3550  07FB                     start_initialization:	
  3551                           ; #config settings
  3552                           
  3553  07FB                     __initialization:
  3554                           
  3555                           ; Clear objects allocated to BANK0
  3556  07FB  0020               	movlb	0	; select bank0
  3557  07FC  01EF               	clrf	__pbssBANK0& (0+127)
  3558  07FD                     end_of_initialization:	
  3559                           ;End of C runtime variable initialization code
  3560                           
  3561  07FD                     __end_of__initialization:
  3562  07FD  0020               	movlb	0
  3563  07FE  3187  2F23         	ljmp	_main	;jump to C main() function
  3564                           
  3565                           	psect	bssBANK0
  3566  006F                     __pbssBANK0:
  3567  006F                     _eusartRxLastError:
  3568  006F                     	ds	1
  3569                           
  3570                           	psect	cstackBANK2
  3571  0120                     __pcstackBANK2:
  3572  0120                     main@recv_frame:
  3573                           
  3574                           ; 68 bytes @ 0x0
  3575  0120                     	ds	68
  3576                           
  3577                           	psect	cstackBANK1
  3578  00A0                     __pcstackBANK1:
  3579  00A0                     main@send_frame:
  3580                           
  3581                           ; 66 bytes @ 0x0
  3582  00A0                     	ds	66
  3583                           
  3584                           	psect	cstackCOMMON
  3585  0070                     __pcstackCOMMON:
  3586  0070                     ?_EUSART_SetFramingErrorHandler:
  3587  0070                     ?_EUSART_SetOverrunErrorHandler:	
  3588                           ; 1 bytes @ 0x0
  3589                           
  3590  0070                     ?_EUSART_SetErrorHandler:	
  3591                           ; 1 bytes @ 0x0
  3592                           
  3593  0070                     ?_PIN_MANAGER_Initialize:	
  3594                           ; 1 bytes @ 0x0
  3595                           
  3596  0070                     ??_PIN_MANAGER_Initialize:	
  3597                           ; 1 bytes @ 0x0
  3598                           
  3599  0070                     ?_OSCILLATOR_Initialize:	
  3600                           ; 1 bytes @ 0x0
  3601                           
  3602  0070                     ??_OSCILLATOR_Initialize:	
  3603                           ; 1 bytes @ 0x0
  3604                           
  3605  0070                     ?_WDT_Initialize:	
  3606                           ; 1 bytes @ 0x0
  3607                           
  3608  0070                     ??_WDT_Initialize:	
  3609                           ; 1 bytes @ 0x0
  3610                           
  3611  0070                     ?_ClearArray:	
  3612                           ; 1 bytes @ 0x0
  3613                           
  3614  0070                     ?_UART_preamFound:	
  3615                           ; 1 bytes @ 0x0
  3616                           
  3617  0070                     ??_UART_preamFound:	
  3618                           ; 1 bytes @ 0x0
  3619                           
  3620  0070                     ?_UART_byteRead:	
  3621                           ; 1 bytes @ 0x0
  3622                           
  3623  0070                     ??_UART_byteRead:	
  3624                           ; 1 bytes @ 0x0
  3625                           
  3626  0070                     ?_DefineError:	
  3627                           ; 1 bytes @ 0x0
  3628                           
  3629  0070                     ??_DefineError:	
  3630                           ; 1 bytes @ 0x0
  3631                           
  3632  0070                     ?_FLASH_Write:	
  3633                           ; 1 bytes @ 0x0
  3634                           
  3635  0070                     ??_FLASH_Write:	
  3636                           ; 1 bytes @ 0x0
  3637                           
  3638  0070                     ?_SPI_Initialize:	
  3639                           ; 1 bytes @ 0x0
  3640                           
  3641  0070                     ??_SPI_Initialize:	
  3642                           ; 1 bytes @ 0x0
  3643                           
  3644  0070                     ?_SPI_Open:	
  3645                           ; 1 bytes @ 0x0
  3646                           
  3647  0070                     ??_SPI_Open:	
  3648                           ; 1 bytes @ 0x0
  3649                           
  3650  0070                     ?_SPI_Close:	
  3651                           ; 1 bytes @ 0x0
  3652                           
  3653  0070                     ??_SPI_Close:	
  3654                           ; 1 bytes @ 0x0
  3655                           
  3656  0070                     ?_SPI_ExchangeByte:	
  3657                           ; 1 bytes @ 0x0
  3658                           
  3659  0070                     ??_SPI_ExchangeByte:	
  3660                           ; 1 bytes @ 0x0
  3661                           
  3662  0070                     ?_EUSART_Initialize:	
  3663                           ; 1 bytes @ 0x0
  3664                           
  3665  0070                     ?_EUSART_is_tx_ready:	
  3666                           ; 1 bytes @ 0x0
  3667                           
  3668  0070                     ??_EUSART_is_tx_ready:	
  3669                           ; 1 bytes @ 0x0
  3670                           
  3671  0070                     ?_EUSART_is_rx_ready:	
  3672                           ; 1 bytes @ 0x0
  3673                           
  3674  0070                     ??_EUSART_is_rx_ready:	
  3675                           ; 1 bytes @ 0x0
  3676                           
  3677  0070                     ?_EUSART_is_tx_done:	
  3678                           ; 1 bytes @ 0x0
  3679                           
  3680  0070                     ??_EUSART_is_tx_done:	
  3681                           ; 1 bytes @ 0x0
  3682                           
  3683  0070                     ?_EUSART_Read:	
  3684                           ; 1 bytes @ 0x0
  3685                           
  3686  0070                     ??_EUSART_Read:	
  3687                           ; 1 bytes @ 0x0
  3688                           
  3689  0070                     ?_EUSART_Write:	
  3690                           ; 1 bytes @ 0x0
  3691                           
  3692  0070                     ??_EUSART_Write:	
  3693                           ; 1 bytes @ 0x0
  3694                           
  3695  0070                     ?_SYSTEM_Initialize:	
  3696                           ; 1 bytes @ 0x0
  3697                           
  3698  0070                     ?_main:	
  3699                           ; 1 bytes @ 0x0
  3700                           
  3701  0070                     ?_UnlockFlashWrite:	
  3702                           ; 1 bytes @ 0x0
  3703                           
  3704  0070                     ??_UnlockFlashWrite:	
  3705                           ; 1 bytes @ 0x0
  3706                           
  3707  0070                     ?_FLASH_Read:	
  3708                           ; 1 bytes @ 0x0
  3709                           
  3710  0070                     SPI_ExchangeByte@data:	
  3711                           ; 2 bytes @ 0x0
  3712                           
  3713  0070                     _EUSART_is_tx_ready$283:	
  3714                           ; 1 bytes @ 0x0
  3715                           
  3716  0070                     EUSART_Write@txData:	
  3717                           ; 1 bytes @ 0x0
  3718                           
  3719  0070                     EUSART_SetFramingErrorHandler@interruptHandler:	
  3720                           ; 1 bytes @ 0x0
  3721                           
  3722  0070                     EUSART_SetOverrunErrorHandler@interruptHandler:	
  3723                           ; 2 bytes @ 0x0
  3724                           
  3725  0070                     EUSART_SetErrorHandler@interruptHandler:	
  3726                           ; 2 bytes @ 0x0
  3727                           
  3728  0070                     ClearArray@array:	
  3729                           ; 2 bytes @ 0x0
  3730                           
  3731  0070                     FLASH_Read@addr:	
  3732                           ; 2 bytes @ 0x0
  3733                           
  3734                           
  3735                           ; 2 bytes @ 0x0
  3736  0070                     	ds	1
  3737  0071                     ?_UART_dataWrite:
  3738  0071                     ?_SPI_WriteBlock:	
  3739                           ; 1 bytes @ 0x1
  3740                           
  3741  0071                     ?_SPI_ReadBlock:	
  3742                           ; 1 bytes @ 0x1
  3743                           
  3744  0071                     DefineError@send_frame:	
  3745                           ; 1 bytes @ 0x1
  3746                           
  3747  0071                     UART_dataWrite@size:	
  3748                           ; 1 bytes @ 0x1
  3749                           
  3750  0071                     UART_preamFound@byte:	
  3751                           ; 1 bytes @ 0x1
  3752                           
  3753  0071                     SPI_WriteBlock@blockSize:	
  3754                           ; 1 bytes @ 0x1
  3755                           
  3756  0071                     SPI_ReadBlock@blockSize:	
  3757                           ; 2 bytes @ 0x1
  3758                           
  3759                           
  3760                           ; 2 bytes @ 0x1
  3761  0071                     	ds	1
  3762  0072                     ??_EUSART_SetFramingErrorHandler:
  3763  0072                     ??_EUSART_SetOverrunErrorHandler:	
  3764                           ; 1 bytes @ 0x2
  3765                           
  3766  0072                     ??_EUSART_SetErrorHandler:	
  3767                           ; 1 bytes @ 0x2
  3768                           
  3769  0072                     ??_ClearArray:	
  3770                           ; 1 bytes @ 0x2
  3771                           
  3772  0072                     ??_UART_dataWrite:	
  3773                           ; 1 bytes @ 0x2
  3774                           
  3775  0072                     ??_FLASH_Read:	
  3776                           ; 1 bytes @ 0x2
  3777                           
  3778  0072                     ??_EUSART_Initialize:	
  3779                           ; 1 bytes @ 0x2
  3780                           
  3781  0072                     ??_SYSTEM_Initialize:	
  3782                           ; 1 bytes @ 0x2
  3783                           
  3784                           
  3785                           ; 1 bytes @ 0x2
  3786  0072                     	ds	1
  3787  0073                     ??_SPI_WriteBlock:
  3788  0073                     ??_SPI_ReadBlock:	
  3789                           ; 1 bytes @ 0x3
  3790                           
  3791  0073                     SPI_Open@spiUniqueConfiguration:	
  3792                           ; 1 bytes @ 0x3
  3793                           
  3794  0073                     UART_dataWrite@data_ptr:	
  3795                           ; 1 bytes @ 0x3
  3796                           
  3797                           
  3798                           ; 1 bytes @ 0x3
  3799  0073                     	ds	1
  3800  0074                     SPI_WriteBlock@data:
  3801  0074                     SPI_ReadBlock@block:	
  3802                           ; 1 bytes @ 0x4
  3803                           
  3804  0074                     ClearArray@i:	
  3805                           ; 1 bytes @ 0x4
  3806                           
  3807  0074                     UART_dataWrite@i:	
  3808                           ; 1 bytes @ 0x4
  3809                           
  3810  0074                     FLASH_Read@INR_state:	
  3811                           ; 1 bytes @ 0x4
  3812                           
  3813                           
  3814                           ; 1 bytes @ 0x4
  3815  0074                     	ds	1
  3816  0075                     ?_ReadFromMem:
  3817  0075                     SPI_WriteBlock@block:	
  3818                           ; 1 bytes @ 0x5
  3819                           
  3820  0075                     SPI_ReadBlock@data:	
  3821                           ; 1 bytes @ 0x5
  3822                           
  3823  0075                     ReadFromMem@send_frame:	
  3824                           ; 1 bytes @ 0x5
  3825                           
  3826                           
  3827                           ; 1 bytes @ 0x5
  3828  0075                     	ds	1
  3829  0076                     ??_ReadFromMem:
  3830  0076                     ?_ReadFromSerialEEPROM:	
  3831                           ; 1 bytes @ 0x6
  3832                           
  3833  0076                     ?_WriteToSerialEEPROM:	
  3834                           ; 1 bytes @ 0x6
  3835                           
  3836  0076                     ReadFromSerialEEPROM@send_frame:	
  3837                           ; 1 bytes @ 0x6
  3838                           
  3839  0076                     WriteToSerialEEPROM@send_frame:	
  3840                           ; 1 bytes @ 0x6
  3841                           
  3842                           
  3843                           ; 1 bytes @ 0x6
  3844  0076                     	ds	1
  3845  0077                     ??_ReadFromSerialEEPROM:
  3846  0077                     ??_WriteToSerialEEPROM:	
  3847                           ; 1 bytes @ 0x7
  3848                           
  3849  0077                     FLASH_Write@INR_state:	
  3850                           ; 1 bytes @ 0x7
  3851                           
  3852                           
  3853                           ; 1 bytes @ 0x7
  3854  0077                     	ds	1
  3855  0078                     FLASH_Write@writeAddr:
  3856                           
  3857                           ; 2 bytes @ 0x8
  3858  0078                     	ds	2
  3859  007A                     FLASH_Write@i:
  3860                           
  3861                           ; 1 bytes @ 0xA
  3862  007A                     	ds	1
  3863  007B                     FLASH_Write@buffer:
  3864                           
  3865                           ; 1 bytes @ 0xB
  3866  007B                     	ds	1
  3867  007C                     ?_WriteToMem:
  3868  007C                     WriteToMem@send_frame:	
  3869                           ; 1 bytes @ 0xC
  3870                           
  3871                           
  3872                           ; 1 bytes @ 0xC
  3873  007C                     	ds	1
  3874  007D                     ??_WriteToMem:
  3875                           
  3876                           ; 1 bytes @ 0xD
  3877  007D                     	ds	1
  3878                           
  3879                           	psect	cstackBANK0
  3880  0020                     __pcstackBANK0:
  3881  0020                     WriteToMem@recv_frame:
  3882  0020                     ReadFromMem@def_addr:	
  3883                           ; 1 bytes @ 0x0
  3884                           
  3885  0020                     ReadFromSerialEEPROM@buffer:	
  3886                           ; 2 bytes @ 0x0
  3887                           
  3888  0020                     WriteToSerialEEPROM@buffer:	
  3889                           ; 64 bytes @ 0x0
  3890                           
  3891                           
  3892                           ; 67 bytes @ 0x0
  3893  0020                     	ds	1
  3894  0021                     WriteToMem@result:
  3895                           
  3896                           ; 1 bytes @ 0x1
  3897  0021                     	ds	1
  3898  0022                     ReadFromMem@recv_frame:
  3899                           
  3900                           ; 1 bytes @ 0x2
  3901  0022                     	ds	1
  3902  0023                     ReadFromMem@dbyte:
  3903                           
  3904                           ; 2 bytes @ 0x3
  3905  0023                     	ds	2
  3906  0025                     ReadFromMem@i:
  3907                           
  3908                           ; 1 bytes @ 0x5
  3909  0025                     	ds	59
  3910  0060                     ReadFromSerialEEPROM@SPI1:
  3911                           
  3912                           ; 1 bytes @ 0x40
  3913  0060                     	ds	1
  3914  0061                     ReadFromSerialEEPROM@recv_frame:
  3915                           
  3916                           ; 1 bytes @ 0x41
  3917  0061                     	ds	1
  3918  0062                     ReadFromSerialEEPROM@i:
  3919                           
  3920                           ; 1 bytes @ 0x42
  3921  0062                     	ds	1
  3922  0063                     WriteToSerialEEPROM@SPI1:
  3923                           
  3924                           ; 1 bytes @ 0x43
  3925  0063                     	ds	1
  3926  0064                     WriteToSerialEEPROM@i:
  3927                           
  3928                           ; 1 bytes @ 0x44
  3929  0064                     	ds	1
  3930  0065                     WriteToSerialEEPROM@recv_frame:
  3931                           
  3932                           ; 1 bytes @ 0x45
  3933  0065                     	ds	1
  3934  0066                     ??_main:
  3935                           
  3936                           ; 1 bytes @ 0x46
  3937  0066                     	ds	3
  3938  0069                     main@i:
  3939                           
  3940                           ; 1 bytes @ 0x49
  3941  0069                     	ds	1
  3942  006A                     main@processing_status:
  3943                           
  3944                           ; 1 bytes @ 0x4A
  3945  006A                     	ds	1
  3946                           
  3947                           	psect	maintext
  3948  0723                     __pmaintext:	
  3949 ;;
  3950 ;;Main: autosize = 0, tempsize = 2, incstack = 0, save=0
  3951 ;;
  3952 ;; *************** function _main *****************
  3953 ;; Defined at:
  3954 ;;		line 49 in file "main.c"
  3955 ;; Parameters:    Size  Location     Type
  3956 ;;		None
  3957 ;; Auto vars:     Size  Location     Type
  3958 ;;  recv_frame     68    0[BANK2 ] unsigned char [68]
  3959 ;;  send_frame     66    0[BANK1 ] unsigned char [66]
  3960 ;;  processing_s    1   74[BANK0 ] _Bool 
  3961 ;;  i               1   73[BANK0 ] unsigned char 
  3962 ;;  byte            1    0        unsigned char 
  3963 ;; Return value:  Size  Location     Type
  3964 ;;                  1    wreg      void 
  3965 ;; Registers used:
  3966 ;;		wreg, fsr0l, fsr0h, fsr1l, fsr1h, status,2, status,0, pclath, cstack
  3967 ;; Tracked objects:
  3968 ;;		On entry : B1F/0
  3969 ;;		On exit  : 0/0
  3970 ;;		Unchanged: 0/0
  3971 ;; Data sizes:     COMMON   BANK0   BANK1   BANK2   BANK3   BANK4   BANK5   BANK6   BANK7   BANK8   BANK9  BANK10  BANK1
      +1  BANK12  BANK13  BANK14  BANK15  BANK16  BANK17  BANK18  BANK19  BANK20  BANK21  BANK22  BANK23  BANK24  BANK25
  3972 ;;      Params:         0       0       0       0       0       0       0       0       0       0       0       0       
      +0       0       0       0       0       0       0       0       0       0       0       0       0       0       0
  3973 ;;      Locals:         0       3      66      68       0       0       0       0       0       0       0       0       
      +0       0       0       0       0       0       0       0       0       0       0       0       0       0       0
  3974 ;;      Temps:          0       2       0       0       0       0       0       0       0       0       0       0       
      +0       0       0       0       0       0       0       0       0       0       0       0       0       0       0
  3975 ;;      Totals:         0       5      66      68       0       0       0       0       0       0       0       0       
      +0       0       0       0       0       0       0       0       0       0       0       0       0       0       0
  3976 ;;Total ram usage:      139 bytes
  3977 ;; Hardware stack levels required when called:    3
  3978 ;; This function calls:
  3979 ;;		_ClearArray
  3980 ;;		_DefineError
  3981 ;;		_ReadFromMem
  3982 ;;		_ReadFromSerialEEPROM
  3983 ;;		_SYSTEM_Initialize
  3984 ;;		_UART_byteRead
  3985 ;;		_UART_dataWrite
  3986 ;;		_UART_preamFound
  3987 ;;		_WriteToMem
  3988 ;;		_WriteToSerialEEPROM
  3989 ;; This function is called by:
  3990 ;;		Startup code after reset
  3991 ;; This function uses a non-reentrant model
  3992 ;;
  3993                           
  3994                           
  3995                           ;psect for function _main
  3996  0723                     _main:
  3997  0723                     l2171:	
  3998                           ;incstack = 0
  3999                           ; Regs used in _main: [wreg-fsr1h+status,2+status,0+pclath+cstack]
  4000                           
  4001                           
  4002                           ;main.c: 53:     SYSTEM_Initialize();
  4003  0723  3183  232A  3187   	fcall	_SYSTEM_Initialize
  4004  0726                     l2173:
  4005  0726                     l2175:
  4006  0726                     l2177:
  4007  0726                     l2179:
  4008                           
  4009                           ;main.c: 61:     ClearArray(recv_frame);
  4010  0726  3020               	movlw	low main@recv_frame
  4011  0727  00F0               	movwf	ClearArray@array
  4012  0728  3001               	movlw	high main@recv_frame
  4013  0729  00F1               	movwf	ClearArray@array+1
  4014  072A  3183  234B  3187   	fcall	_ClearArray
  4015  072D                     l2181:
  4016                           
  4017                           ;main.c: 62:     ClearArray(send_frame);
  4018  072D  30A0               	movlw	low main@send_frame
  4019  072E  00F0               	movwf	ClearArray@array
  4020  072F  3000               	movlw	high main@send_frame
  4021  0730  00F1               	movwf	ClearArray@array+1
  4022  0731  3183  234B  3187   	fcall	_ClearArray
  4023  0734                     l2183:
  4024                           
  4025                           ;main.c: 65:     TRISE = 0x00;
  4026  0734  0021               	movlb	1	; select bank1
  4027  0735  0190               	clrf	16	;volatile
  4028  0736                     l2185:
  4029                           
  4030                           ;main.c: 66:     TRISA = 0x00;
  4031  0736  018C               	clrf	12	;volatile
  4032  0737                     l2187:
  4033                           
  4034                           ;main.c: 68:     LATE = 0x00;
  4035  0737  0022               	movlb	2	; select bank2
  4036  0738  0190               	clrf	16	;volatile
  4037  0739                     l2189:
  4038                           
  4039                           ;main.c: 69:     LATA = 0xFF;
  4040  0739  30FF               	movlw	255
  4041  073A  008C               	movwf	12	;volatile
  4042  073B                     l2191:
  4043  073B  1410               	bsf	16,0	;volatile
  4044  073C                     l297:	
  4045                           ;main.c: 85:     while (1)
  4046                           
  4047  073C  0064               	clrwdt	;# 
  4048  073D                     l2193:
  4049                           
  4050                           ;main.c: 91:         if (UART_preamFound())
  4051  073D  3183  2362  3187   	fcall	_UART_preamFound
  4052  0740  3A00               	xorlw	0
  4053  0741  1903               	skipnz
  4054  0742  2F44               	goto	u591
  4055  0743  2F45               	goto	u590
  4056  0744                     u591:
  4057  0744  2F3C               	goto	l297
  4058  0745                     u590:
  4059  0745                     l299:	
  4060                           ;main.c: 92:             {;main.c: 93:             do { LATEbits.LATE1 = 1; } while(0);
  4061                           
  4062  0745  0022               	movlb	2	; select bank2
  4063  0746  1490               	bsf	16,1	;volatile
  4064  0747                     l300:
  4065  0747  0064               	clrwdt	;# 
  4066  0748                     l2195:
  4067                           
  4068                           ;main.c: 96:             recv_frame[0] = UART_byteRead();
  4069  0748  3182  22B9  3187   	fcall	_UART_byteRead
  4070  074B  0020               	movlb	0	; select bank0
  4071  074C  00E6               	movwf	??_main
  4072  074D  0866               	movf	??_main,w
  4073  074E  0022               	movlb	2	; select bank2
  4074  074F  00A0               	movwf	main@recv_frame^(0+256)
  4075  0750                     l2197:
  4076                           
  4077                           ;main.c: 97:             if ((recv_frame[0] > 68) || (recv_frame[0] == 0x00 ))
  4078  0750  3045               	movlw	69
  4079  0751  0220               	subwf	main@recv_frame^(0+256),w
  4080  0752  1803               	skipnc
  4081  0753  2F55               	goto	u601
  4082  0754  2F56               	goto	u600
  4083  0755                     u601:
  4084  0755  2F5B               	goto	l2201
  4085  0756                     u600:
  4086  0756                     l2199:
  4087  0756  0820               	movf	main@recv_frame^(0+256),w
  4088  0757  1D03               	btfss	3,2
  4089  0758  2F5A               	goto	u611
  4090  0759  2F5B               	goto	u610
  4091  075A                     u611:
  4092  075A  2F5D               	goto	l301
  4093  075B                     u610:
  4094  075B                     l2201:
  4095                           
  4096                           ;main.c: 98:                 {;main.c: 99:                 recv_frame[1] = 0x00;
  4097  075B  01A1               	clrf	(main@recv_frame^(0+256)+1)
  4098                           
  4099                           ;main.c: 100:                 }
  4100  075C  2FB7               	goto	l2219
  4101  075D                     l301:	
  4102                           ;main.c: 101:             else{
  4103                           
  4104                           
  4105                           ;main.c: 102:                 for (i = 1; i != recv_frame[0]; i++)
  4106  075D  0020               	movlb	0	; select bank0
  4107  075E  01E9               	clrf	main@i
  4108  075F  0AE9               	incf	main@i,f
  4109  0760  2F71               	goto	l2207
  4110  0761                     l2203:
  4111                           
  4112                           ;main.c: 103:                     {;main.c: 104:                     recv_frame[i] = UAR
      +                          T_byteRead();
  4113  0761  3182  22B9  3187   	fcall	_UART_byteRead
  4114  0764  0020               	movlb	0	; select bank0
  4115  0765  00E6               	movwf	??_main
  4116  0766  0869               	movf	main@i,w
  4117  0767  3E20               	addlw	(low (main@recv_frame| (0+256)))& (0+255)
  4118  0768  0086               	movwf	6
  4119  0769  3001               	movlw	1	; select bank2/3
  4120  076A  0087               	movwf	7
  4121  076B  0866               	movf	??_main,w
  4122  076C  0081               	movwf	1
  4123  076D                     l2205:
  4124                           
  4125                           ;main.c: 105:                     }
  4126  076D  3001               	movlw	1
  4127  076E  00E6               	movwf	??_main
  4128  076F  0866               	movf	??_main,w
  4129  0770  07E9               	addwf	main@i,f
  4130  0771                     l2207:
  4131  0771  0022               	movlb	2	; select bank2
  4132  0772  0820               	movf	main@recv_frame^(0+256),w
  4133  0773  0020               	movlb	0	; select bank0
  4134  0774  0669               	xorwf	main@i,w
  4135  0775  1D03               	skipz
  4136  0776  2F78               	goto	u621
  4137  0777  2F79               	goto	u620
  4138  0778                     u621:
  4139  0778  2F61               	goto	l2203
  4140  0779                     u620:
  4141  0779  2FB7               	goto	l2219
  4142  077A                     l2209:
  4143                           
  4144                           ;main.c: 117:                     processing_status = ReadFromMem(recv_frame, send_frame
      +                          );
  4145  077A  30A0               	movlw	(low (main@send_frame| 0))& (0+255)
  4146  077B  00E6               	movwf	??_main
  4147  077C  0866               	movf	??_main,w
  4148  077D  00F5               	movwf	ReadFromMem@send_frame
  4149  077E  3020               	movlw	(low (main@recv_frame| (0+256)))& (0+255)
  4150  077F  3185  253A  3187   	fcall	_ReadFromMem
  4151  0782  0020               	movlb	0	; select bank0
  4152  0783  00E7               	movwf	??_main+1
  4153  0784  0867               	movf	??_main+1,w
  4154  0785  00EA               	movwf	main@processing_status
  4155                           
  4156                           ;main.c: 118:                     break;
  4157  0786  2FCF               	goto	l2221
  4158  0787                     l2211:
  4159                           
  4160                           ;main.c: 125:                     processing_status = WriteToMem(recv_frame, send_frame)
      +                          ;
  4161  0787  30A0               	movlw	(low (main@send_frame| 0))& (0+255)
  4162  0788  00E6               	movwf	??_main
  4163  0789  0866               	movf	??_main,w
  4164  078A  00FC               	movwf	WriteToMem@send_frame
  4165  078B  3020               	movlw	(low (main@recv_frame| (0+256)))& (0+255)
  4166  078C  3183  2398  3187   	fcall	_WriteToMem
  4167  078F  0020               	movlb	0	; select bank0
  4168  0790  00E7               	movwf	??_main+1
  4169  0791  0867               	movf	??_main+1,w
  4170  0792  00EA               	movwf	main@processing_status
  4171                           
  4172                           ;main.c: 126:                     break;
  4173  0793  2FCF               	goto	l2221
  4174  0794                     l2213:
  4175                           
  4176                           ;main.c: 130:                     processing_status = ReadFromSerialEEPROM(recv_frame, s
      +                          end_frame);
  4177  0794  30A0               	movlw	(low (main@send_frame| 0))& (0+255)
  4178  0795  00E6               	movwf	??_main
  4179  0796  0866               	movf	??_main,w
  4180  0797  00F6               	movwf	ReadFromSerialEEPROM@send_frame
  4181  0798  3020               	movlw	(low (main@recv_frame| (0+256)))& (0+255)
  4182  0799  3184  24DF  3187   	fcall	_ReadFromSerialEEPROM
  4183  079C  0020               	movlb	0	; select bank0
  4184  079D  00E7               	movwf	??_main+1
  4185  079E  0867               	movf	??_main+1,w
  4186  079F  00EA               	movwf	main@processing_status
  4187                           
  4188                           ;main.c: 131:                     break;
  4189  07A0  2FCF               	goto	l2221
  4190  07A1                     l2215:
  4191                           
  4192                           ;main.c: 134:                     processing_status = WriteToSerialEEPROM(recv_frame, se
      +                          nd_frame);
  4193  07A1  30A0               	movlw	(low (main@send_frame| 0))& (0+255)
  4194  07A2  00E6               	movwf	??_main
  4195  07A3  0866               	movf	??_main,w
  4196  07A4  00F6               	movwf	WriteToSerialEEPROM@send_frame
  4197  07A5  3020               	movlw	(low (main@recv_frame| (0+256)))& (0+255)
  4198  07A6  3186  2671  3187   	fcall	_WriteToSerialEEPROM
  4199  07A9  0020               	movlb	0	; select bank0
  4200  07AA  00E7               	movwf	??_main+1
  4201  07AB  0867               	movf	??_main+1,w
  4202  07AC  00EA               	movwf	main@processing_status
  4203                           
  4204                           ;main.c: 135:                     break;
  4205  07AD  2FCF               	goto	l2221
  4206  07AE                     l2217:
  4207                           
  4208                           ;main.c: 138:                     processing_status = DefineError(send_frame);
  4209  07AE  30A0               	movlw	(low (main@send_frame| 0))& (0+255)
  4210  07AF  3183  233A  3187   	fcall	_DefineError
  4211  07B2  0020               	movlb	0	; select bank0
  4212  07B3  00E6               	movwf	??_main
  4213  07B4  0866               	movf	??_main,w
  4214  07B5  00EA               	movwf	main@processing_status
  4215                           
  4216                           ;main.c: 139:                 }
  4217  07B6  2FCF               	goto	l2221
  4218  07B7                     l2219:
  4219  07B7  0022               	movlb	2	; select bank2
  4220  07B8  0821               	movf	(main@recv_frame^(0+256)+1),w
  4221  07B9  0020               	movlb	0	; select bank0
  4222  07BA  00E6               	movwf	??_main
  4223  07BB  01E7               	clrf	??_main+1
  4224                           
  4225                           ; Switch on 2 bytes has been partitioned into a top level switch of size 1, and 1 sub-sw
      +                          itches
  4226                           ; Switch size 1, requested type "simple"
  4227                           ; Number of cases is 1, Range of values is 0 to 0
  4228                           ; switch strategies available:
  4229                           ; Name         Instructions Cycles
  4230                           ; simple_byte            4     3 (average)
  4231                           ; direct_byte            8     6 (fixed)
  4232                           ; jumptable            260     6 (fixed)
  4233                           ;	Chosen strategy is simple_byte
  4234  07BC  0867               	movf	??_main+1,w
  4235  07BD  3A00               	xorlw	0	; case 0
  4236  07BE  1903               	skipnz
  4237  07BF  2FC1               	goto	l2259
  4238  07C0  2FAE               	goto	l2217
  4239  07C1                     l2259:
  4240                           
  4241                           ; Switch size 1, requested type "simple"
  4242                           ; Number of cases is 4, Range of values is 2 to 20
  4243                           ; switch strategies available:
  4244                           ; Name         Instructions Cycles
  4245                           ; simple_byte           13     7 (average)
  4246                           ; direct_byte           47     9 (fixed)
  4247                           ; jumptable            263     9 (fixed)
  4248                           ;	Chosen strategy is simple_byte
  4249  07C1  0866               	movf	??_main,w
  4250  07C2  3A02               	xorlw	2	; case 2
  4251  07C3  1903               	skipnz
  4252  07C4  2F7A               	goto	l2209
  4253  07C5  3A06               	xorlw	6	; case 4
  4254  07C6  1903               	skipnz
  4255  07C7  2F87               	goto	l2211
  4256  07C8  3A16               	xorlw	22	; case 18
  4257  07C9  1903               	skipnz
  4258  07CA  2F94               	goto	l2213
  4259  07CB  3A06               	xorlw	6	; case 20
  4260  07CC  1903               	skipnz
  4261  07CD  2FA1               	goto	l2215
  4262  07CE  2FAE               	goto	l2217
  4263  07CF                     l2221:
  4264                           
  4265                           ;main.c: 142:             if (!((processing_status == 1) && (send_frame[0] != 0x00)))
  4266  07CF  036A               	decf	main@processing_status,w
  4267  07D0  1D03               	btfss	3,2
  4268  07D1  2FD3               	goto	u631
  4269  07D2  2FD4               	goto	u630
  4270  07D3                     u631:
  4271  07D3  2FDA               	goto	l2225
  4272  07D4                     u630:
  4273  07D4                     l2223:
  4274  07D4  0021               	movlb	1	; select bank1
  4275  07D5  0820               	movf	main@send_frame^(0+128),w
  4276  07D6  1D03               	btfss	3,2
  4277  07D7  2FD9               	goto	u641
  4278  07D8  2FDA               	goto	u640
  4279  07D9                     u641:
  4280  07D9  2FDE               	goto	l315
  4281  07DA                     u640:
  4282  07DA                     l2225:
  4283                           
  4284                           ;main.c: 143:                 {;main.c: 144:                 DefineError(send_frame);
  4285  07DA  30A0               	movlw	(low (main@send_frame| 0))& (0+255)
  4286  07DB  3183  233A  3187   	fcall	_DefineError
  4287  07DE                     l315:	
  4288                           ;main.c: 145:                 }
  4289                           
  4290                           
  4291                           ;main.c: 147:                 UART_dataWrite(send_frame, send_frame[0]);
  4292  07DE  0021               	movlb	1	; select bank1
  4293  07DF  0820               	movf	main@send_frame^(0+128),w
  4294  07E0  0020               	movlb	0	; select bank0
  4295  07E1  00E6               	movwf	??_main
  4296  07E2  0866               	movf	??_main,w
  4297  07E3  00F1               	movwf	UART_dataWrite@size
  4298  07E4  30A0               	movlw	(low (main@send_frame| 0))& (0+255)
  4299  07E5  3184  2424  3187   	fcall	_UART_dataWrite
  4300  07E8                     l2227:
  4301  07E8                     l2229:
  4302                           
  4303                           ;main.c: 149:             ClearArray(recv_frame);
  4304  07E8  3020               	movlw	low main@recv_frame
  4305  07E9  00F0               	movwf	ClearArray@array
  4306  07EA  3001               	movlw	high main@recv_frame
  4307  07EB  00F1               	movwf	ClearArray@array+1
  4308  07EC  3183  234B  3187   	fcall	_ClearArray
  4309  07EF                     l2231:
  4310                           
  4311                           ;main.c: 150:             ClearArray(send_frame);
  4312  07EF  30A0               	movlw	low main@send_frame
  4313  07F0  00F0               	movwf	ClearArray@array
  4314  07F1  3000               	movlw	high main@send_frame
  4315  07F2  00F1               	movwf	ClearArray@array+1
  4316  07F3  3183  234B  3187   	fcall	_ClearArray
  4317  07F6                     l2233:
  4318  07F6  0022               	movlb	2	; select bank2
  4319  07F7  1090               	bcf	16,1	;volatile
  4320  07F8  2F3C               	goto	l297
  4321  07F9  3180  2802         	ljmp	start
  4322  07FB                     __end_of_main:
  4323                           
  4324                           	psect	text1
  4325  0671                     __ptext1:	
  4326 ;; *************** function _WriteToSerialEEPROM *****************
  4327 ;; Defined at:
  4328 ;;		line 30 in file "apps/src/eeprom_25lc512.c"
  4329 ;; Parameters:    Size  Location     Type
  4330 ;;  recv_frame      1    wreg     PTR unsigned char 
  4331 ;;		 -> main@recv_frame(68), 
  4332 ;;  send_frame      1    6[COMMON] PTR unsigned char 
  4333 ;;		 -> main@send_frame(66), 
  4334 ;; Auto vars:     Size  Location     Type
  4335 ;;  recv_frame      1   69[BANK0 ] PTR unsigned char 
  4336 ;;		 -> main@recv_frame(68), 
  4337 ;;  buffer         67    0[BANK0 ] unsigned char [67]
  4338 ;;  i               1   68[BANK0 ] unsigned char 
  4339 ;;  SPI1            1   67[BANK0 ] enum E6331
  4340 ;; Return value:  Size  Location     Type
  4341 ;;                  1    wreg      _Bool 
  4342 ;; Registers used:
  4343 ;;		wreg, fsr0l, fsr0h, fsr1l, fsr1h, status,2, status,0, pclath, cstack
  4344 ;; Tracked objects:
  4345 ;;		On entry : 0/0
  4346 ;;		On exit  : 0/0
  4347 ;;		Unchanged: 0/0
  4348 ;; Data sizes:     COMMON   BANK0   BANK1   BANK2   BANK3   BANK4   BANK5   BANK6   BANK7   BANK8   BANK9  BANK10  BANK1
      +1  BANK12  BANK13  BANK14  BANK15  BANK16  BANK17  BANK18  BANK19  BANK20  BANK21  BANK22  BANK23  BANK24  BANK25
  4349 ;;      Params:         1       0       0       0       0       0       0       0       0       0       0       0       
      +0       0       0       0       0       0       0       0       0       0       0       0       0       0       0
  4350 ;;      Locals:         0      70       0       0       0       0       0       0       0       0       0       0       
      +0       0       0       0       0       0       0       0       0       0       0       0       0       0       0
  4351 ;;      Temps:          2       0       0       0       0       0       0       0       0       0       0       0       
      +0       0       0       0       0       0       0       0       0       0       0       0       0       0       0
  4352 ;;      Totals:         3      70       0       0       0       0       0       0       0       0       0       0       
      +0       0       0       0       0       0       0       0       0       0       0       0       0       0       0
  4353 ;;Total ram usage:       73 bytes
  4354 ;; Hardware stack levels used:    1
  4355 ;; Hardware stack levels required when called:    2
  4356 ;; This function calls:
  4357 ;;		_SPI_Close
  4358 ;;		_SPI_Open
  4359 ;;		_SPI_WriteBlock
  4360 ;; This function is called by:
  4361 ;;		_main
  4362 ;; This function uses a non-reentrant model
  4363 ;;
  4364                           
  4365                           
  4366                           ;psect for function _WriteToSerialEEPROM
  4367  0671                     _WriteToSerialEEPROM:
  4368                           
  4369                           ;incstack = 0
  4370                           ; Regs used in _WriteToSerialEEPROM: [wreg-fsr1h+status,2+status,0+pclath+cstack]
  4371                           ;WriteToSerialEEPROM@recv_frame stored from wreg
  4372  0671  0020               	movlb	0	; select bank0
  4373  0672  00E5               	movwf	WriteToSerialEEPROM@recv_frame
  4374  0673                     l2075:
  4375  0673                     l2077:
  4376                           
  4377                           ;apps/src/eeprom_25lc512.c: 32:  uint8_t buffer[0x43];;apps/src/eeprom_25lc512.c: 33:   
      +                            spi_modes_t SPI1;;apps/src/eeprom_25lc512.c: 35:     SPI_Open(SPI1);
  4378  0673  0863               	movf	WriteToSerialEEPROM@SPI1,w
  4379  0674  3184  2490  3186   	fcall	_SPI_Open
  4380  0677                     l2079:
  4381                           
  4382                           ;apps/src/eeprom_25lc512.c: 37:     buffer[0] = 0x06;
  4383  0677  3006               	movlw	6
  4384  0678  00F7               	movwf	??_WriteToSerialEEPROM
  4385  0679  0877               	movf	??_WriteToSerialEEPROM,w
  4386  067A  0020               	movlb	0	; select bank0
  4387  067B  00A0               	movwf	WriteToSerialEEPROM@buffer
  4388  067C                     l2081:
  4389  067C  0022               	movlb	2	; select bank2
  4390  067D  100C               	bcf	12,0	;volatile
  4391  067E                     l2083:
  4392                           
  4393                           ;apps/src/eeprom_25lc512.c: 39:     SPI_WriteBlock(buffer, 0x01);
  4394  067E  3001               	movlw	1
  4395  067F  00F1               	movwf	SPI_WriteBlock@blockSize
  4396  0680  3000               	movlw	0
  4397  0681  00F2               	movwf	SPI_WriteBlock@blockSize+1
  4398  0682  3020               	movlw	(low (WriteToSerialEEPROM@buffer| 0))& (0+255)
  4399  0683  3183  237A  3186   	fcall	_SPI_WriteBlock
  4400  0686                     l2085:
  4401  0686  0022               	movlb	2	; select bank2
  4402  0687  140C               	bsf	12,0	;volatile
  4403  0688                     l2087:
  4404                           
  4405                           ;apps/src/eeprom_25lc512.c: 41:     _delay((unsigned long)((0x0A)*(16000000/4000.0)));
  4406  0688  3034               	movlw	52
  4407  0689  00F7               	movwf	??_WriteToSerialEEPROM
  4408  068A  30F2               	movlw	242
  4409  068B                     u657:
  4410  068B  0B89               	decfsz	9,f
  4411  068C  2E8B               	goto	u657
  4412  068D  0BF7               	decfsz	??_WriteToSerialEEPROM,f
  4413  068E  2E8B               	goto	u657
  4414  068F                     l2089:
  4415                           
  4416                           ;apps/src/eeprom_25lc512.c: 43:     buffer[0] = 0x42;
  4417  068F  3042               	movlw	66
  4418  0690  00F7               	movwf	??_WriteToSerialEEPROM
  4419  0691  0877               	movf	??_WriteToSerialEEPROM,w
  4420  0692  0020               	movlb	0	; select bank0
  4421  0693  00A0               	movwf	WriteToSerialEEPROM@buffer
  4422  0694                     l2091:
  4423                           
  4424                           ;apps/src/eeprom_25lc512.c: 44:     buffer[1] = recv_frame[2];
  4425  0694  0865               	movf	WriteToSerialEEPROM@recv_frame,w
  4426  0695  0086               	movwf	6
  4427  0696  3001               	movlw	1	; select bank2/3
  4428  0697  0087               	movwf	7
  4429  0698  3001               	movlw	1	; select bank2/3
  4430  0699  3F42               	moviw [2]fsr1
  4431  069A  00A1               	movwf	WriteToSerialEEPROM@buffer+1
  4432  069B                     l2093:
  4433                           
  4434                           ;apps/src/eeprom_25lc512.c: 45:     buffer[2] = recv_frame[3];
  4435  069B  0865               	movf	WriteToSerialEEPROM@recv_frame,w
  4436  069C  0086               	movwf	6
  4437  069D  3001               	movlw	1	; select bank2/3
  4438  069E  0087               	movwf	7
  4439  069F  3001               	movlw	1	; select bank2/3
  4440  06A0  3F43               	moviw [3]fsr1
  4441  06A1  00A2               	movwf	WriteToSerialEEPROM@buffer+2
  4442  06A2                     l2095:
  4443  06A2  0022               	movlb	2	; select bank2
  4444  06A3  100C               	bcf	12,0	;volatile
  4445  06A4                     l2097:
  4446                           
  4447                           ;apps/src/eeprom_25lc512.c: 47:     SPI_WriteBlock(buffer, 0x03);
  4448  06A4  3003               	movlw	3
  4449  06A5  00F1               	movwf	SPI_WriteBlock@blockSize
  4450  06A6  3000               	movlw	0
  4451  06A7  00F2               	movwf	SPI_WriteBlock@blockSize+1
  4452  06A8  3020               	movlw	(low (WriteToSerialEEPROM@buffer| 0))& (0+255)
  4453  06A9  3183  237A  3186   	fcall	_SPI_WriteBlock
  4454  06AC                     l2099:
  4455  06AC  0022               	movlb	2	; select bank2
  4456  06AD  140C               	bsf	12,0	;volatile
  4457  06AE                     l2101:
  4458                           
  4459                           ;apps/src/eeprom_25lc512.c: 49:     _delay((unsigned long)((0x0A)*(16000000/4000.0)));
  4460  06AE  3034               	movlw	52
  4461  06AF  00F7               	movwf	??_WriteToSerialEEPROM
  4462  06B0  30F2               	movlw	242
  4463  06B1                     u667:
  4464  06B1  0B89               	decfsz	9,f
  4465  06B2  2EB1               	goto	u667
  4466  06B3  0BF7               	decfsz	??_WriteToSerialEEPROM,f
  4467  06B4  2EB1               	goto	u667
  4468  06B5                     l2103:
  4469                           
  4470                           ;apps/src/eeprom_25lc512.c: 51:     buffer[0] = 0x06;
  4471  06B5  3006               	movlw	6
  4472  06B6  00F7               	movwf	??_WriteToSerialEEPROM
  4473  06B7  0877               	movf	??_WriteToSerialEEPROM,w
  4474  06B8  0020               	movlb	0	; select bank0
  4475  06B9  00A0               	movwf	WriteToSerialEEPROM@buffer
  4476  06BA                     l2105:
  4477  06BA  0022               	movlb	2	; select bank2
  4478  06BB  100C               	bcf	12,0	;volatile
  4479  06BC                     l2107:
  4480                           
  4481                           ;apps/src/eeprom_25lc512.c: 53:     SPI_WriteBlock(buffer, 0x01);
  4482  06BC  3001               	movlw	1
  4483  06BD  00F1               	movwf	SPI_WriteBlock@blockSize
  4484  06BE  3000               	movlw	0
  4485  06BF  00F2               	movwf	SPI_WriteBlock@blockSize+1
  4486  06C0  3020               	movlw	(low (WriteToSerialEEPROM@buffer| 0))& (0+255)
  4487  06C1  3183  237A  3186   	fcall	_SPI_WriteBlock
  4488  06C4                     l2109:
  4489  06C4  0022               	movlb	2	; select bank2
  4490  06C5  140C               	bsf	12,0	;volatile
  4491  06C6                     l2111:
  4492                           
  4493                           ;apps/src/eeprom_25lc512.c: 55:     _delay((unsigned long)((0x0A)*(16000000/4000.0)));
  4494  06C6  3034               	movlw	52
  4495  06C7  00F7               	movwf	??_WriteToSerialEEPROM
  4496  06C8  30F2               	movlw	242
  4497  06C9                     u677:
  4498  06C9  0B89               	decfsz	9,f
  4499  06CA  2EC9               	goto	u677
  4500  06CB  0BF7               	decfsz	??_WriteToSerialEEPROM,f
  4501  06CC  2EC9               	goto	u677
  4502  06CD                     l2113:
  4503                           
  4504                           ;apps/src/eeprom_25lc512.c: 57:     buffer[0] = 0x02;
  4505  06CD  3002               	movlw	2
  4506  06CE  00F7               	movwf	??_WriteToSerialEEPROM
  4507  06CF  0877               	movf	??_WriteToSerialEEPROM,w
  4508  06D0  0020               	movlb	0	; select bank0
  4509  06D1  00A0               	movwf	WriteToSerialEEPROM@buffer
  4510  06D2                     l2115:
  4511                           
  4512                           ;apps/src/eeprom_25lc512.c: 58:     buffer[1] = recv_frame[2];
  4513  06D2  0865               	movf	WriteToSerialEEPROM@recv_frame,w
  4514  06D3  0086               	movwf	6
  4515  06D4  3001               	movlw	1	; select bank2/3
  4516  06D5  0087               	movwf	7
  4517  06D6  3001               	movlw	1	; select bank2/3
  4518  06D7  3F42               	moviw [2]fsr1
  4519  06D8  00A1               	movwf	WriteToSerialEEPROM@buffer+1
  4520  06D9                     l2117:
  4521                           
  4522                           ;apps/src/eeprom_25lc512.c: 59:     buffer[2] = recv_frame[3];
  4523  06D9  0865               	movf	WriteToSerialEEPROM@recv_frame,w
  4524  06DA  0086               	movwf	6
  4525  06DB  3001               	movlw	1	; select bank2/3
  4526  06DC  0087               	movwf	7
  4527  06DD  3001               	movlw	1	; select bank2/3
  4528  06DE  3F43               	moviw [3]fsr1
  4529  06DF  00A2               	movwf	WriteToSerialEEPROM@buffer+2
  4530  06E0                     l2119:
  4531                           
  4532                           ;apps/src/eeprom_25lc512.c: 60:  for (i = 3; i != 0x43; i++){
  4533  06E0  3003               	movlw	3
  4534  06E1  00F7               	movwf	??_WriteToSerialEEPROM
  4535  06E2  0877               	movf	??_WriteToSerialEEPROM,w
  4536  06E3  00E4               	movwf	WriteToSerialEEPROM@i
  4537  06E4                     l2125:
  4538                           
  4539                           ;apps/src/eeprom_25lc512.c: 61:   buffer[i] = recv_frame[i+1];
  4540  06E4  0864               	movf	WriteToSerialEEPROM@i,w
  4541  06E5  0765               	addwf	WriteToSerialEEPROM@recv_frame,w
  4542  06E6  00F7               	movwf	??_WriteToSerialEEPROM
  4543  06E7  0A77               	incf	??_WriteToSerialEEPROM,w
  4544  06E8  0086               	movwf	6
  4545  06E9  3001               	movlw	1	; select bank2/3
  4546  06EA  0087               	movwf	7
  4547  06EB  0801               	movf	1,w
  4548  06EC  00F8               	movwf	??_WriteToSerialEEPROM+1
  4549  06ED  0864               	movf	WriteToSerialEEPROM@i,w
  4550  06EE  3E20               	addlw	(low (WriteToSerialEEPROM@buffer| 0))& (0+255)
  4551  06EF  0086               	movwf	6
  4552  06F0  0187               	clrf	7
  4553  06F1  0878               	movf	??_WriteToSerialEEPROM+1,w
  4554  06F2  0081               	movwf	1
  4555  06F3                     l2127:
  4556                           
  4557                           ;apps/src/eeprom_25lc512.c: 62:   }
  4558  06F3  3001               	movlw	1
  4559  06F4  00F7               	movwf	??_WriteToSerialEEPROM
  4560  06F5  0877               	movf	??_WriteToSerialEEPROM,w
  4561  06F6  07E4               	addwf	WriteToSerialEEPROM@i,f
  4562  06F7                     l2129:
  4563  06F7  3043               	movlw	67
  4564  06F8  0664               	xorwf	WriteToSerialEEPROM@i,w
  4565  06F9  1D03               	btfss	3,2
  4566  06FA  2EFC               	goto	u551
  4567  06FB  2EFD               	goto	u550
  4568  06FC                     u551:
  4569  06FC  2EE4               	goto	l2125
  4570  06FD                     u550:
  4571  06FD                     l464:
  4572  06FD  0022               	movlb	2	; select bank2
  4573  06FE  100C               	bcf	12,0	;volatile
  4574  06FF                     l2131:
  4575                           
  4576                           ;apps/src/eeprom_25lc512.c: 64:     SPI_WriteBlock(buffer, 0x43);
  4577  06FF  3043               	movlw	67
  4578  0700  00F1               	movwf	SPI_WriteBlock@blockSize
  4579  0701  3000               	movlw	0
  4580  0702  00F2               	movwf	SPI_WriteBlock@blockSize+1
  4581  0703  3020               	movlw	(low (WriteToSerialEEPROM@buffer| 0))& (0+255)
  4582  0704  3183  237A  3186   	fcall	_SPI_WriteBlock
  4583  0707                     l2133:
  4584  0707  0022               	movlb	2	; select bank2
  4585  0708  140C               	bsf	12,0	;volatile
  4586  0709                     l2135:
  4587                           
  4588                           ;apps/src/eeprom_25lc512.c: 66:     _delay((unsigned long)((0x0A)*(16000000/4000.0)));
  4589  0709  3034               	movlw	52
  4590  070A  00F7               	movwf	??_WriteToSerialEEPROM
  4591  070B  30F2               	movlw	242
  4592  070C                     u687:
  4593  070C  0B89               	decfsz	9,f
  4594  070D  2F0C               	goto	u687
  4595  070E  0BF7               	decfsz	??_WriteToSerialEEPROM,f
  4596  070F  2F0C               	goto	u687
  4597  0710                     l2137:
  4598                           
  4599                           ;apps/src/eeprom_25lc512.c: 74:  SPI_Close();
  4600  0710  3182  22B2  3186   	fcall	_SPI_Close
  4601  0713                     l2139:
  4602                           
  4603                           ;apps/src/eeprom_25lc512.c: 75:  send_frame[0] = 0x02;
  4604  0713  3002               	movlw	2
  4605  0714  00F7               	movwf	??_WriteToSerialEEPROM
  4606  0715  0876               	movf	WriteToSerialEEPROM@send_frame,w
  4607  0716  0086               	movwf	6
  4608  0717  0187               	clrf	7
  4609  0718  0877               	movf	??_WriteToSerialEEPROM,w
  4610  0719  0081               	movwf	1
  4611  071A                     l2141:
  4612                           
  4613                           ;apps/src/eeprom_25lc512.c: 76:  send_frame[1] = 0x14;
  4614  071A  3014               	movlw	20
  4615  071B  00F7               	movwf	??_WriteToSerialEEPROM
  4616  071C  0A76               	incf	WriteToSerialEEPROM@send_frame,w
  4617  071D  0086               	movwf	6
  4618  071E  0187               	clrf	7
  4619  071F  0877               	movf	??_WriteToSerialEEPROM,w
  4620  0720  0081               	movwf	1
  4621  0721                     l2143:
  4622                           
  4623                           ;apps/src/eeprom_25lc512.c: 77:  return 1;
  4624  0721  3001               	movlw	1
  4625  0722                     l471:
  4626  0722  0008               	return
  4627  0723                     __end_of_WriteToSerialEEPROM:
  4628                           
  4629                           	psect	text2
  4630  0398                     __ptext2:	
  4631 ;; *************** function _WriteToMem *****************
  4632 ;; Defined at:
  4633 ;;		line 65 in file "apps/src/bootloader.c"
  4634 ;; Parameters:    Size  Location     Type
  4635 ;;  recv_frame      1    wreg     PTR unsigned char 
  4636 ;;		 -> main@recv_frame(68), 
  4637 ;;  send_frame      1   12[COMMON] PTR unsigned char 
  4638 ;;		 -> main@send_frame(66), 
  4639 ;; Auto vars:     Size  Location     Type
  4640 ;;  recv_frame      1    0[BANK0 ] PTR unsigned char 
  4641 ;;		 -> main@recv_frame(68), 
  4642 ;;  result          1    1[BANK0 ] _Bool 
  4643 ;; Return value:  Size  Location     Type
  4644 ;;                  1    wreg      _Bool 
  4645 ;; Registers used:
  4646 ;;		wreg, fsr1l, fsr1h, status,2, status,0, pclath, cstack
  4647 ;; Tracked objects:
  4648 ;;		On entry : 0/0
  4649 ;;		On exit  : 0/0
  4650 ;;		Unchanged: 0/0
  4651 ;; Data sizes:     COMMON   BANK0   BANK1   BANK2   BANK3   BANK4   BANK5   BANK6   BANK7   BANK8   BANK9  BANK10  BANK1
      +1  BANK12  BANK13  BANK14  BANK15  BANK16  BANK17  BANK18  BANK19  BANK20  BANK21  BANK22  BANK23  BANK24  BANK25
  4652 ;;      Params:         1       0       0       0       0       0       0       0       0       0       0       0       
      +0       0       0       0       0       0       0       0       0       0       0       0       0       0       0
  4653 ;;      Locals:         0       2       0       0       0       0       0       0       0       0       0       0       
      +0       0       0       0       0       0       0       0       0       0       0       0       0       0       0
  4654 ;;      Temps:          1       0       0       0       0       0       0       0       0       0       0       0       
      +0       0       0       0       0       0       0       0       0       0       0       0       0       0       0
  4655 ;;      Totals:         2       2       0       0       0       0       0       0       0       0       0       0       
      +0       0       0       0       0       0       0       0       0       0       0       0       0       0       0
  4656 ;;Total ram usage:        4 bytes
  4657 ;; Hardware stack levels used:    1
  4658 ;; Hardware stack levels required when called:    2
  4659 ;; This function calls:
  4660 ;;		_FLASH_Write
  4661 ;; This function is called by:
  4662 ;;		_main
  4663 ;; This function uses a non-reentrant model
  4664 ;;
  4665                           
  4666                           
  4667                           ;psect for function _WriteToMem
  4668  0398                     _WriteToMem:
  4669                           
  4670                           ;incstack = 0
  4671                           ; Regs used in _WriteToMem: [wreg+fsr1l+fsr1h+status,2+status,0+pclath+cstack]
  4672                           ;WriteToMem@recv_frame stored from wreg
  4673  0398  0020               	movlb	0	; select bank0
  4674  0399  00A0               	movwf	WriteToMem@recv_frame
  4675  039A                     l2025:
  4676                           
  4677                           ;apps/src/bootloader.c: 66:  _Bool result;;apps/src/bootloader.c: 68:  result = FLASH_Wr
      +                          ite(recv_frame);
  4678  039A  0820               	movf	WriteToMem@recv_frame,w
  4679  039B  3185  25D0  3183   	fcall	_FLASH_Write
  4680  039E  00FD               	movwf	??_WriteToMem
  4681  039F  087D               	movf	??_WriteToMem,w
  4682  03A0  0020               	movlb	0	; select bank0
  4683  03A1  00A1               	movwf	WriteToMem@result
  4684  03A2                     l2027:
  4685                           
  4686                           ;apps/src/bootloader.c: 69:  if (result) {
  4687  03A2  0821               	movf	WriteToMem@result,w
  4688  03A3  1903               	btfsc	3,2
  4689  03A4  2BA6               	goto	u531
  4690  03A5  2BA7               	goto	u530
  4691  03A6                     u531:
  4692  03A6  2BB5               	goto	l2031
  4693  03A7                     u530:
  4694  03A7                     l2029:
  4695                           
  4696                           ;apps/src/bootloader.c: 70:  send_frame[0] = 0x02;
  4697  03A7  3002               	movlw	2
  4698  03A8  00FD               	movwf	??_WriteToMem
  4699  03A9  087C               	movf	WriteToMem@send_frame,w
  4700  03AA  0086               	movwf	6
  4701  03AB  0187               	clrf	7
  4702  03AC  087D               	movf	??_WriteToMem,w
  4703  03AD  0081               	movwf	1
  4704                           
  4705                           ;apps/src/bootloader.c: 71:  send_frame[1] = 0x04;
  4706  03AE  3004               	movlw	4
  4707  03AF  00FD               	movwf	??_WriteToMem
  4708  03B0  0A7C               	incf	WriteToMem@send_frame,w
  4709  03B1  0086               	movwf	6
  4710  03B2  0187               	clrf	7
  4711  03B3  087D               	movf	??_WriteToMem,w
  4712  03B4  0081               	movwf	1
  4713  03B5                     l2031:
  4714                           
  4715                           ;apps/src/bootloader.c: 73:  return result;
  4716  03B5  0821               	movf	WriteToMem@result,w
  4717  03B6                     l345:
  4718  03B6  0008               	return
  4719  03B7                     __end_of_WriteToMem:
  4720                           
  4721                           	psect	text3
  4722  05D0                     __ptext3:	
  4723 ;; *************** function _FLASH_Write *****************
  4724 ;; Defined at:
  4725 ;;		line 72 in file "apps/src/memory.c"
  4726 ;; Parameters:    Size  Location     Type
  4727 ;;  buffer          1    wreg     PTR unsigned char 
  4728 ;;		 -> main@recv_frame(68), 
  4729 ;; Auto vars:     Size  Location     Type
  4730 ;;  buffer          1   11[COMMON] PTR unsigned char 
  4731 ;;		 -> main@recv_frame(68), 
  4732 ;;  writeAddr       2    8[COMMON] unsigned short 
  4733 ;;  i               1   10[COMMON] unsigned char 
  4734 ;;  INR_state       1    7[COMMON] unsigned char 
  4735 ;; Return value:  Size  Location     Type
  4736 ;;                  1    wreg      _Bool 
  4737 ;; Registers used:
  4738 ;;		wreg, fsr1l, fsr1h, status,2, status,0, pclath, cstack
  4739 ;; Tracked objects:
  4740 ;;		On entry : 0/0
  4741 ;;		On exit  : 0/0
  4742 ;;		Unchanged: 0/0
  4743 ;; Data sizes:     COMMON   BANK0   BANK1   BANK2   BANK3   BANK4   BANK5   BANK6   BANK7   BANK8   BANK9  BANK10  BANK1
      +1  BANK12  BANK13  BANK14  BANK15  BANK16  BANK17  BANK18  BANK19  BANK20  BANK21  BANK22  BANK23  BANK24  BANK25
  4744 ;;      Params:         0       0       0       0       0       0       0       0       0       0       0       0       
      +0       0       0       0       0       0       0       0       0       0       0       0       0       0       0
  4745 ;;      Locals:         5       0       0       0       0       0       0       0       0       0       0       0       
      +0       0       0       0       0       0       0       0       0       0       0       0       0       0       0
  4746 ;;      Temps:          7       0       0       0       0       0       0       0       0       0       0       0       
      +0       0       0       0       0       0       0       0       0       0       0       0       0       0       0
  4747 ;;      Totals:        12       0       0       0       0       0       0       0       0       0       0       0       
      +0       0       0       0       0       0       0       0       0       0       0       0       0       0       0
  4748 ;;Total ram usage:       12 bytes
  4749 ;; Hardware stack levels used:    1
  4750 ;; Hardware stack levels required when called:    1
  4751 ;; This function calls:
  4752 ;;		_UnlockFlashWrite
  4753 ;; This function is called by:
  4754 ;;		_WriteToMem
  4755 ;; This function uses a non-reentrant model
  4756 ;;
  4757                           
  4758                           
  4759                           ;psect for function _FLASH_Write
  4760  05D0                     _FLASH_Write:
  4761                           
  4762                           ;incstack = 0
  4763                           ; Regs used in _FLASH_Write: [wreg+fsr1l+fsr1h+status,2+status,0+pclath+cstack]
  4764                           ;FLASH_Write@buffer stored from wreg
  4765  05D0  00FB               	movwf	FLASH_Write@buffer
  4766  05D1                     l1875:
  4767                           
  4768                           ;apps/src/memory.c: 73:     uint8_t i, INR_state = INTCONbits.GIE;
  4769  05D1  3000               	movlw	0
  4770  05D2  1B8B               	btfsc	11,7	;volatile
  4771  05D3  3001               	movlw	1
  4772  05D4  00F7               	movwf	FLASH_Write@INR_state
  4773  05D5                     l1877:
  4774                           
  4775                           ;apps/src/memory.c: 74:     uint16_t writeAddr;;apps/src/memory.c: 76:     INTCONbits.GI
      +                          E = 0;
  4776  05D5  138B               	bcf	11,7	;volatile
  4777  05D6                     l1879:
  4778                           
  4779                           ;apps/src/memory.c: 78:     writeAddr = (uint16_t)(((buffer[2] << 8) & 0xFF00) | (buffer
      +                          [3] & 0x00FF));
  4780  05D6  087B               	movf	FLASH_Write@buffer,w
  4781  05D7  3E03               	addlw	3
  4782  05D8  0086               	movwf	6
  4783  05D9  3001               	movlw	1	; select bank2/3
  4784  05DA  0087               	movwf	7
  4785  05DB  0801               	movf	1,w
  4786  05DC  00F0               	movwf	??_FLASH_Write
  4787  05DD  01F1               	clrf	??_FLASH_Write+1
  4788  05DE  087B               	movf	FLASH_Write@buffer,w
  4789  05DF  3E02               	addlw	2
  4790  05E0  0086               	movwf	6
  4791  05E1  3001               	movlw	1	; select bank2/3
  4792  05E2  0087               	movwf	7
  4793  05E3  0801               	movf	1,w
  4794  05E4  00F2               	movwf	??_FLASH_Write+2
  4795  05E5  01F3               	clrf	??_FLASH_Write+3
  4796  05E6  0872               	movf	??_FLASH_Write+2,w
  4797  05E7  00F3               	movwf	??_FLASH_Write+3
  4798  05E8  01F2               	clrf	??_FLASH_Write+2
  4799  05E9  3000               	movlw	0
  4800  05EA  0572               	andwf	??_FLASH_Write+2,w
  4801  05EB  00F5               	movwf	??_FLASH_Write+5
  4802  05EC  30FF               	movlw	255
  4803  05ED  0573               	andwf	??_FLASH_Write+3,w
  4804  05EE  00F6               	movwf	??_FLASH_Write+6
  4805  05EF  0870               	movf	??_FLASH_Write,w
  4806  05F0  0475               	iorwf	??_FLASH_Write+5,w
  4807  05F1  00F8               	movwf	FLASH_Write@writeAddr
  4808  05F2  0871               	movf	??_FLASH_Write+1,w
  4809  05F3  0476               	iorwf	??_FLASH_Write+6,w
  4810  05F4  00F9               	movwf	FLASH_Write@writeAddr+1
  4811  05F5                     l1881:
  4812                           
  4813                           ;apps/src/memory.c: 79:         EEADRH = (uint8_t)((writeAddr & 0xFF00)>>8);
  4814  05F5  0879               	movf	FLASH_Write@writeAddr+1,w
  4815  05F6  0023               	movlb	3	; select bank3
  4816  05F7  0092               	movwf	18	;volatile
  4817  05F8                     l1883:
  4818                           
  4819                           ;apps/src/memory.c: 80:         EEADRL = (uint8_t)(writeAddr & 0x00FF);
  4820  05F8  0878               	movf	FLASH_Write@writeAddr,w
  4821  05F9  0091               	movwf	17	;volatile
  4822  05FA                     l1885:
  4823                           
  4824                           ;apps/src/memory.c: 82:     EECON1bits.EEPGD = 1;
  4825  05FA  1795               	bsf	21,7	;volsfr
  4826  05FB                     l1887:
  4827                           
  4828                           ;apps/src/memory.c: 83:     EECON1bits.WRERR = 0;
  4829  05FB  1195               	bcf	21,3	;volsfr
  4830  05FC                     l1889:
  4831                           
  4832                           ;apps/src/memory.c: 84:     EECON1bits.WREN = 1;
  4833  05FC  1515               	bsf	21,2	;volsfr
  4834  05FD                     l1891:
  4835                           
  4836                           ;apps/src/memory.c: 86:     if (buffer[2] == 0x80){
  4837  05FD  087B               	movf	FLASH_Write@buffer,w
  4838  05FE  3E02               	addlw	2
  4839  05FF  0086               	movwf	6
  4840  0600  3001               	movlw	1	; select bank2/3
  4841  0601  0087               	movwf	7
  4842  0602  3080               	movlw	128
  4843  0603  0601               	xorwf	1,w
  4844  0604  1D03               	btfss	3,2
  4845  0605  2E07               	goto	u441
  4846  0606  2E08               	goto	u440
  4847  0607                     u441:
  4848  0607  2E18               	goto	l402
  4849  0608                     u440:
  4850  0608                     l1893:
  4851                           
  4852                           ;apps/src/memory.c: 87:             EECON1bits.CFGS = 1;
  4853  0608  1715               	bsf	21,6	;volsfr
  4854  0609                     l1895:
  4855                           
  4856                           ;apps/src/memory.c: 88:             EEDATH = buffer[4];
  4857  0609  087B               	movf	FLASH_Write@buffer,w
  4858  060A  0086               	movwf	6
  4859  060B  3001               	movlw	1	; select bank2/3
  4860  060C  0087               	movwf	7
  4861  060D  3001               	movlw	1	; select bank2/3
  4862  060E  3F44               	moviw [4]fsr1
  4863  060F  0094               	movwf	20	;volatile
  4864                           
  4865                           ;apps/src/memory.c: 89:             EEDATL = buffer[5];
  4866  0610  087B               	movf	FLASH_Write@buffer,w
  4867  0611  0086               	movwf	6
  4868  0612  3001               	movlw	1	; select bank2/3
  4869  0613  0087               	movwf	7
  4870  0614  3001               	movlw	1	; select bank2/3
  4871  0615  3F45               	moviw [5]fsr1
  4872  0616  0093               	movwf	19	;volatile
  4873                           
  4874                           ;apps/src/memory.c: 90:     } else {
  4875  0617  2E59               	goto	l1929
  4876  0618                     l402:
  4877                           
  4878                           ;apps/src/memory.c: 93:     EECON1bits.CFGS = 0;
  4879  0618  1315               	bcf	21,6	;volsfr
  4880                           
  4881                           ;apps/src/memory.c: 94:     EECON1bits.FREE = 1;
  4882  0619  1615               	bsf	21,4	;volsfr
  4883  061A                     l1897:
  4884                           
  4885                           ;apps/src/memory.c: 96:     UnlockFlashWrite();
  4886  061A  3182  22E0  3185   	fcall	_UnlockFlashWrite
  4887  061D                     l1899:
  4888                           
  4889                           ;apps/src/memory.c: 97:     _delay((unsigned long)((0x000A)*(16000000/4000.0)));
  4890  061D  3034               	movlw	52
  4891  061E  00F0               	movwf	??_FLASH_Write
  4892  061F  30F2               	movlw	242
  4893  0620                     u697:
  4894  0620  0B89               	decfsz	9,f
  4895  0621  2E20               	goto	u697
  4896  0622  0BF0               	decfsz	??_FLASH_Write,f
  4897  0623  2E20               	goto	u697
  4898  0624                     l1901:
  4899                           
  4900                           ;apps/src/memory.c: 99:     if (EECON1bits.FREE){
  4901  0624  0023               	movlb	3	; select bank3
  4902  0625  1E15               	btfss	21,4	;volsfr
  4903  0626  2E28               	goto	u451
  4904  0627  2E29               	goto	u450
  4905  0628                     u451:
  4906  0628  2E2B               	goto	l404
  4907  0629                     u450:
  4908  0629                     l1903:
  4909                           
  4910                           ;apps/src/memory.c: 100:             return 0;
  4911  0629  3000               	movlw	0
  4912  062A  2E70               	goto	l405
  4913  062B                     l404:	
  4914                           ;apps/src/memory.c: 101:     }
  4915                           
  4916                           
  4917                           ;apps/src/memory.c: 103:     EECON1bits.LWLO = 1;
  4918  062B  1695               	bsf	21,5	;volsfr
  4919  062C                     l1907:
  4920                           
  4921                           ;apps/src/memory.c: 104:         for (i = 0; i != 0x0020 + 0x0020; i += 2){
  4922  062C  01FA               	clrf	FLASH_Write@i
  4923  062D                     l1913:
  4924                           
  4925                           ;apps/src/memory.c: 105:         EEADRH = (uint8_t)((writeAddr & 0xFF00)>>8);
  4926  062D  0879               	movf	FLASH_Write@writeAddr+1,w
  4927  062E  0023               	movlb	3	; select bank3
  4928  062F  0092               	movwf	18	;volatile
  4929  0630                     l1915:
  4930                           
  4931                           ;apps/src/memory.c: 106:         EEADRL = (uint8_t)(writeAddr & 0x00FF);
  4932  0630  0878               	movf	FLASH_Write@writeAddr,w
  4933  0631  0091               	movwf	17	;volatile
  4934  0632                     l1917:
  4935                           
  4936                           ;apps/src/memory.c: 108:             EEDATH = buffer[i+4];
  4937  0632  087A               	movf	FLASH_Write@i,w
  4938  0633  077B               	addwf	FLASH_Write@buffer,w
  4939  0634  00F0               	movwf	??_FLASH_Write
  4940  0635  0870               	movf	??_FLASH_Write,w
  4941  0636  0086               	movwf	6
  4942  0637  3001               	movlw	1	; select bank2/3
  4943  0638  0087               	movwf	7
  4944  0639  3001               	movlw	1	; select bank2/3
  4945  063A  3F44               	moviw [4]fsr1
  4946  063B  0094               	movwf	20	;volatile
  4947  063C                     l1919:
  4948                           
  4949                           ;apps/src/memory.c: 109:             EEDATL = buffer[i+5];
  4950  063C  087A               	movf	FLASH_Write@i,w
  4951  063D  077B               	addwf	FLASH_Write@buffer,w
  4952  063E  00F0               	movwf	??_FLASH_Write
  4953  063F  0870               	movf	??_FLASH_Write,w
  4954  0640  0086               	movwf	6
  4955  0641  3001               	movlw	1	; select bank2/3
  4956  0642  0087               	movwf	7
  4957  0643  3001               	movlw	1	; select bank2/3
  4958  0644  3F45               	moviw [5]fsr1
  4959  0645  0093               	movwf	19	;volatile
  4960  0646                     l1921:
  4961                           
  4962                           ;apps/src/memory.c: 111:             UnlockFlashWrite();
  4963  0646  3182  22E0  3185   	fcall	_UnlockFlashWrite
  4964  0649                     l1923:
  4965                           
  4966                           ;apps/src/memory.c: 113:             writeAddr++;
  4967  0649  3001               	movlw	1
  4968  064A  07F8               	addwf	FLASH_Write@writeAddr,f
  4969  064B  3000               	movlw	0
  4970  064C  3DF9               	addwfc	FLASH_Write@writeAddr+1,f
  4971  064D                     l1925:
  4972                           
  4973                           ;apps/src/memory.c: 115:         }
  4974  064D  3002               	movlw	2
  4975  064E  00F0               	movwf	??_FLASH_Write
  4976  064F  0870               	movf	??_FLASH_Write,w
  4977  0650  07FA               	addwf	FLASH_Write@i,f
  4978  0651                     l1927:
  4979  0651  3040               	movlw	64
  4980  0652  067A               	xorwf	FLASH_Write@i,w
  4981  0653  1D03               	btfss	3,2
  4982  0654  2E56               	goto	u461
  4983  0655  2E57               	goto	u460
  4984  0656                     u461:
  4985  0656  2E2D               	goto	l1913
  4986  0657                     u460:
  4987  0657                     l407:
  4988                           
  4989                           ;apps/src/memory.c: 116:     EECON1bits.LWLO = 0;
  4990  0657  0023               	movlb	3	; select bank3
  4991  0658  1295               	bcf	21,5	;volsfr
  4992  0659                     l1929:
  4993                           
  4994                           ;apps/src/memory.c: 120:     UnlockFlashWrite();
  4995  0659  3182  22E0  3185   	fcall	_UnlockFlashWrite
  4996  065C                     l1931:
  4997                           
  4998                           ;apps/src/memory.c: 121:     _delay((unsigned long)((0x000A)*(16000000/4000.0)));
  4999  065C  3034               	movlw	52
  5000  065D  00F0               	movwf	??_FLASH_Write
  5001  065E  30F2               	movlw	242
  5002  065F                     u707:
  5003  065F  0B89               	decfsz	9,f
  5004  0660  2E5F               	goto	u707
  5005  0661  0BF0               	decfsz	??_FLASH_Write,f
  5006  0662  2E5F               	goto	u707
  5007  0663                     l1933:
  5008                           
  5009                           ;apps/src/memory.c: 124:     EECON1bits.WREN = 0;
  5010  0663  0023               	movlb	3	; select bank3
  5011  0664  1115               	bcf	21,2	;volsfr
  5012  0665                     l1935:
  5013                           
  5014                           ;apps/src/memory.c: 125:     INTCONbits.GIE = INR_state;
  5015  0665  0C77               	rrf	FLASH_Write@INR_state,w
  5016  0666  1C03               	skipc
  5017  0667  138B               	bcf	11,7	;volatile
  5018  0668  1803               	skipnc
  5019  0669  178B               	bsf	11,7	;volatile
  5020  066A                     l1937:
  5021                           
  5022                           ;apps/src/memory.c: 126:     if (EECON1bits.WRERR){
  5023  066A  1D95               	btfss	21,3	;volsfr
  5024  066B  2E6D               	goto	u471
  5025  066C  2E6E               	goto	u470
  5026  066D                     u471:
  5027  066D  2E6F               	goto	l1945
  5028  066E                     u470:
  5029  066E  2E29               	goto	l1903
  5030  066F                     l1945:
  5031                           
  5032                           ;apps/src/memory.c: 129:         return 1;
  5033  066F  3001               	movlw	1
  5034  0670                     l405:
  5035  0670  0008               	return
  5036  0671                     __end_of_FLASH_Write:
  5037                           
  5038                           	psect	text4
  5039  02E0                     __ptext4:	
  5040 ;; *************** function _UnlockFlashWrite *****************
  5041 ;; Defined at:
  5042 ;;		line 41 in file "apps/src/memory.c"
  5043 ;; Parameters:    Size  Location     Type
  5044 ;;		None
  5045 ;; Auto vars:     Size  Location     Type
  5046 ;;		None
  5047 ;; Return value:  Size  Location     Type
  5048 ;;                  1    wreg      void 
  5049 ;; Registers used:
  5050 ;;		wreg
  5051 ;; Tracked objects:
  5052 ;;		On entry : 0/0
  5053 ;;		On exit  : 0/0
  5054 ;;		Unchanged: 0/0
  5055 ;; Data sizes:     COMMON   BANK0   BANK1   BANK2   BANK3   BANK4   BANK5   BANK6   BANK7   BANK8   BANK9  BANK10  BANK1
      +1  BANK12  BANK13  BANK14  BANK15  BANK16  BANK17  BANK18  BANK19  BANK20  BANK21  BANK22  BANK23  BANK24  BANK25
  5056 ;;      Params:         0       0       0       0       0       0       0       0       0       0       0       0       
      +0       0       0       0       0       0       0       0       0       0       0       0       0       0       0
  5057 ;;      Locals:         0       0       0       0       0       0       0       0       0       0       0       0       
      +0       0       0       0       0       0       0       0       0       0       0       0       0       0       0
  5058 ;;      Temps:          0       0       0       0       0       0       0       0       0       0       0       0       
      +0       0       0       0       0       0       0       0       0       0       0       0       0       0       0
  5059 ;;      Totals:         0       0       0       0       0       0       0       0       0       0       0       0       
      +0       0       0       0       0       0       0       0       0       0       0       0       0       0       0
  5060 ;;Total ram usage:        0 bytes
  5061 ;; Hardware stack levels used:    1
  5062 ;; This function calls:
  5063 ;;		Nothing
  5064 ;; This function is called by:
  5065 ;;		_FLASH_Write
  5066 ;; This function uses a non-reentrant model
  5067 ;;
  5068                           
  5069                           
  5070                           ;psect for function _UnlockFlashWrite
  5071  02E0                     _UnlockFlashWrite:
  5072  02E0                     l1697:	
  5073                           ;incstack = 0
  5074                           ; Regs used in _UnlockFlashWrite: [wreg]
  5075                           
  5076                           
  5077                           ;apps/src/memory.c: 42:     EECON2 = 0x55;
  5078  02E0  3055               	movlw	85
  5079  02E1  0023               	movlb	3	; select bank3
  5080  02E2  0096               	movwf	22	;volsfr
  5081                           
  5082                           ;apps/src/memory.c: 43:     EECON2 = 0xAA;
  5083  02E3  30AA               	movlw	170
  5084  02E4  0096               	movwf	22	;volsfr
  5085  02E5                     l1699:
  5086                           
  5087                           ;apps/src/memory.c: 44:     EECON1bits.WR = 1;
  5088  02E5  1495               	bsf	21,1	;volsfr
  5089  02E6                     l1701:
  5090                           
  5091                           ;apps/src/memory.c: 45:     __nop();
  5092  02E6  0000               	nop
  5093  02E7                     l1703:
  5094                           
  5095                           ;apps/src/memory.c: 46:     __nop();
  5096  02E7  0000               	nop
  5097  02E8                     l394:
  5098  02E8  0008               	return
  5099  02E9                     __end_of_UnlockFlashWrite:
  5100                           
  5101                           	psect	text5
  5102  0362                     __ptext5:	
  5103 ;; *************** function _UART_preamFound *****************
  5104 ;; Defined at:
  5105 ;;		line 23 in file "apps/src/serial.c"
  5106 ;; Parameters:    Size  Location     Type
  5107 ;;		None
  5108 ;; Auto vars:     Size  Location     Type
  5109 ;;  byte            1    1[COMMON] unsigned char 
  5110 ;; Return value:  Size  Location     Type
  5111 ;;                  1    wreg      _Bool 
  5112 ;; Registers used:
  5113 ;;		wreg, status,2, status,0, pclath, cstack
  5114 ;; Tracked objects:
  5115 ;;		On entry : 0/0
  5116 ;;		On exit  : 0/0
  5117 ;;		Unchanged: 0/0
  5118 ;; Data sizes:     COMMON   BANK0   BANK1   BANK2   BANK3   BANK4   BANK5   BANK6   BANK7   BANK8   BANK9  BANK10  BANK1
      +1  BANK12  BANK13  BANK14  BANK15  BANK16  BANK17  BANK18  BANK19  BANK20  BANK21  BANK22  BANK23  BANK24  BANK25
  5119 ;;      Params:         0       0       0       0       0       0       0       0       0       0       0       0       
      +0       0       0       0       0       0       0       0       0       0       0       0       0       0       0
  5120 ;;      Locals:         1       0       0       0       0       0       0       0       0       0       0       0       
      +0       0       0       0       0       0       0       0       0       0       0       0       0       0       0
  5121 ;;      Temps:          1       0       0       0       0       0       0       0       0       0       0       0       
      +0       0       0       0       0       0       0       0       0       0       0       0       0       0       0
  5122 ;;      Totals:         2       0       0       0       0       0       0       0       0       0       0       0       
      +0       0       0       0       0       0       0       0       0       0       0       0       0       0       0
  5123 ;;Total ram usage:        2 bytes
  5124 ;; Hardware stack levels used:    1
  5125 ;; Hardware stack levels required when called:    1
  5126 ;; This function calls:
  5127 ;;		_EUSART_Read
  5128 ;;		_EUSART_is_rx_ready
  5129 ;; This function is called by:
  5130 ;;		_main
  5131 ;; This function uses a non-reentrant model
  5132 ;;
  5133                           
  5134                           
  5135                           ;psect for function _UART_preamFound
  5136  0362                     _UART_preamFound:
  5137  0362                     l1963:	
  5138                           ;incstack = 0
  5139                           ; Regs used in _UART_preamFound: [wreg+status,2+status,0+pclath+cstack]
  5140                           
  5141  0362                     l1965:
  5142                           
  5143                           ;apps/src/serial.c: 25:     if (EUSART_is_rx_ready()){
  5144  0362  3182  22C1  3183   	fcall	_EUSART_is_rx_ready
  5145  0365  3A00               	xorlw	0
  5146  0366  1903               	skipnz
  5147  0367  2B69               	goto	u491
  5148  0368  2B6A               	goto	u490
  5149  0369                     u491:
  5150  0369  2B78               	goto	l1975
  5151  036A                     u490:
  5152  036A                     l1967:
  5153                           
  5154                           ;apps/src/serial.c: 26:         byte = EUSART_Read();
  5155  036A  3183  230C  3183   	fcall	_EUSART_Read
  5156  036D  00F0               	movwf	??_UART_preamFound
  5157  036E  0870               	movf	??_UART_preamFound,w
  5158  036F  00F1               	movwf	UART_preamFound@byte
  5159  0370                     l1969:
  5160                           
  5161                           ;apps/src/serial.c: 27:         if (byte == 0x55){
  5162  0370  3055               	movlw	85
  5163  0371  0671               	xorwf	UART_preamFound@byte,w
  5164  0372  1D03               	btfss	3,2
  5165  0373  2B75               	goto	u501
  5166  0374  2B76               	goto	u500
  5167  0375                     u501:
  5168  0375  2B78               	goto	l1975
  5169  0376                     u500:
  5170  0376                     l1971:
  5171                           
  5172                           ;apps/src/serial.c: 28:             return 1;
  5173  0376  3001               	movlw	1
  5174  0377  2B79               	goto	l373
  5175  0378                     l1975:
  5176                           
  5177                           ;apps/src/serial.c: 31:     return 0;
  5178  0378  3000               	movlw	0
  5179  0379                     l373:
  5180  0379  0008               	return
  5181  037A                     __end_of_UART_preamFound:
  5182                           
  5183                           	psect	text6
  5184  02C1                     __ptext6:	
  5185 ;; *************** function _EUSART_is_rx_ready *****************
  5186 ;; Defined at:
  5187 ;;		line 99 in file "mcc_generated_files/eusart.c"
  5188 ;; Parameters:    Size  Location     Type
  5189 ;;		None
  5190 ;; Auto vars:     Size  Location     Type
  5191 ;;		None
  5192 ;; Return value:  Size  Location     Type
  5193 ;;                  1    wreg      _Bool 
  5194 ;; Registers used:
  5195 ;;		wreg, status,2, status,0
  5196 ;; Tracked objects:
  5197 ;;		On entry : 0/0
  5198 ;;		On exit  : 0/0
  5199 ;;		Unchanged: 0/0
  5200 ;; Data sizes:     COMMON   BANK0   BANK1   BANK2   BANK3   BANK4   BANK5   BANK6   BANK7   BANK8   BANK9  BANK10  BANK1
      +1  BANK12  BANK13  BANK14  BANK15  BANK16  BANK17  BANK18  BANK19  BANK20  BANK21  BANK22  BANK23  BANK24  BANK25
  5201 ;;      Params:         0       0       0       0       0       0       0       0       0       0       0       0       
      +0       0       0       0       0       0       0       0       0       0       0       0       0       0       0
  5202 ;;      Locals:         0       0       0       0       0       0       0       0       0       0       0       0       
      +0       0       0       0       0       0       0       0       0       0       0       0       0       0       0
  5203 ;;      Temps:          0       0       0       0       0       0       0       0       0       0       0       0       
      +0       0       0       0       0       0       0       0       0       0       0       0       0       0       0
  5204 ;;      Totals:         0       0       0       0       0       0       0       0       0       0       0       0       
      +0       0       0       0       0       0       0       0       0       0       0       0       0       0       0
  5205 ;;Total ram usage:        0 bytes
  5206 ;; Hardware stack levels used:    1
  5207 ;; This function calls:
  5208 ;;		Nothing
  5209 ;; This function is called by:
  5210 ;;		_UART_preamFound
  5211 ;; This function uses a non-reentrant model
  5212 ;;
  5213                           
  5214                           
  5215                           ;psect for function _EUSART_is_rx_ready
  5216  02C1                     _EUSART_is_rx_ready:
  5217  02C1                     l1765:	
  5218                           ;incstack = 0
  5219                           ; Regs used in _EUSART_is_rx_ready: [wreg+status,2+status,0]
  5220                           
  5221                           
  5222                           ;mcc_generated_files/eusart.c: 101:     return (_Bool)(PIR1bits.RCIF);
  5223  02C1  0020               	movlb	0	; select bank0
  5224  02C2  0E11               	swapf	17,w	;volatile
  5225  02C3  0C89               	rrf	9,f
  5226  02C4  3901               	andlw	1
  5227  02C5                     l112:
  5228  02C5  0008               	return
  5229  02C6                     __end_of_EUSART_is_rx_ready:
  5230                           
  5231                           	psect	text7
  5232  0424                     __ptext7:	
  5233 ;; *************** function _UART_dataWrite *****************
  5234 ;; Defined at:
  5235 ;;		line 3 in file "apps/src/serial.c"
  5236 ;; Parameters:    Size  Location     Type
  5237 ;;  data_ptr        1    wreg     PTR unsigned char 
  5238 ;;		 -> main@send_frame(66), 
  5239 ;;  size            1    1[COMMON] unsigned char 
  5240 ;; Auto vars:     Size  Location     Type
  5241 ;;  data_ptr        1    3[COMMON] PTR unsigned char 
  5242 ;;		 -> main@send_frame(66), 
  5243 ;;  i               1    4[COMMON] unsigned char 
  5244 ;; Return value:  Size  Location     Type
  5245 ;;                  1    wreg      unsigned char 
  5246 ;; Registers used:
  5247 ;;		wreg, fsr1l, fsr1h, status,2, status,0, pclath, cstack
  5248 ;; Tracked objects:
  5249 ;;		On entry : 0/0
  5250 ;;		On exit  : 0/0
  5251 ;;		Unchanged: 0/0
  5252 ;; Data sizes:     COMMON   BANK0   BANK1   BANK2   BANK3   BANK4   BANK5   BANK6   BANK7   BANK8   BANK9  BANK10  BANK1
      +1  BANK12  BANK13  BANK14  BANK15  BANK16  BANK17  BANK18  BANK19  BANK20  BANK21  BANK22  BANK23  BANK24  BANK25
  5253 ;;      Params:         1       0       0       0       0       0       0       0       0       0       0       0       
      +0       0       0       0       0       0       0       0       0       0       0       0       0       0       0
  5254 ;;      Locals:         2       0       0       0       0       0       0       0       0       0       0       0       
      +0       0       0       0       0       0       0       0       0       0       0       0       0       0       0
  5255 ;;      Temps:          1       0       0       0       0       0       0       0       0       0       0       0       
      +0       0       0       0       0       0       0       0       0       0       0       0       0       0       0
  5256 ;;      Totals:         4       0       0       0       0       0       0       0       0       0       0       0       
      +0       0       0       0       0       0       0       0       0       0       0       0       0       0       0
  5257 ;;Total ram usage:        4 bytes
  5258 ;; Hardware stack levels used:    1
  5259 ;; Hardware stack levels required when called:    1
  5260 ;; This function calls:
  5261 ;;		_EUSART_Write
  5262 ;;		_EUSART_is_tx_done
  5263 ;;		_EUSART_is_tx_ready
  5264 ;; This function is called by:
  5265 ;;		_main
  5266 ;; This function uses a non-reentrant model
  5267 ;;
  5268                           
  5269                           
  5270                           ;psect for function _UART_dataWrite
  5271  0424                     _UART_dataWrite:
  5272                           
  5273                           ;incstack = 0
  5274                           ; Regs used in _UART_dataWrite: [wreg+fsr1l+fsr1h+status,2+status,0+pclath+cstack]
  5275                           ;UART_dataWrite@data_ptr stored from wreg
  5276  0424  00F3               	movwf	UART_dataWrite@data_ptr
  5277  0425                     l2153:
  5278  0425                     l2155:
  5279                           
  5280                           ;apps/src/serial.c: 5:     if (!EUSART_is_tx_done()){
  5281  0425  3182  22BD  3184   	fcall	_EUSART_is_tx_done
  5282  0428  3A00               	xorlw	0
  5283  0429  1D03               	skipz
  5284  042A  2C2C               	goto	u561
  5285  042B  2C2D               	goto	u560
  5286  042C                     u561:
  5287  042C  2C31               	goto	l2159
  5288  042D                     u560:
  5289  042D                     l2157:
  5290                           
  5291                           ;apps/src/serial.c: 6:      _delay((unsigned long)((300)*(16000000/4000000.0)));
  5292  042D  30F0               	movlw	240
  5293  042E                     u717:
  5294  042E  3200               	nop2
  5295  042F  0B89               	decfsz	9,f
  5296  0430  2C2E               	goto	u717
  5297  0431                     l2159:
  5298                           
  5299                           ;apps/src/serial.c: 9:     if (EUSART_is_tx_ready()){
  5300  0431  3183  231B  3184   	fcall	_EUSART_is_tx_ready
  5301  0434  3A00               	xorlw	0
  5302  0435  1903               	skipnz
  5303  0436  2C38               	goto	u571
  5304  0437  2C39               	goto	u570
  5305  0438                     u571:
  5306  0438  2C53               	goto	l365
  5307  0439                     u570:
  5308  0439                     l2161:
  5309                           
  5310                           ;apps/src/serial.c: 10:         EUSART_Write(0xAA);
  5311  0439  30AA               	movlw	170
  5312  043A  3182  22E9  3184   	fcall	_EUSART_Write
  5313  043D                     l2163:
  5314                           
  5315                           ;apps/src/serial.c: 11:         for (i = 0; i != size; i++){
  5316  043D  01F4               	clrf	UART_dataWrite@i
  5317  043E  2C4D               	goto	l2169
  5318  043F                     l2165:
  5319                           
  5320                           ;apps/src/serial.c: 12:             EUSART_Write(data_ptr[i]);
  5321  043F  0874               	movf	UART_dataWrite@i,w
  5322  0440  0773               	addwf	UART_dataWrite@data_ptr,w
  5323  0441  00F2               	movwf	??_UART_dataWrite
  5324  0442  0872               	movf	??_UART_dataWrite,w
  5325  0443  0086               	movwf	6
  5326  0444  0187               	clrf	7
  5327  0445  0801               	movf	1,w
  5328  0446  3182  22E9  3184   	fcall	_EUSART_Write
  5329  0449                     l2167:
  5330                           
  5331                           ;apps/src/serial.c: 13:         }
  5332  0449  3001               	movlw	1
  5333  044A  00F2               	movwf	??_UART_dataWrite
  5334  044B  0872               	movf	??_UART_dataWrite,w
  5335  044C  07F4               	addwf	UART_dataWrite@i,f
  5336  044D                     l2169:
  5337  044D  0874               	movf	UART_dataWrite@i,w
  5338  044E  0671               	xorwf	UART_dataWrite@size,w
  5339  044F  1D03               	skipz
  5340  0450  2C52               	goto	u581
  5341  0451  2C53               	goto	u580
  5342  0452                     u581:
  5343  0452  2C3F               	goto	l2165
  5344  0453                     u580:
  5345  0453                     l365:
  5346  0453  0008               	return
  5347  0454                     __end_of_UART_dataWrite:
  5348                           
  5349                           	psect	text8
  5350  031B                     __ptext8:	
  5351 ;; *************** function _EUSART_is_tx_ready *****************
  5352 ;; Defined at:
  5353 ;;		line 94 in file "mcc_generated_files/eusart.c"
  5354 ;; Parameters:    Size  Location     Type
  5355 ;;		None
  5356 ;; Auto vars:     Size  Location     Type
  5357 ;;		None
  5358 ;; Return value:  Size  Location     Type
  5359 ;;                  1    wreg      _Bool 
  5360 ;; Registers used:
  5361 ;;		wreg, status,2
  5362 ;; Tracked objects:
  5363 ;;		On entry : 0/0
  5364 ;;		On exit  : 0/0
  5365 ;;		Unchanged: 0/0
  5366 ;; Data sizes:     COMMON   BANK0   BANK1   BANK2   BANK3   BANK4   BANK5   BANK6   BANK7   BANK8   BANK9  BANK10  BANK1
      +1  BANK12  BANK13  BANK14  BANK15  BANK16  BANK17  BANK18  BANK19  BANK20  BANK21  BANK22  BANK23  BANK24  BANK25
  5367 ;;      Params:         0       0       0       0       0       0       0       0       0       0       0       0       
      +0       0       0       0       0       0       0       0       0       0       0       0       0       0       0
  5368 ;;      Locals:         1       0       0       0       0       0       0       0       0       0       0       0       
      +0       0       0       0       0       0       0       0       0       0       0       0       0       0       0
  5369 ;;      Temps:          0       0       0       0       0       0       0       0       0       0       0       0       
      +0       0       0       0       0       0       0       0       0       0       0       0       0       0       0
  5370 ;;      Totals:         1       0       0       0       0       0       0       0       0       0       0       0       
      +0       0       0       0       0       0       0       0       0       0       0       0       0       0       0
  5371 ;;Total ram usage:        1 bytes
  5372 ;; Hardware stack levels used:    1
  5373 ;; This function calls:
  5374 ;;		Nothing
  5375 ;; This function is called by:
  5376 ;;		_UART_dataWrite
  5377 ;; This function uses a non-reentrant model
  5378 ;;
  5379                           
  5380                           
  5381                           ;psect for function _EUSART_is_tx_ready
  5382  031B                     _EUSART_is_tx_ready:
  5383  031B                     l1753:	
  5384                           ;incstack = 0
  5385                           ; Regs used in _EUSART_is_tx_ready: [wreg+status,2]
  5386                           
  5387                           
  5388                           ;mcc_generated_files/eusart.c: 96:     return (_Bool)(PIR1bits.TXIF && TX1STAbits.TXEN);
  5389  031B  01F0               	clrf	_EUSART_is_tx_ready$283
  5390  031C                     l1755:
  5391  031C  0020               	movlb	0	; select bank0
  5392  031D  1E11               	btfss	17,4	;volatile
  5393  031E  2B20               	goto	u381
  5394  031F  2B21               	goto	u380
  5395  0320                     u381:
  5396  0320  2B28               	goto	l1761
  5397  0321                     u380:
  5398  0321                     l1757:
  5399  0321  0023               	movlb	3	; select bank3
  5400  0322  1E9E               	btfss	30,5	;volatile
  5401  0323  2B25               	goto	u391
  5402  0324  2B26               	goto	u390
  5403  0325                     u391:
  5404  0325  2B28               	goto	l1761
  5405  0326                     u390:
  5406  0326                     l1759:
  5407  0326  01F0               	clrf	_EUSART_is_tx_ready$283
  5408  0327  0AF0               	incf	_EUSART_is_tx_ready$283,f
  5409  0328                     l1761:
  5410  0328  0870               	movf	_EUSART_is_tx_ready$283,w
  5411  0329                     l109:
  5412  0329  0008               	return
  5413  032A                     __end_of_EUSART_is_tx_ready:
  5414                           
  5415                           	psect	text9
  5416  02BD                     __ptext9:	
  5417 ;; *************** function _EUSART_is_tx_done *****************
  5418 ;; Defined at:
  5419 ;;		line 104 in file "mcc_generated_files/eusart.c"
  5420 ;; Parameters:    Size  Location     Type
  5421 ;;		None
  5422 ;; Auto vars:     Size  Location     Type
  5423 ;;		None
  5424 ;; Return value:  Size  Location     Type
  5425 ;;                  1    wreg      _Bool 
  5426 ;; Registers used:
  5427 ;;		wreg, status,2, status,0
  5428 ;; Tracked objects:
  5429 ;;		On entry : 0/0
  5430 ;;		On exit  : 0/0
  5431 ;;		Unchanged: 0/0
  5432 ;; Data sizes:     COMMON   BANK0   BANK1   BANK2   BANK3   BANK4   BANK5   BANK6   BANK7   BANK8   BANK9  BANK10  BANK1
      +1  BANK12  BANK13  BANK14  BANK15  BANK16  BANK17  BANK18  BANK19  BANK20  BANK21  BANK22  BANK23  BANK24  BANK25
  5433 ;;      Params:         0       0       0       0       0       0       0       0       0       0       0       0       
      +0       0       0       0       0       0       0       0       0       0       0       0       0       0       0
  5434 ;;      Locals:         0       0       0       0       0       0       0       0       0       0       0       0       
      +0       0       0       0       0       0       0       0       0       0       0       0       0       0       0
  5435 ;;      Temps:          0       0       0       0       0       0       0       0       0       0       0       0       
      +0       0       0       0       0       0       0       0       0       0       0       0       0       0       0
  5436 ;;      Totals:         0       0       0       0       0       0       0       0       0       0       0       0       
      +0       0       0       0       0       0       0       0       0       0       0       0       0       0       0
  5437 ;;Total ram usage:        0 bytes
  5438 ;; Hardware stack levels used:    1
  5439 ;; This function calls:
  5440 ;;		Nothing
  5441 ;; This function is called by:
  5442 ;;		_UART_dataWrite
  5443 ;; This function uses a non-reentrant model
  5444 ;;
  5445                           
  5446                           
  5447                           ;psect for function _EUSART_is_tx_done
  5448  02BD                     _EUSART_is_tx_done:
  5449  02BD                     l1769:	
  5450                           ;incstack = 0
  5451                           ; Regs used in _EUSART_is_tx_done: [wreg+status,2+status,0]
  5452                           
  5453                           
  5454                           ;mcc_generated_files/eusart.c: 106:     return TX1STAbits.TRMT;
  5455  02BD  0023               	movlb	3	; select bank3
  5456  02BE  0C1E               	rrf	30,w	;volatile
  5457  02BF  3901               	andlw	1
  5458  02C0                     l115:
  5459  02C0  0008               	return
  5460  02C1                     __end_of_EUSART_is_tx_done:
  5461                           
  5462                           	psect	text10
  5463  02E9                     __ptext10:	
  5464 ;; *************** function _EUSART_Write *****************
  5465 ;; Defined at:
  5466 ;;		line 132 in file "mcc_generated_files/eusart.c"
  5467 ;; Parameters:    Size  Location     Type
  5468 ;;  txData          1    wreg     unsigned char 
  5469 ;; Auto vars:     Size  Location     Type
  5470 ;;  txData          1    0[COMMON] unsigned char 
  5471 ;; Return value:  Size  Location     Type
  5472 ;;                  1    wreg      void 
  5473 ;; Registers used:
  5474 ;;		wreg
  5475 ;; Tracked objects:
  5476 ;;		On entry : 0/0
  5477 ;;		On exit  : 0/0
  5478 ;;		Unchanged: 0/0
  5479 ;; Data sizes:     COMMON   BANK0   BANK1   BANK2   BANK3   BANK4   BANK5   BANK6   BANK7   BANK8   BANK9  BANK10  BANK1
      +1  BANK12  BANK13  BANK14  BANK15  BANK16  BANK17  BANK18  BANK19  BANK20  BANK21  BANK22  BANK23  BANK24  BANK25
  5480 ;;      Params:         0       0       0       0       0       0       0       0       0       0       0       0       
      +0       0       0       0       0       0       0       0       0       0       0       0       0       0       0
  5481 ;;      Locals:         1       0       0       0       0       0       0       0       0       0       0       0       
      +0       0       0       0       0       0       0       0       0       0       0       0       0       0       0
  5482 ;;      Temps:          0       0       0       0       0       0       0       0       0       0       0       0       
      +0       0       0       0       0       0       0       0       0       0       0       0       0       0       0
  5483 ;;      Totals:         1       0       0       0       0       0       0       0       0       0       0       0       
      +0       0       0       0       0       0       0       0       0       0       0       0       0       0       0
  5484 ;;Total ram usage:        1 bytes
  5485 ;; Hardware stack levels used:    1
  5486 ;; This function calls:
  5487 ;;		Nothing
  5488 ;; This function is called by:
  5489 ;;		_UART_dataWrite
  5490 ;; This function uses a non-reentrant model
  5491 ;;
  5492                           
  5493                           
  5494                           ;psect for function _EUSART_Write
  5495  02E9                     _EUSART_Write:
  5496                           
  5497                           ;incstack = 0
  5498                           ; Regs used in _EUSART_Write: [wreg]
  5499                           ;EUSART_Write@txData stored from wreg
  5500  02E9  00F0               	movwf	EUSART_Write@txData
  5501  02EA                     l1785:
  5502  02EA                     l128:	
  5503                           ;mcc_generated_files/eusart.c: 135:     {;mcc_generated_files/eusart.c: 136:     }
  5504                           
  5505                           
  5506                           ;mcc_generated_files/eusart.c: 134:     while(0 == PIR1bits.TXIF)
  5507  02EA  0020               	movlb	0	; select bank0
  5508  02EB  1E11               	btfss	17,4	;volatile
  5509  02EC  2AEE               	goto	u421
  5510  02ED  2AEF               	goto	u420
  5511  02EE                     u421:
  5512  02EE  2AEA               	goto	l128
  5513  02EF                     u420:
  5514  02EF                     l1787:
  5515                           
  5516                           ;mcc_generated_files/eusart.c: 138:     TX1REG = txData;
  5517  02EF  0870               	movf	EUSART_Write@txData,w
  5518  02F0  0023               	movlb	3	; select bank3
  5519  02F1  009A               	movwf	26	;volatile
  5520  02F2                     l131:
  5521  02F2  0008               	return
  5522  02F3                     __end_of_EUSART_Write:
  5523                           
  5524                           	psect	text11
  5525  02B9                     __ptext11:	
  5526 ;; *************** function _UART_byteRead *****************
  5527 ;; Defined at:
  5528 ;;		line 19 in file "apps/src/serial.c"
  5529 ;; Parameters:    Size  Location     Type
  5530 ;;		None
  5531 ;; Auto vars:     Size  Location     Type
  5532 ;;		None
  5533 ;; Return value:  Size  Location     Type
  5534 ;;                  1    wreg      unsigned char 
  5535 ;; Registers used:
  5536 ;;		wreg, status,2, pclath, cstack
  5537 ;; Tracked objects:
  5538 ;;		On entry : 0/0
  5539 ;;		On exit  : 0/0
  5540 ;;		Unchanged: 0/0
  5541 ;; Data sizes:     COMMON   BANK0   BANK1   BANK2   BANK3   BANK4   BANK5   BANK6   BANK7   BANK8   BANK9  BANK10  BANK1
      +1  BANK12  BANK13  BANK14  BANK15  BANK16  BANK17  BANK18  BANK19  BANK20  BANK21  BANK22  BANK23  BANK24  BANK25
  5542 ;;      Params:         0       0       0       0       0       0       0       0       0       0       0       0       
      +0       0       0       0       0       0       0       0       0       0       0       0       0       0       0
  5543 ;;      Locals:         0       0       0       0       0       0       0       0       0       0       0       0       
      +0       0       0       0       0       0       0       0       0       0       0       0       0       0       0
  5544 ;;      Temps:          0       0       0       0       0       0       0       0       0       0       0       0       
      +0       0       0       0       0       0       0       0       0       0       0       0       0       0       0
  5545 ;;      Totals:         0       0       0       0       0       0       0       0       0       0       0       0       
      +0       0       0       0       0       0       0       0       0       0       0       0       0       0       0
  5546 ;;Total ram usage:        0 bytes
  5547 ;; Hardware stack levels used:    1
  5548 ;; Hardware stack levels required when called:    1
  5549 ;; This function calls:
  5550 ;;		_EUSART_Read
  5551 ;; This function is called by:
  5552 ;;		_main
  5553 ;; This function uses a non-reentrant model
  5554 ;;
  5555                           
  5556                           
  5557                           ;psect for function _UART_byteRead
  5558  02B9                     _UART_byteRead:
  5559  02B9                     l1979:	
  5560                           ;incstack = 0
  5561                           ; Regs used in _UART_byteRead: [wreg+status,2+pclath+cstack]
  5562                           
  5563                           
  5564                           ;apps/src/serial.c: 20:         return EUSART_Read();
  5565  02B9  3183  230C  3182   	fcall	_EUSART_Read
  5566  02BC                     l368:
  5567  02BC  0008               	return
  5568  02BD                     __end_of_UART_byteRead:
  5569                           
  5570                           	psect	text12
  5571  030C                     __ptext12:	
  5572 ;; *************** function _EUSART_Read *****************
  5573 ;; Defined at:
  5574 ;;		line 113 in file "mcc_generated_files/eusart.c"
  5575 ;; Parameters:    Size  Location     Type
  5576 ;;		None
  5577 ;; Auto vars:     Size  Location     Type
  5578 ;;		None
  5579 ;; Return value:  Size  Location     Type
  5580 ;;                  1    wreg      unsigned char 
  5581 ;; Registers used:
  5582 ;;		wreg, status,2
  5583 ;; Tracked objects:
  5584 ;;		On entry : 0/0
  5585 ;;		On exit  : 0/0
  5586 ;;		Unchanged: 0/0
  5587 ;; Data sizes:     COMMON   BANK0   BANK1   BANK2   BANK3   BANK4   BANK5   BANK6   BANK7   BANK8   BANK9  BANK10  BANK1
      +1  BANK12  BANK13  BANK14  BANK15  BANK16  BANK17  BANK18  BANK19  BANK20  BANK21  BANK22  BANK23  BANK24  BANK25
  5588 ;;      Params:         0       0       0       0       0       0       0       0       0       0       0       0       
      +0       0       0       0       0       0       0       0       0       0       0       0       0       0       0
  5589 ;;      Locals:         0       0       0       0       0       0       0       0       0       0       0       0       
      +0       0       0       0       0       0       0       0       0       0       0       0       0       0       0
  5590 ;;      Temps:          0       0       0       0       0       0       0       0       0       0       0       0       
      +0       0       0       0       0       0       0       0       0       0       0       0       0       0       0
  5591 ;;      Totals:         0       0       0       0       0       0       0       0       0       0       0       0       
      +0       0       0       0       0       0       0       0       0       0       0       0       0       0       0
  5592 ;;Total ram usage:        0 bytes
  5593 ;; Hardware stack levels used:    1
  5594 ;; This function calls:
  5595 ;;		Nothing
  5596 ;; This function is called by:
  5597 ;;		_UART_byteRead
  5598 ;;		_UART_preamFound
  5599 ;; This function uses a non-reentrant model
  5600 ;;
  5601                           
  5602                           
  5603                           ;psect for function _EUSART_Read
  5604  030C                     _EUSART_Read:
  5605  030C                     l1773:	
  5606                           ;incstack = 0
  5607                           ; Regs used in _EUSART_Read: [wreg+status,2]
  5608                           
  5609  030C                     l121:	
  5610                           ;mcc_generated_files/eusart.c: 116:     {;mcc_generated_files/eusart.c: 117:     }
  5611                           
  5612                           
  5613                           ;mcc_generated_files/eusart.c: 115:     while(!PIR1bits.RCIF)
  5614  030C  0020               	movlb	0	; select bank0
  5615  030D  1E91               	btfss	17,5	;volatile
  5616  030E  2B10               	goto	u401
  5617  030F  2B11               	goto	u400
  5618  0310                     u401:
  5619  0310  2B0C               	goto	l121
  5620  0311                     u400:
  5621  0311                     l1775:
  5622                           
  5623                           ;mcc_generated_files/eusart.c: 119:     eusartRxLastError.status = 0;
  5624  0311  01EF               	clrf	_eusartRxLastError	;volatile
  5625  0312                     l1777:
  5626                           
  5627                           ;mcc_generated_files/eusart.c: 121:     if(1 == RC1STAbits.OERR)
  5628  0312  0023               	movlb	3	; select bank3
  5629  0313  1C9D               	btfss	29,1	;volatile
  5630  0314  2B16               	goto	u411
  5631  0315  2B17               	goto	u410
  5632  0316                     u411:
  5633  0316  2B19               	goto	l1781
  5634  0317                     u410:
  5635  0317                     l1779:
  5636                           
  5637                           ;mcc_generated_files/eusart.c: 122:     {;mcc_generated_files/eusart.c: 125:         RC1
      +                          STAbits.CREN = 0;
  5638  0317  121D               	bcf	29,4	;volatile
  5639                           
  5640                           ;mcc_generated_files/eusart.c: 126:         RC1STAbits.CREN = 1;
  5641  0318  161D               	bsf	29,4	;volatile
  5642  0319                     l1781:
  5643                           
  5644                           ;mcc_generated_files/eusart.c: 129:     return RC1REG;
  5645  0319  0819               	movf	25,w	;volatile
  5646  031A                     l125:
  5647  031A  0008               	return
  5648  031B                     __end_of_EUSART_Read:
  5649                           
  5650                           	psect	text13
  5651  032A                     __ptext13:	
  5652 ;; *************** function _SYSTEM_Initialize *****************
  5653 ;; Defined at:
  5654 ;;		line 50 in file "mcc_generated_files/mcc.c"
  5655 ;; Parameters:    Size  Location     Type
  5656 ;;		None
  5657 ;; Auto vars:     Size  Location     Type
  5658 ;;		None
  5659 ;; Return value:  Size  Location     Type
  5660 ;;                  1    wreg      void 
  5661 ;; Registers used:
  5662 ;;		wreg, status,2, status,0, pclath, cstack
  5663 ;; Tracked objects:
  5664 ;;		On entry : 0/0
  5665 ;;		On exit  : 0/0
  5666 ;;		Unchanged: 0/0
  5667 ;; Data sizes:     COMMON   BANK0   BANK1   BANK2   BANK3   BANK4   BANK5   BANK6   BANK7   BANK8   BANK9  BANK10  BANK1
      +1  BANK12  BANK13  BANK14  BANK15  BANK16  BANK17  BANK18  BANK19  BANK20  BANK21  BANK22  BANK23  BANK24  BANK25
  5668 ;;      Params:         0       0       0       0       0       0       0       0       0       0       0       0       
      +0       0       0       0       0       0       0       0       0       0       0       0       0       0       0
  5669 ;;      Locals:         0       0       0       0       0       0       0       0       0       0       0       0       
      +0       0       0       0       0       0       0       0       0       0       0       0       0       0       0
  5670 ;;      Temps:          0       0       0       0       0       0       0       0       0       0       0       0       
      +0       0       0       0       0       0       0       0       0       0       0       0       0       0       0
  5671 ;;      Totals:         0       0       0       0       0       0       0       0       0       0       0       0       
      +0       0       0       0       0       0       0       0       0       0       0       0       0       0       0
  5672 ;;Total ram usage:        0 bytes
  5673 ;; Hardware stack levels used:    1
  5674 ;; Hardware stack levels required when called:    2
  5675 ;; This function calls:
  5676 ;;		_EUSART_Initialize
  5677 ;;		_OSCILLATOR_Initialize
  5678 ;;		_PIN_MANAGER_Initialize
  5679 ;;		_SPI_Initialize
  5680 ;;		_WDT_Initialize
  5681 ;; This function is called by:
  5682 ;;		_main
  5683 ;; This function uses a non-reentrant model
  5684 ;;
  5685                           
  5686                           
  5687                           ;psect for function _SYSTEM_Initialize
  5688  032A                     _SYSTEM_Initialize:
  5689  032A                     l1949:	
  5690                           ;incstack = 0
  5691                           ; Regs used in _SYSTEM_Initialize: [wreg+status,2+status,0+pclath+cstack]
  5692                           
  5693                           
  5694                           ;mcc_generated_files/mcc.c: 53:     SPI_Initialize();
  5695  032A  3182  22F3  3183   	fcall	_SPI_Initialize
  5696                           
  5697                           ;mcc_generated_files/mcc.c: 54:     PIN_MANAGER_Initialize();
  5698  032D  3184  2454  3183   	fcall	_PIN_MANAGER_Initialize
  5699                           
  5700                           ;mcc_generated_files/mcc.c: 55:     OSCILLATOR_Initialize();
  5701  0330  3182  22D8  3183   	fcall	_OSCILLATOR_Initialize
  5702                           
  5703                           ;mcc_generated_files/mcc.c: 56:     WDT_Initialize();
  5704  0333  3182  22B5  3183   	fcall	_WDT_Initialize
  5705                           
  5706                           ;mcc_generated_files/mcc.c: 57:     EUSART_Initialize();
  5707  0336  3183  23D8  3183   	fcall	_EUSART_Initialize
  5708  0339                     l172:
  5709  0339  0008               	return
  5710  033A                     __end_of_SYSTEM_Initialize:
  5711                           
  5712                           	psect	text14
  5713  02B5                     __ptext14:	
  5714 ;; *************** function _WDT_Initialize *****************
  5715 ;; Defined at:
  5716 ;;		line 72 in file "mcc_generated_files/mcc.c"
  5717 ;; Parameters:    Size  Location     Type
  5718 ;;		None
  5719 ;; Auto vars:     Size  Location     Type
  5720 ;;		None
  5721 ;; Return value:  Size  Location     Type
  5722 ;;                  1    wreg      void 
  5723 ;; Registers used:
  5724 ;;		wreg
  5725 ;; Tracked objects:
  5726 ;;		On entry : 0/0
  5727 ;;		On exit  : 0/0
  5728 ;;		Unchanged: 0/0
  5729 ;; Data sizes:     COMMON   BANK0   BANK1   BANK2   BANK3   BANK4   BANK5   BANK6   BANK7   BANK8   BANK9  BANK10  BANK1
      +1  BANK12  BANK13  BANK14  BANK15  BANK16  BANK17  BANK18  BANK19  BANK20  BANK21  BANK22  BANK23  BANK24  BANK25
  5730 ;;      Params:         0       0       0       0       0       0       0       0       0       0       0       0       
      +0       0       0       0       0       0       0       0       0       0       0       0       0       0       0
  5731 ;;      Locals:         0       0       0       0       0       0       0       0       0       0       0       0       
      +0       0       0       0       0       0       0       0       0       0       0       0       0       0       0
  5732 ;;      Temps:          0       0       0       0       0       0       0       0       0       0       0       0       
      +0       0       0       0       0       0       0       0       0       0       0       0       0       0       0
  5733 ;;      Totals:         0       0       0       0       0       0       0       0       0       0       0       0       
      +0       0       0       0       0       0       0       0       0       0       0       0       0       0       0
  5734 ;;Total ram usage:        0 bytes
  5735 ;; Hardware stack levels used:    1
  5736 ;; This function calls:
  5737 ;;		Nothing
  5738 ;; This function is called by:
  5739 ;;		_SYSTEM_Initialize
  5740 ;; This function uses a non-reentrant model
  5741 ;;
  5742                           
  5743                           
  5744                           ;psect for function _WDT_Initialize
  5745  02B5                     _WDT_Initialize:
  5746  02B5                     l1857:	
  5747                           ;incstack = 0
  5748                           ; Regs used in _WDT_Initialize: [wreg]
  5749                           
  5750                           
  5751                           ;mcc_generated_files/mcc.c: 75:     WDTCON = 0x22;
  5752  02B5  3022               	movlw	34
  5753  02B6  0021               	movlb	1	; select bank1
  5754  02B7  0097               	movwf	23	;volatile
  5755  02B8                     l178:
  5756  02B8  0008               	return
  5757  02B9                     __end_of_WDT_Initialize:
  5758                           
  5759                           	psect	text15
  5760  02F3                     __ptext15:	
  5761 ;; *************** function _SPI_Initialize *****************
  5762 ;; Defined at:
  5763 ;;		line 62 in file "mcc_generated_files/spi.c"
  5764 ;; Parameters:    Size  Location     Type
  5765 ;;		None
  5766 ;; Auto vars:     Size  Location     Type
  5767 ;;		None
  5768 ;; Return value:  Size  Location     Type
  5769 ;;                  1    wreg      void 
  5770 ;; Registers used:
  5771 ;;		wreg
  5772 ;; Tracked objects:
  5773 ;;		On entry : 0/0
  5774 ;;		On exit  : 0/0
  5775 ;;		Unchanged: 0/0
  5776 ;; Data sizes:     COMMON   BANK0   BANK1   BANK2   BANK3   BANK4   BANK5   BANK6   BANK7   BANK8   BANK9  BANK10  BANK1
      +1  BANK12  BANK13  BANK14  BANK15  BANK16  BANK17  BANK18  BANK19  BANK20  BANK21  BANK22  BANK23  BANK24  BANK25
  5777 ;;      Params:         0       0       0       0       0       0       0       0       0       0       0       0       
      +0       0       0       0       0       0       0       0       0       0       0       0       0       0       0
  5778 ;;      Locals:         0       0       0       0       0       0       0       0       0       0       0       0       
      +0       0       0       0       0       0       0       0       0       0       0       0       0       0       0
  5779 ;;      Temps:          0       0       0       0       0       0       0       0       0       0       0       0       
      +0       0       0       0       0       0       0       0       0       0       0       0       0       0       0
  5780 ;;      Totals:         0       0       0       0       0       0       0       0       0       0       0       0       
      +0       0       0       0       0       0       0       0       0       0       0       0       0       0       0
  5781 ;;Total ram usage:        0 bytes
  5782 ;; Hardware stack levels used:    1
  5783 ;; This function calls:
  5784 ;;		Nothing
  5785 ;; This function is called by:
  5786 ;;		_SYSTEM_Initialize
  5787 ;; This function uses a non-reentrant model
  5788 ;;
  5789                           
  5790                           
  5791                           ;psect for function _SPI_Initialize
  5792  02F3                     _SPI_Initialize:
  5793  02F3                     l1705:	
  5794                           ;incstack = 0
  5795                           ; Regs used in _SPI_Initialize: [wreg]
  5796                           
  5797                           
  5798                           ;mcc_generated_files/spi.c: 65:     SSP1STAT = 0x40;
  5799  02F3  3040               	movlw	64
  5800  02F4  0024               	movlb	4	; select bank4
  5801  02F5  0094               	movwf	20	;volatile
  5802                           
  5803                           ;mcc_generated_files/spi.c: 66:     SSP1CON1 = 0x02;
  5804  02F6  3002               	movlw	2
  5805  02F7  0095               	movwf	21	;volatile
  5806                           
  5807                           ;mcc_generated_files/spi.c: 67:     SSP1ADD = 0x01;
  5808  02F8  3001               	movlw	1
  5809  02F9  0092               	movwf	18	;volatile
  5810  02FA                     l1707:
  5811                           
  5812                           ;mcc_generated_files/spi.c: 68:     TRISCbits.TRISC3 = 0;
  5813  02FA  0021               	movlb	1	; select bank1
  5814  02FB  118E               	bcf	14,3	;volatile
  5815  02FC                     l1709:
  5816                           
  5817                           ;mcc_generated_files/spi.c: 69:     SSP1CON1bits.SSPEN = 0;
  5818  02FC  0024               	movlb	4	; select bank4
  5819  02FD  1295               	bcf	21,5	;volatile
  5820  02FE                     l21:
  5821  02FE  0008               	return
  5822  02FF                     __end_of_SPI_Initialize:
  5823                           
  5824                           	psect	text16
  5825  0454                     __ptext16:	
  5826 ;; *************** function _PIN_MANAGER_Initialize *****************
  5827 ;; Defined at:
  5828 ;;		line 55 in file "mcc_generated_files/pin_manager.c"
  5829 ;; Parameters:    Size  Location     Type
  5830 ;;		None
  5831 ;; Auto vars:     Size  Location     Type
  5832 ;;		None
  5833 ;; Return value:  Size  Location     Type
  5834 ;;                  1    wreg      void 
  5835 ;; Registers used:
  5836 ;;		wreg, status,2
  5837 ;; Tracked objects:
  5838 ;;		On entry : 0/0
  5839 ;;		On exit  : 0/0
  5840 ;;		Unchanged: 0/0
  5841 ;; Data sizes:     COMMON   BANK0   BANK1   BANK2   BANK3   BANK4   BANK5   BANK6   BANK7   BANK8   BANK9  BANK10  BANK1
      +1  BANK12  BANK13  BANK14  BANK15  BANK16  BANK17  BANK18  BANK19  BANK20  BANK21  BANK22  BANK23  BANK24  BANK25
  5842 ;;      Params:         0       0       0       0       0       0       0       0       0       0       0       0       
      +0       0       0       0       0       0       0       0       0       0       0       0       0       0       0
  5843 ;;      Locals:         0       0       0       0       0       0       0       0       0       0       0       0       
      +0       0       0       0       0       0       0       0       0       0       0       0       0       0       0
  5844 ;;      Temps:          0       0       0       0       0       0       0       0       0       0       0       0       
      +0       0       0       0       0       0       0       0       0       0       0       0       0       0       0
  5845 ;;      Totals:         0       0       0       0       0       0       0       0       0       0       0       0       
      +0       0       0       0       0       0       0       0       0       0       0       0       0       0       0
  5846 ;;Total ram usage:        0 bytes
  5847 ;; Hardware stack levels used:    1
  5848 ;; This function calls:
  5849 ;;		Nothing
  5850 ;; This function is called by:
  5851 ;;		_SYSTEM_Initialize
  5852 ;; This function uses a non-reentrant model
  5853 ;;
  5854                           
  5855                           
  5856                           ;psect for function _PIN_MANAGER_Initialize
  5857  0454                     _PIN_MANAGER_Initialize:
  5858  0454                     l1789:	
  5859                           ;incstack = 0
  5860                           ; Regs used in _PIN_MANAGER_Initialize: [wreg+status,2]
  5861                           
  5862                           
  5863                           ;mcc_generated_files/pin_manager.c: 60:     LATE = 0x00;
  5864  0454  0022               	movlb	2	; select bank2
  5865  0455  0190               	clrf	16	;volatile
  5866                           
  5867                           ;mcc_generated_files/pin_manager.c: 61:     LATD = 0x00;
  5868  0456  018F               	clrf	15	;volatile
  5869                           
  5870                           ;mcc_generated_files/pin_manager.c: 62:     LATA = 0x00;
  5871  0457  018C               	clrf	12	;volatile
  5872                           
  5873                           ;mcc_generated_files/pin_manager.c: 63:     LATB = 0x00;
  5874  0458  018D               	clrf	13	;volatile
  5875                           
  5876                           ;mcc_generated_files/pin_manager.c: 64:     LATC = 0x00;
  5877  0459  018E               	clrf	14	;volatile
  5878  045A                     l1791:
  5879                           
  5880                           ;mcc_generated_files/pin_manager.c: 69:     TRISE = 0x08;
  5881  045A  3008               	movlw	8
  5882  045B  0021               	movlb	1	; select bank1
  5883  045C  0090               	movwf	16	;volatile
  5884  045D                     l1793:
  5885                           
  5886                           ;mcc_generated_files/pin_manager.c: 70:     TRISA = 0xFE;
  5887  045D  30FE               	movlw	254
  5888  045E  008C               	movwf	12	;volatile
  5889  045F                     l1795:
  5890                           
  5891                           ;mcc_generated_files/pin_manager.c: 71:     TRISB = 0xFF;
  5892  045F  30FF               	movlw	255
  5893  0460  008D               	movwf	13	;volatile
  5894  0461                     l1797:
  5895                           
  5896                           ;mcc_generated_files/pin_manager.c: 72:     TRISC = 0x97;
  5897  0461  3097               	movlw	151
  5898  0462  008E               	movwf	14	;volatile
  5899  0463                     l1799:
  5900                           
  5901                           ;mcc_generated_files/pin_manager.c: 73:     TRISD = 0xFF;
  5902  0463  30FF               	movlw	255
  5903  0464  008F               	movwf	15	;volatile
  5904  0465                     l1801:
  5905                           
  5906                           ;mcc_generated_files/pin_manager.c: 78:     ANSELD = 0x07;
  5907  0465  3007               	movlw	7
  5908  0466  0023               	movlb	3	; select bank3
  5909  0467  008F               	movwf	15	;volatile
  5910  0468                     l1803:
  5911                           
  5912                           ;mcc_generated_files/pin_manager.c: 79:     ANSELC = 0x07;
  5913  0468  3007               	movlw	7
  5914  0469  008E               	movwf	14	;volatile
  5915  046A                     l1805:
  5916                           
  5917                           ;mcc_generated_files/pin_manager.c: 80:     ANSELB = 0x7F;
  5918  046A  307F               	movlw	127
  5919  046B  008D               	movwf	13	;volatile
  5920                           
  5921                           ;mcc_generated_files/pin_manager.c: 81:     ANSELE = 0x00;
  5922  046C  0190               	clrf	16	;volatile
  5923  046D                     l1807:
  5924                           
  5925                           ;mcc_generated_files/pin_manager.c: 82:     ANSELA = 0xBE;
  5926  046D  30BE               	movlw	190
  5927  046E  008C               	movwf	12	;volatile
  5928  046F                     l1809:
  5929                           
  5930                           ;mcc_generated_files/pin_manager.c: 87:     WPUD = 0x00;
  5931  046F  0024               	movlb	4	; select bank4
  5932  0470  018F               	clrf	15	;volatile
  5933  0471                     l1811:
  5934                           
  5935                           ;mcc_generated_files/pin_manager.c: 88:     WPUE = 0x00;
  5936  0471  0190               	clrf	16	;volatile
  5937  0472                     l1813:
  5938                           
  5939                           ;mcc_generated_files/pin_manager.c: 89:     WPUB = 0x00;
  5940  0472  018D               	clrf	13	;volatile
  5941  0473                     l1815:
  5942                           
  5943                           ;mcc_generated_files/pin_manager.c: 90:     WPUA = 0x00;
  5944  0473  018C               	clrf	12	;volatile
  5945  0474                     l1817:
  5946                           
  5947                           ;mcc_generated_files/pin_manager.c: 91:     WPUC = 0x00;
  5948  0474  018E               	clrf	14	;volatile
  5949  0475                     l1819:
  5950                           
  5951                           ;mcc_generated_files/pin_manager.c: 92:     OPTION_REGbits.nWPUEN = 1;
  5952  0475  0021               	movlb	1	; select bank1
  5953  0476  1795               	bsf	21,7	;volatile
  5954  0477                     l1821:
  5955                           
  5956                           ;mcc_generated_files/pin_manager.c: 97:     ODCONE = 0x00;
  5957  0477  0025               	movlb	5	; select bank5
  5958  0478  0190               	clrf	16	;volatile
  5959  0479                     l1823:
  5960                           
  5961                           ;mcc_generated_files/pin_manager.c: 98:     ODCONA = 0x00;
  5962  0479  018C               	clrf	12	;volatile
  5963  047A                     l1825:
  5964                           
  5965                           ;mcc_generated_files/pin_manager.c: 99:     ODCONB = 0x00;
  5966  047A  018D               	clrf	13	;volatile
  5967  047B                     l1827:
  5968                           
  5969                           ;mcc_generated_files/pin_manager.c: 100:     ODCONC = 0x00;
  5970  047B  018E               	clrf	14	;volatile
  5971  047C                     l1829:
  5972                           
  5973                           ;mcc_generated_files/pin_manager.c: 101:     ODCOND = 0x00;
  5974  047C  018F               	clrf	15	;volatile
  5975  047D                     l1831:
  5976                           
  5977                           ;mcc_generated_files/pin_manager.c: 106:     SLRCONA = 0x00;
  5978  047D  0026               	movlb	6	; select bank6
  5979  047E  018C               	clrf	12	;volatile
  5980  047F                     l1833:
  5981                           
  5982                           ;mcc_generated_files/pin_manager.c: 107:     SLRCONB = 0x00;
  5983  047F  018D               	clrf	13	;volatile
  5984  0480                     l1835:
  5985                           
  5986                           ;mcc_generated_files/pin_manager.c: 108:     SLRCONC = 0x00;
  5987  0480  018E               	clrf	14	;volatile
  5988  0481                     l1837:
  5989                           
  5990                           ;mcc_generated_files/pin_manager.c: 109:     SLRCOND = 0x00;
  5991  0481  018F               	clrf	15	;volatile
  5992  0482                     l1839:
  5993                           
  5994                           ;mcc_generated_files/pin_manager.c: 110:     SLRCONE = 0x00;
  5995  0482  0190               	clrf	16	;volatile
  5996  0483                     l1841:
  5997                           
  5998                           ;mcc_generated_files/pin_manager.c: 115:     INLVLA = 0x00;
  5999  0483  0027               	movlb	7	; select bank7
  6000  0484  018C               	clrf	12	;volatile
  6001  0485                     l1843:
  6002                           
  6003                           ;mcc_generated_files/pin_manager.c: 116:     INLVLB = 0x00;
  6004  0485  018D               	clrf	13	;volatile
  6005                           
  6006                           ;mcc_generated_files/pin_manager.c: 117:     INLVLC = 0xFF;
  6007  0486  30FF               	movlw	255
  6008  0487  008E               	movwf	14	;volatile
  6009                           
  6010                           ;mcc_generated_files/pin_manager.c: 118:     INLVLD = 0xFF;
  6011  0488  30FF               	movlw	255
  6012  0489  008F               	movwf	15	;volatile
  6013                           
  6014                           ;mcc_generated_files/pin_manager.c: 119:     INLVLE = 0x0F;
  6015  048A  300F               	movlw	15
  6016  048B  0090               	movwf	16	;volatile
  6017  048C                     l1845:
  6018                           
  6019                           ;mcc_generated_files/pin_manager.c: 124:     APFCON1 = 0x00;
  6020  048C  0022               	movlb	2	; select bank2
  6021  048D  019D               	clrf	29	;volatile
  6022  048E                     l1847:
  6023                           
  6024                           ;mcc_generated_files/pin_manager.c: 125:     APFCON2 = 0x00;
  6025  048E  019C               	clrf	28	;volatile
  6026  048F                     l257:
  6027  048F  0008               	return
  6028  0490                     __end_of_PIN_MANAGER_Initialize:
  6029                           
  6030                           	psect	text17
  6031  02D8                     __ptext17:	
  6032 ;; *************** function _OSCILLATOR_Initialize *****************
  6033 ;; Defined at:
  6034 ;;		line 60 in file "mcc_generated_files/mcc.c"
  6035 ;; Parameters:    Size  Location     Type
  6036 ;;		None
  6037 ;; Auto vars:     Size  Location     Type
  6038 ;;		None
  6039 ;; Return value:  Size  Location     Type
  6040 ;;                  1    wreg      void 
  6041 ;; Registers used:
  6042 ;;		wreg, status,2
  6043 ;; Tracked objects:
  6044 ;;		On entry : 0/0
  6045 ;;		On exit  : 0/0
  6046 ;;		Unchanged: 0/0
  6047 ;; Data sizes:     COMMON   BANK0   BANK1   BANK2   BANK3   BANK4   BANK5   BANK6   BANK7   BANK8   BANK9  BANK10  BANK1
      +1  BANK12  BANK13  BANK14  BANK15  BANK16  BANK17  BANK18  BANK19  BANK20  BANK21  BANK22  BANK23  BANK24  BANK25
  6048 ;;      Params:         0       0       0       0       0       0       0       0       0       0       0       0       
      +0       0       0       0       0       0       0       0       0       0       0       0       0       0       0
  6049 ;;      Locals:         0       0       0       0       0       0       0       0       0       0       0       0       
      +0       0       0       0       0       0       0       0       0       0       0       0       0       0       0
  6050 ;;      Temps:          0       0       0       0       0       0       0       0       0       0       0       0       
      +0       0       0       0       0       0       0       0       0       0       0       0       0       0       0
  6051 ;;      Totals:         0       0       0       0       0       0       0       0       0       0       0       0       
      +0       0       0       0       0       0       0       0       0       0       0       0       0       0       0
  6052 ;;Total ram usage:        0 bytes
  6053 ;; Hardware stack levels used:    1
  6054 ;; This function calls:
  6055 ;;		Nothing
  6056 ;; This function is called by:
  6057 ;;		_SYSTEM_Initialize
  6058 ;; This function uses a non-reentrant model
  6059 ;;
  6060                           
  6061                           
  6062                           ;psect for function _OSCILLATOR_Initialize
  6063  02D8                     _OSCILLATOR_Initialize:
  6064  02D8                     l1849:	
  6065                           ;incstack = 0
  6066                           ; Regs used in _OSCILLATOR_Initialize: [wreg+status,2]
  6067                           
  6068                           
  6069                           ;mcc_generated_files/mcc.c: 63:     OSCCON = 0xFA;
  6070  02D8  30FA               	movlw	250
  6071  02D9  0021               	movlb	1	; select bank1
  6072  02DA  0099               	movwf	25	;volatile
  6073  02DB                     l1851:
  6074                           
  6075                           ;mcc_generated_files/mcc.c: 65:     OSCSTAT = 0x00;
  6076  02DB  019A               	clrf	26	;volatile
  6077  02DC                     l1853:
  6078                           
  6079                           ;mcc_generated_files/mcc.c: 67:     OSCTUNE = 0x00;
  6080  02DC  0198               	clrf	24	;volatile
  6081  02DD                     l1855:
  6082                           
  6083                           ;mcc_generated_files/mcc.c: 69:     BORCON = 0x00;
  6084  02DD  0022               	movlb	2	; select bank2
  6085  02DE  0196               	clrf	22	;volatile
  6086  02DF                     l175:
  6087  02DF  0008               	return
  6088  02E0                     __end_of_OSCILLATOR_Initialize:
  6089                           
  6090                           	psect	text18
  6091  03D8                     __ptext18:	
  6092 ;; *************** function _EUSART_Initialize *****************
  6093 ;; Defined at:
  6094 ;;		line 66 in file "mcc_generated_files/eusart.c"
  6095 ;; Parameters:    Size  Location     Type
  6096 ;;		None
  6097 ;; Auto vars:     Size  Location     Type
  6098 ;;		None
  6099 ;; Return value:  Size  Location     Type
  6100 ;;                  1    wreg      void 
  6101 ;; Registers used:
  6102 ;;		wreg, status,2, status,0, pclath, cstack
  6103 ;; Tracked objects:
  6104 ;;		On entry : 0/0
  6105 ;;		On exit  : 0/0
  6106 ;;		Unchanged: 0/0
  6107 ;; Data sizes:     COMMON   BANK0   BANK1   BANK2   BANK3   BANK4   BANK5   BANK6   BANK7   BANK8   BANK9  BANK10  BANK1
      +1  BANK12  BANK13  BANK14  BANK15  BANK16  BANK17  BANK18  BANK19  BANK20  BANK21  BANK22  BANK23  BANK24  BANK25
  6108 ;;      Params:         0       0       0       0       0       0       0       0       0       0       0       0       
      +0       0       0       0       0       0       0       0       0       0       0       0       0       0       0
  6109 ;;      Locals:         0       0       0       0       0       0       0       0       0       0       0       0       
      +0       0       0       0       0       0       0       0       0       0       0       0       0       0       0
  6110 ;;      Temps:          0       0       0       0       0       0       0       0       0       0       0       0       
      +0       0       0       0       0       0       0       0       0       0       0       0       0       0       0
  6111 ;;      Totals:         0       0       0       0       0       0       0       0       0       0       0       0       
      +0       0       0       0       0       0       0       0       0       0       0       0       0       0       0
  6112 ;;Total ram usage:        0 bytes
  6113 ;; Hardware stack levels used:    1
  6114 ;; Hardware stack levels required when called:    1
  6115 ;; This function calls:
  6116 ;;		_EUSART_SetErrorHandler
  6117 ;;		_EUSART_SetFramingErrorHandler
  6118 ;;		_EUSART_SetOverrunErrorHandler
  6119 ;; This function is called by:
  6120 ;;		_SYSTEM_Initialize
  6121 ;; This function uses a non-reentrant model
  6122 ;;
  6123                           
  6124                           
  6125                           ;psect for function _EUSART_Initialize
  6126  03D8                     _EUSART_Initialize:
  6127  03D8                     l1743:	
  6128                           ;incstack = 0
  6129                           ; Regs used in _EUSART_Initialize: [wreg+status,2+status,0+pclath+cstack]
  6130                           
  6131                           
  6132                           ;mcc_generated_files/eusart.c: 71:     BAUD1CON = 0x08;
  6133  03D8  3008               	movlw	8
  6134  03D9  0023               	movlb	3	; select bank3
  6135  03DA  009F               	movwf	31	;volatile
  6136                           
  6137                           ;mcc_generated_files/eusart.c: 74:     RC1STA = 0x90;
  6138  03DB  3090               	movlw	144
  6139  03DC  009D               	movwf	29	;volatile
  6140                           
  6141                           ;mcc_generated_files/eusart.c: 77:     TX1STA = 0x24;
  6142  03DD  3024               	movlw	36
  6143  03DE  009E               	movwf	30	;volatile
  6144                           
  6145                           ;mcc_generated_files/eusart.c: 80:     SP1BRGL = 0xA0;
  6146  03DF  30A0               	movlw	160
  6147  03E0  009B               	movwf	27	;volatile
  6148                           
  6149                           ;mcc_generated_files/eusart.c: 83:     SP1BRGH = 0x01;
  6150  03E1  3001               	movlw	1
  6151  03E2  009C               	movwf	28	;volatile
  6152  03E3                     l1745:
  6153                           
  6154                           ;mcc_generated_files/eusart.c: 86:     EUSART_SetFramingErrorHandler(EUSART_DefaultFrami
      +                          ngErrorHandler);
  6155  03E3  3000               	movlw	0
  6156  03E4  00F0               	movwf	EUSART_SetFramingErrorHandler@interruptHandler
  6157  03E5  3000               	movlw	0
  6158  03E6  00F1               	movwf	EUSART_SetFramingErrorHandler@interruptHandler+1
  6159  03E7  3182  22CC  3183   	fcall	_EUSART_SetFramingErrorHandler
  6160  03EA                     l1747:
  6161                           
  6162                           ;mcc_generated_files/eusart.c: 87:     EUSART_SetOverrunErrorHandler(EUSART_DefaultOverr
      +                          unErrorHandler);
  6163  03EA  3000               	movlw	0
  6164  03EB  00F0               	movwf	EUSART_SetOverrunErrorHandler@interruptHandler
  6165  03EC  3000               	movlw	0
  6166  03ED  00F1               	movwf	EUSART_SetOverrunErrorHandler@interruptHandler+1
  6167  03EE  3182  22D2  3183   	fcall	_EUSART_SetOverrunErrorHandler
  6168  03F1                     l1749:
  6169                           
  6170                           ;mcc_generated_files/eusart.c: 88:     EUSART_SetErrorHandler(EUSART_DefaultErrorHandler
      +                          );
  6171  03F1  3000               	movlw	0
  6172  03F2  00F0               	movwf	EUSART_SetErrorHandler@interruptHandler
  6173  03F3  3000               	movlw	0
  6174  03F4  00F1               	movwf	EUSART_SetErrorHandler@interruptHandler+1
  6175  03F5  3182  22C6  3183   	fcall	_EUSART_SetErrorHandler
  6176  03F8                     l1751:
  6177                           
  6178                           ;mcc_generated_files/eusart.c: 90:     eusartRxLastError.status = 0;
  6179  03F8  0020               	movlb	0	; select bank0
  6180  03F9  01EF               	clrf	_eusartRxLastError	;volatile
  6181  03FA                     l104:
  6182  03FA  0008               	return
  6183  03FB                     __end_of_EUSART_Initialize:
  6184                           
  6185                           	psect	text19
  6186  02D2                     __ptext19:	
  6187 ;; *************** function _EUSART_SetOverrunErrorHandler *****************
  6188 ;; Defined at:
  6189 ;;		line 161 in file "mcc_generated_files/eusart.c"
  6190 ;; Parameters:    Size  Location     Type
  6191 ;;  interruptHan    2    0[COMMON] PTR FTN()void 
  6192 ;;		 -> EUSART_DefaultOverrunErrorHandler(1), 
  6193 ;; Auto vars:     Size  Location     Type
  6194 ;;		None
  6195 ;; Return value:  Size  Location     Type
  6196 ;;                  1    wreg      void 
  6197 ;; Registers used:
  6198 ;;		wreg
  6199 ;; Tracked objects:
  6200 ;;		On entry : 0/0
  6201 ;;		On exit  : 0/0
  6202 ;;		Unchanged: 0/0
  6203 ;; Data sizes:     COMMON   BANK0   BANK1   BANK2   BANK3   BANK4   BANK5   BANK6   BANK7   BANK8   BANK9  BANK10  BANK1
      +1  BANK12  BANK13  BANK14  BANK15  BANK16  BANK17  BANK18  BANK19  BANK20  BANK21  BANK22  BANK23  BANK24  BANK25
  6204 ;;      Params:         2       0       0       0       0       0       0       0       0       0       0       0       
      +0       0       0       0       0       0       0       0       0       0       0       0       0       0       0
  6205 ;;      Locals:         0       0       0       0       0       0       0       0       0       0       0       0       
      +0       0       0       0       0       0       0       0       0       0       0       0       0       0       0
  6206 ;;      Temps:          0       0       0       0       0       0       0       0       0       0       0       0       
      +0       0       0       0       0       0       0       0       0       0       0       0       0       0       0
  6207 ;;      Totals:         2       0       0       0       0       0       0       0       0       0       0       0       
      +0       0       0       0       0       0       0       0       0       0       0       0       0       0       0
  6208 ;;Total ram usage:        2 bytes
  6209 ;; Hardware stack levels used:    1
  6210 ;; This function calls:
  6211 ;;		Nothing
  6212 ;; This function is called by:
  6213 ;;		_EUSART_Initialize
  6214 ;; This function uses a non-reentrant model
  6215 ;;
  6216                           
  6217                           
  6218                           ;psect for function _EUSART_SetOverrunErrorHandler
  6219  02D2                     _EUSART_SetOverrunErrorHandler:
  6220  02D2                     l1693:	
  6221                           ;incstack = 0
  6222                           ; Regs used in _EUSART_SetOverrunErrorHandler: [wreg]
  6223                           
  6224                           
  6225                           ;mcc_generated_files/eusart.c: 162:     EUSART_OverrunErrorHandler = interruptHandler;
  6226  02D2  0871               	movf	EUSART_SetOverrunErrorHandler@interruptHandler+1,w
  6227  02D3  0020               	movlb	0	; select bank0
  6228  02D4  00EC               	movwf	_EUSART_OverrunErrorHandler+1
  6229  02D5  0870               	movf	EUSART_SetOverrunErrorHandler@interruptHandler,w
  6230  02D6  00EB               	movwf	_EUSART_OverrunErrorHandler
  6231  02D7                     l146:
  6232  02D7  0008               	return
  6233  02D8                     __end_of_EUSART_SetOverrunErrorHandler:
  6234                           
  6235                           	psect	text20
  6236  02CC                     __ptext20:	
  6237 ;; *************** function _EUSART_SetFramingErrorHandler *****************
  6238 ;; Defined at:
  6239 ;;		line 157 in file "mcc_generated_files/eusart.c"
  6240 ;; Parameters:    Size  Location     Type
  6241 ;;  interruptHan    2    0[COMMON] PTR FTN()void 
  6242 ;;		 -> EUSART_DefaultFramingErrorHandler(1), 
  6243 ;; Auto vars:     Size  Location     Type
  6244 ;;		None
  6245 ;; Return value:  Size  Location     Type
  6246 ;;                  1    wreg      void 
  6247 ;; Registers used:
  6248 ;;		wreg
  6249 ;; Tracked objects:
  6250 ;;		On entry : 0/0
  6251 ;;		On exit  : 0/0
  6252 ;;		Unchanged: 0/0
  6253 ;; Data sizes:     COMMON   BANK0   BANK1   BANK2   BANK3   BANK4   BANK5   BANK6   BANK7   BANK8   BANK9  BANK10  BANK1
      +1  BANK12  BANK13  BANK14  BANK15  BANK16  BANK17  BANK18  BANK19  BANK20  BANK21  BANK22  BANK23  BANK24  BANK25
  6254 ;;      Params:         2       0       0       0       0       0       0       0       0       0       0       0       
      +0       0       0       0       0       0       0       0       0       0       0       0       0       0       0
  6255 ;;      Locals:         0       0       0       0       0       0       0       0       0       0       0       0       
      +0       0       0       0       0       0       0       0       0       0       0       0       0       0       0
  6256 ;;      Temps:          0       0       0       0       0       0       0       0       0       0       0       0       
      +0       0       0       0       0       0       0       0       0       0       0       0       0       0       0
  6257 ;;      Totals:         2       0       0       0       0       0       0       0       0       0       0       0       
      +0       0       0       0       0       0       0       0       0       0       0       0       0       0       0
  6258 ;;Total ram usage:        2 bytes
  6259 ;; Hardware stack levels used:    1
  6260 ;; This function calls:
  6261 ;;		Nothing
  6262 ;; This function is called by:
  6263 ;;		_EUSART_Initialize
  6264 ;; This function uses a non-reentrant model
  6265 ;;
  6266                           
  6267                           
  6268                           ;psect for function _EUSART_SetFramingErrorHandler
  6269  02CC                     _EUSART_SetFramingErrorHandler:
  6270  02CC                     l1691:	
  6271                           ;incstack = 0
  6272                           ; Regs used in _EUSART_SetFramingErrorHandler: [wreg]
  6273                           
  6274                           
  6275                           ;mcc_generated_files/eusart.c: 158:     EUSART_FramingErrorHandler = interruptHandler;
  6276  02CC  0871               	movf	EUSART_SetFramingErrorHandler@interruptHandler+1,w
  6277  02CD  0020               	movlb	0	; select bank0
  6278  02CE  00EE               	movwf	_EUSART_FramingErrorHandler+1
  6279  02CF  0870               	movf	EUSART_SetFramingErrorHandler@interruptHandler,w
  6280  02D0  00ED               	movwf	_EUSART_FramingErrorHandler
  6281  02D1                     l143:
  6282  02D1  0008               	return
  6283  02D2                     __end_of_EUSART_SetFramingErrorHandler:
  6284                           
  6285                           	psect	text21
  6286  02C6                     __ptext21:	
  6287 ;; *************** function _EUSART_SetErrorHandler *****************
  6288 ;; Defined at:
  6289 ;;		line 165 in file "mcc_generated_files/eusart.c"
  6290 ;; Parameters:    Size  Location     Type
  6291 ;;  interruptHan    2    0[COMMON] PTR FTN()void 
  6292 ;;		 -> EUSART_DefaultErrorHandler(1), 
  6293 ;; Auto vars:     Size  Location     Type
  6294 ;;		None
  6295 ;; Return value:  Size  Location     Type
  6296 ;;                  1    wreg      void 
  6297 ;; Registers used:
  6298 ;;		wreg
  6299 ;; Tracked objects:
  6300 ;;		On entry : 0/0
  6301 ;;		On exit  : 0/0
  6302 ;;		Unchanged: 0/0
  6303 ;; Data sizes:     COMMON   BANK0   BANK1   BANK2   BANK3   BANK4   BANK5   BANK6   BANK7   BANK8   BANK9  BANK10  BANK1
      +1  BANK12  BANK13  BANK14  BANK15  BANK16  BANK17  BANK18  BANK19  BANK20  BANK21  BANK22  BANK23  BANK24  BANK25
  6304 ;;      Params:         2       0       0       0       0       0       0       0       0       0       0       0       
      +0       0       0       0       0       0       0       0       0       0       0       0       0       0       0
  6305 ;;      Locals:         0       0       0       0       0       0       0       0       0       0       0       0       
      +0       0       0       0       0       0       0       0       0       0       0       0       0       0       0
  6306 ;;      Temps:          0       0       0       0       0       0       0       0       0       0       0       0       
      +0       0       0       0       0       0       0       0       0       0       0       0       0       0       0
  6307 ;;      Totals:         2       0       0       0       0       0       0       0       0       0       0       0       
      +0       0       0       0       0       0       0       0       0       0       0       0       0       0       0
  6308 ;;Total ram usage:        2 bytes
  6309 ;; Hardware stack levels used:    1
  6310 ;; This function calls:
  6311 ;;		Nothing
  6312 ;; This function is called by:
  6313 ;;		_EUSART_Initialize
  6314 ;; This function uses a non-reentrant model
  6315 ;;
  6316                           
  6317                           
  6318                           ;psect for function _EUSART_SetErrorHandler
  6319  02C6                     _EUSART_SetErrorHandler:
  6320  02C6                     l1695:	
  6321                           ;incstack = 0
  6322                           ; Regs used in _EUSART_SetErrorHandler: [wreg]
  6323                           
  6324                           
  6325                           ;mcc_generated_files/eusart.c: 166:     EUSART_ErrorHandler = interruptHandler;
  6326  02C6  0871               	movf	EUSART_SetErrorHandler@interruptHandler+1,w
  6327  02C7  0021               	movlb	1	; select bank1
  6328  02C8  00E3               	movwf	(_EUSART_ErrorHandler+1)^(0+128)
  6329  02C9  0870               	movf	EUSART_SetErrorHandler@interruptHandler,w
  6330  02CA  00E2               	movwf	_EUSART_ErrorHandler^(0+128)
  6331  02CB                     l149:
  6332  02CB  0008               	return
  6333  02CC                     __end_of_EUSART_SetErrorHandler:
  6334                           
  6335                           	psect	text22
  6336  04DF                     __ptext22:	
  6337 ;; *************** function _ReadFromSerialEEPROM *****************
  6338 ;; Defined at:
  6339 ;;		line 4 in file "apps/src/eeprom_25lc512.c"
  6340 ;; Parameters:    Size  Location     Type
  6341 ;;  recv_frame      1    wreg     PTR unsigned char 
  6342 ;;		 -> main@recv_frame(68), 
  6343 ;;  send_frame      1    6[COMMON] PTR unsigned char 
  6344 ;;		 -> main@send_frame(66), 
  6345 ;; Auto vars:     Size  Location     Type
  6346 ;;  recv_frame      1   65[BANK0 ] PTR unsigned char 
  6347 ;;		 -> main@recv_frame(68), 
  6348 ;;  buffer         64    0[BANK0 ] unsigned char [64]
  6349 ;;  i               1   66[BANK0 ] unsigned char 
  6350 ;;  SPI1            1   64[BANK0 ] enum E6331
  6351 ;; Return value:  Size  Location     Type
  6352 ;;                  1    wreg      _Bool 
  6353 ;; Registers used:
  6354 ;;		wreg, fsr0l, fsr0h, fsr1l, fsr1h, status,2, status,0, pclath, cstack
  6355 ;; Tracked objects:
  6356 ;;		On entry : 0/0
  6357 ;;		On exit  : 0/0
  6358 ;;		Unchanged: 0/0
  6359 ;; Data sizes:     COMMON   BANK0   BANK1   BANK2   BANK3   BANK4   BANK5   BANK6   BANK7   BANK8   BANK9  BANK10  BANK1
      +1  BANK12  BANK13  BANK14  BANK15  BANK16  BANK17  BANK18  BANK19  BANK20  BANK21  BANK22  BANK23  BANK24  BANK25
  6360 ;;      Params:         1       0       0       0       0       0       0       0       0       0       0       0       
      +0       0       0       0       0       0       0       0       0       0       0       0       0       0       0
  6361 ;;      Locals:         0      67       0       0       0       0       0       0       0       0       0       0       
      +0       0       0       0       0       0       0       0       0       0       0       0       0       0       0
  6362 ;;      Temps:          2       0       0       0       0       0       0       0       0       0       0       0       
      +0       0       0       0       0       0       0       0       0       0       0       0       0       0       0
  6363 ;;      Totals:         3      67       0       0       0       0       0       0       0       0       0       0       
      +0       0       0       0       0       0       0       0       0       0       0       0       0       0       0
  6364 ;;Total ram usage:       70 bytes
  6365 ;; Hardware stack levels used:    1
  6366 ;; Hardware stack levels required when called:    2
  6367 ;; This function calls:
  6368 ;;		_SPI_Close
  6369 ;;		_SPI_Open
  6370 ;;		_SPI_ReadBlock
  6371 ;;		_SPI_WriteBlock
  6372 ;; This function is called by:
  6373 ;;		_main
  6374 ;; This function uses a non-reentrant model
  6375 ;;
  6376                           
  6377                           
  6378                           ;psect for function _ReadFromSerialEEPROM
  6379  04DF                     _ReadFromSerialEEPROM:
  6380                           
  6381                           ;incstack = 0
  6382                           ; Regs used in _ReadFromSerialEEPROM: [wreg-fsr1h+status,2+status,0+pclath+cstack]
  6383                           ;ReadFromSerialEEPROM@recv_frame stored from wreg
  6384  04DF  0020               	movlb	0	; select bank0
  6385  04E0  00E1               	movwf	ReadFromSerialEEPROM@recv_frame
  6386  04E1                     l2035:
  6387  04E1                     l2037:
  6388                           
  6389                           ;apps/src/eeprom_25lc512.c: 6:     uint8_t buffer[0x40];;apps/src/eeprom_25lc512.c: 7:  
      +                             spi_modes_t SPI1;;apps/src/eeprom_25lc512.c: 9:     SPI_Open(SPI1);
  6390  04E1  0860               	movf	ReadFromSerialEEPROM@SPI1,w
  6391  04E2  3184  2490  3184   	fcall	_SPI_Open
  6392  04E5                     l2039:
  6393                           
  6394                           ;apps/src/eeprom_25lc512.c: 11:     buffer[0] = 0x03;
  6395  04E5  3003               	movlw	3
  6396  04E6  00F7               	movwf	??_ReadFromSerialEEPROM
  6397  04E7  0877               	movf	??_ReadFromSerialEEPROM,w
  6398  04E8  0020               	movlb	0	; select bank0
  6399  04E9  00A0               	movwf	ReadFromSerialEEPROM@buffer
  6400  04EA                     l2041:
  6401                           
  6402                           ;apps/src/eeprom_25lc512.c: 12:     buffer[1] = recv_frame[2];
  6403  04EA  0861               	movf	ReadFromSerialEEPROM@recv_frame,w
  6404  04EB  0086               	movwf	6
  6405  04EC  3001               	movlw	1	; select bank2/3
  6406  04ED  0087               	movwf	7
  6407  04EE  3001               	movlw	1	; select bank2/3
  6408  04EF  3F42               	moviw [2]fsr1
  6409  04F0  00A1               	movwf	ReadFromSerialEEPROM@buffer+1
  6410  04F1                     l2043:
  6411                           
  6412                           ;apps/src/eeprom_25lc512.c: 13:     buffer[2] = recv_frame[3];
  6413  04F1  0861               	movf	ReadFromSerialEEPROM@recv_frame,w
  6414  04F2  0086               	movwf	6
  6415  04F3  3001               	movlw	1	; select bank2/3
  6416  04F4  0087               	movwf	7
  6417  04F5  3001               	movlw	1	; select bank2/3
  6418  04F6  3F43               	moviw [3]fsr1
  6419  04F7  00A2               	movwf	ReadFromSerialEEPROM@buffer+2
  6420  04F8                     l2045:
  6421  04F8  0022               	movlb	2	; select bank2
  6422  04F9  100C               	bcf	12,0	;volatile
  6423  04FA                     l2047:
  6424                           
  6425                           ;apps/src/eeprom_25lc512.c: 16:     SPI_WriteBlock(buffer, 0x03);
  6426  04FA  3003               	movlw	3
  6427  04FB  00F1               	movwf	SPI_WriteBlock@blockSize
  6428  04FC  3000               	movlw	0
  6429  04FD  00F2               	movwf	SPI_WriteBlock@blockSize+1
  6430  04FE  3020               	movlw	(low (ReadFromSerialEEPROM@buffer| 0))& (0+255)
  6431  04FF  3183  237A  3184   	fcall	_SPI_WriteBlock
  6432  0502                     l2049:
  6433                           
  6434                           ;apps/src/eeprom_25lc512.c: 17:     SPI_ReadBlock(buffer, 0x40);
  6435  0502  3040               	movlw	64
  6436  0503  00F1               	movwf	SPI_ReadBlock@blockSize
  6437  0504  3000               	movlw	0
  6438  0505  00F2               	movwf	SPI_ReadBlock@blockSize+1
  6439  0506  3020               	movlw	(low (ReadFromSerialEEPROM@buffer| 0))& (0+255)
  6440  0507  3183  23B7  3184   	fcall	_SPI_ReadBlock
  6441  050A                     l2051:
  6442  050A  0022               	movlb	2	; select bank2
  6443  050B  140C               	bsf	12,0	;volatile
  6444  050C                     l2053:
  6445                           
  6446                           ;apps/src/eeprom_25lc512.c: 19:  SPI_Close();
  6447  050C  3182  22B2  3184   	fcall	_SPI_Close
  6448  050F                     l2055:
  6449                           
  6450                           ;apps/src/eeprom_25lc512.c: 21:  send_frame[0] = 0x40 + 2;
  6451  050F  3042               	movlw	66
  6452  0510  00F7               	movwf	??_ReadFromSerialEEPROM
  6453  0511  0876               	movf	ReadFromSerialEEPROM@send_frame,w
  6454  0512  0086               	movwf	6
  6455  0513  0187               	clrf	7
  6456  0514  0877               	movf	??_ReadFromSerialEEPROM,w
  6457  0515  0081               	movwf	1
  6458  0516                     l2057:
  6459                           
  6460                           ;apps/src/eeprom_25lc512.c: 22:  send_frame[1] = 0x12;
  6461  0516  3012               	movlw	18
  6462  0517  00F7               	movwf	??_ReadFromSerialEEPROM
  6463  0518  0A76               	incf	ReadFromSerialEEPROM@send_frame,w
  6464  0519  0086               	movwf	6
  6465  051A  0187               	clrf	7
  6466  051B  0877               	movf	??_ReadFromSerialEEPROM,w
  6467  051C  0081               	movwf	1
  6468  051D                     l2059:
  6469                           
  6470                           ;apps/src/eeprom_25lc512.c: 23:  for (i = 0; i != 0x40; i++){
  6471  051D  0020               	movlb	0	; select bank0
  6472  051E  01E2               	clrf	ReadFromSerialEEPROM@i
  6473  051F                     l2065:
  6474                           
  6475                           ;apps/src/eeprom_25lc512.c: 24:   send_frame[i+2] = buffer[i];
  6476  051F  0862               	movf	ReadFromSerialEEPROM@i,w
  6477  0520  3E20               	addlw	(low (ReadFromSerialEEPROM@buffer| 0))& (0+255)
  6478  0521  0086               	movwf	6
  6479  0522  0187               	clrf	7
  6480  0523  0801               	movf	1,w
  6481  0524  00F7               	movwf	??_ReadFromSerialEEPROM
  6482  0525  0862               	movf	ReadFromSerialEEPROM@i,w
  6483  0526  0776               	addwf	ReadFromSerialEEPROM@send_frame,w
  6484  0527  00F8               	movwf	??_ReadFromSerialEEPROM+1
  6485  0528  0878               	movf	??_ReadFromSerialEEPROM+1,w
  6486  0529  3E02               	addlw	2
  6487  052A  0086               	movwf	6
  6488  052B  0187               	clrf	7
  6489  052C  0877               	movf	??_ReadFromSerialEEPROM,w
  6490  052D  0081               	movwf	1
  6491  052E                     l2067:
  6492                           
  6493                           ;apps/src/eeprom_25lc512.c: 25:   }
  6494  052E  3001               	movlw	1
  6495  052F  00F7               	movwf	??_ReadFromSerialEEPROM
  6496  0530  0877               	movf	??_ReadFromSerialEEPROM,w
  6497  0531  07E2               	addwf	ReadFromSerialEEPROM@i,f
  6498  0532                     l2069:
  6499  0532  3040               	movlw	64
  6500  0533  0662               	xorwf	ReadFromSerialEEPROM@i,w
  6501  0534  1D03               	btfss	3,2
  6502  0535  2D37               	goto	u541
  6503  0536  2D38               	goto	u540
  6504  0537                     u541:
  6505  0537  2D1F               	goto	l2065
  6506  0538                     u540:
  6507  0538                     l2071:
  6508                           
  6509                           ;apps/src/eeprom_25lc512.c: 27:  return 1;
  6510  0538  3001               	movlw	1
  6511  0539                     l434:
  6512  0539  0008               	return
  6513  053A                     __end_of_ReadFromSerialEEPROM:
  6514                           
  6515                           	psect	text23
  6516  037A                     __ptext23:	
  6517 ;; *************** function _SPI_WriteBlock *****************
  6518 ;; Defined at:
  6519 ;;		line 113 in file "mcc_generated_files/spi.c"
  6520 ;; Parameters:    Size  Location     Type
  6521 ;;  block           1    wreg     PTR void 
  6522 ;;		 -> WriteToSerialEEPROM@buffer(67), ReadFromSerialEEPROM@buffer(64), 
  6523 ;;  blockSize       2    1[COMMON] unsigned int 
  6524 ;; Auto vars:     Size  Location     Type
  6525 ;;  block           1    5[COMMON] PTR void 
  6526 ;;		 -> WriteToSerialEEPROM@buffer(67), ReadFromSerialEEPROM@buffer(64), 
  6527 ;;  data            1    4[COMMON] PTR unsigned char 
  6528 ;;		 -> WriteToSerialEEPROM@buffer(67), ReadFromSerialEEPROM@buffer(64), 
  6529 ;; Return value:  Size  Location     Type
  6530 ;;                  1    wreg      void 
  6531 ;; Registers used:
  6532 ;;		wreg, fsr1l, fsr1h, status,2, status,0, pclath, cstack
  6533 ;; Tracked objects:
  6534 ;;		On entry : 0/0
  6535 ;;		On exit  : 0/0
  6536 ;;		Unchanged: 0/0
  6537 ;; Data sizes:     COMMON   BANK0   BANK1   BANK2   BANK3   BANK4   BANK5   BANK6   BANK7   BANK8   BANK9  BANK10  BANK1
      +1  BANK12  BANK13  BANK14  BANK15  BANK16  BANK17  BANK18  BANK19  BANK20  BANK21  BANK22  BANK23  BANK24  BANK25
  6538 ;;      Params:         2       0       0       0       0       0       0       0       0       0       0       0       
      +0       0       0       0       0       0       0       0       0       0       0       0       0       0       0
  6539 ;;      Locals:         2       0       0       0       0       0       0       0       0       0       0       0       
      +0       0       0       0       0       0       0       0       0       0       0       0       0       0       0
  6540 ;;      Temps:          1       0       0       0       0       0       0       0       0       0       0       0       
      +0       0       0       0       0       0       0       0       0       0       0       0       0       0       0
  6541 ;;      Totals:         5       0       0       0       0       0       0       0       0       0       0       0       
      +0       0       0       0       0       0       0       0       0       0       0       0       0       0       0
  6542 ;;Total ram usage:        5 bytes
  6543 ;; Hardware stack levels used:    1
  6544 ;; Hardware stack levels required when called:    1
  6545 ;; This function calls:
  6546 ;;		_SPI_ExchangeByte
  6547 ;; This function is called by:
  6548 ;;		_ReadFromSerialEEPROM
  6549 ;;		_WriteToSerialEEPROM
  6550 ;; This function uses a non-reentrant model
  6551 ;;
  6552                           
  6553                           
  6554                           ;psect for function _SPI_WriteBlock
  6555  037A                     _SPI_WriteBlock:
  6556                           
  6557                           ;incstack = 0
  6558                           ; Regs used in _SPI_WriteBlock: [wreg+fsr1l+fsr1h+status,2+status,0+pclath+cstack]
  6559                           ;SPI_WriteBlock@block stored from wreg
  6560  037A  00F5               	movwf	SPI_WriteBlock@block
  6561  037B                     l1727:
  6562                           
  6563                           ;mcc_generated_files/spi.c: 113: void SPI_WriteBlock(void *block, size_t blockSize);mcc_
      +                          generated_files/spi.c: 114: {;mcc_generated_files/spi.c: 115:     uint8_t *data = block;
  6564  037B  0875               	movf	SPI_WriteBlock@block,w
  6565  037C  00F3               	movwf	??_SPI_WriteBlock
  6566  037D  0873               	movf	??_SPI_WriteBlock,w
  6567  037E  00F4               	movwf	SPI_WriteBlock@data
  6568                           
  6569                           ;mcc_generated_files/spi.c: 116:     while(blockSize--)
  6570  037F  2B8B               	goto	l1733
  6571  0380                     l1729:
  6572                           
  6573                           ;mcc_generated_files/spi.c: 117:     {;mcc_generated_files/spi.c: 118:         SPI_Excha
      +                          ngeByte(*data++);
  6574  0380  0874               	movf	SPI_WriteBlock@data,w
  6575  0381  0086               	movwf	6
  6576  0382  0187               	clrf	7
  6577  0383  0801               	movf	1,w
  6578  0384  3182  22FF  3183   	fcall	_SPI_ExchangeByte
  6579  0387                     l1731:
  6580  0387  3001               	movlw	1
  6581  0388  00F3               	movwf	??_SPI_WriteBlock
  6582  0389  0873               	movf	??_SPI_WriteBlock,w
  6583  038A  07F4               	addwf	SPI_WriteBlock@data,f
  6584  038B                     l1733:
  6585                           
  6586                           ;mcc_generated_files/spi.c: 116:     while(blockSize--)
  6587  038B  3001               	movlw	1
  6588  038C  02F1               	subwf	SPI_WriteBlock@blockSize,f
  6589  038D  3000               	movlw	0
  6590  038E  3BF2               	subwfb	SPI_WriteBlock@blockSize+1,f
  6591  038F  0A71               	incf	SPI_WriteBlock@blockSize,w
  6592  0390  1D03               	skipz
  6593  0391  2B96               	goto	u361
  6594  0392  0A72               	incf	SPI_WriteBlock@blockSize+1,w
  6595  0393  1D03               	btfss	3,2
  6596  0394  2B96               	goto	u361
  6597  0395  2B97               	goto	u360
  6598  0396                     u361:
  6599  0396  2B80               	goto	l1729
  6600  0397                     u360:
  6601  0397                     l49:
  6602  0397  0008               	return
  6603  0398                     __end_of_SPI_WriteBlock:
  6604                           
  6605                           	psect	text24
  6606  03B7                     __ptext24:	
  6607 ;; *************** function _SPI_ReadBlock *****************
  6608 ;; Defined at:
  6609 ;;		line 122 in file "mcc_generated_files/spi.c"
  6610 ;; Parameters:    Size  Location     Type
  6611 ;;  block           1    wreg     PTR void 
  6612 ;;		 -> ReadFromSerialEEPROM@buffer(64), 
  6613 ;;  blockSize       2    1[COMMON] unsigned int 
  6614 ;; Auto vars:     Size  Location     Type
  6615 ;;  block           1    4[COMMON] PTR void 
  6616 ;;		 -> ReadFromSerialEEPROM@buffer(64), 
  6617 ;;  data            1    5[COMMON] PTR unsigned char 
  6618 ;;		 -> ReadFromSerialEEPROM@buffer(64), 
  6619 ;; Return value:  Size  Location     Type
  6620 ;;                  1    wreg      void 
  6621 ;; Registers used:
  6622 ;;		wreg, fsr1l, fsr1h, status,2, status,0, pclath, cstack
  6623 ;; Tracked objects:
  6624 ;;		On entry : 0/0
  6625 ;;		On exit  : 0/0
  6626 ;;		Unchanged: 0/0
  6627 ;; Data sizes:     COMMON   BANK0   BANK1   BANK2   BANK3   BANK4   BANK5   BANK6   BANK7   BANK8   BANK9  BANK10  BANK1
      +1  BANK12  BANK13  BANK14  BANK15  BANK16  BANK17  BANK18  BANK19  BANK20  BANK21  BANK22  BANK23  BANK24  BANK25
  6628 ;;      Params:         2       0       0       0       0       0       0       0       0       0       0       0       
      +0       0       0       0       0       0       0       0       0       0       0       0       0       0       0
  6629 ;;      Locals:         2       0       0       0       0       0       0       0       0       0       0       0       
      +0       0       0       0       0       0       0       0       0       0       0       0       0       0       0
  6630 ;;      Temps:          1       0       0       0       0       0       0       0       0       0       0       0       
      +0       0       0       0       0       0       0       0       0       0       0       0       0       0       0
  6631 ;;      Totals:         5       0       0       0       0       0       0       0       0       0       0       0       
      +0       0       0       0       0       0       0       0       0       0       0       0       0       0       0
  6632 ;;Total ram usage:        5 bytes
  6633 ;; Hardware stack levels used:    1
  6634 ;; Hardware stack levels required when called:    1
  6635 ;; This function calls:
  6636 ;;		_SPI_ExchangeByte
  6637 ;; This function is called by:
  6638 ;;		_ReadFromSerialEEPROM
  6639 ;; This function uses a non-reentrant model
  6640 ;;
  6641                           
  6642                           
  6643                           ;psect for function _SPI_ReadBlock
  6644  03B7                     _SPI_ReadBlock:
  6645                           
  6646                           ;incstack = 0
  6647                           ; Regs used in _SPI_ReadBlock: [wreg+fsr1l+fsr1h+status,2+status,0+pclath+cstack]
  6648                           ;SPI_ReadBlock@block stored from wreg
  6649  03B7  00F4               	movwf	SPI_ReadBlock@block
  6650  03B8                     l1735:
  6651                           
  6652                           ;mcc_generated_files/spi.c: 122: void SPI_ReadBlock(void *block, size_t blockSize);mcc_g
      +                          enerated_files/spi.c: 123: {;mcc_generated_files/spi.c: 124:     uint8_t *data = block;
  6653  03B8  0874               	movf	SPI_ReadBlock@block,w
  6654  03B9  00F3               	movwf	??_SPI_ReadBlock
  6655  03BA  0873               	movf	??_SPI_ReadBlock,w
  6656  03BB  00F5               	movwf	SPI_ReadBlock@data
  6657                           
  6658                           ;mcc_generated_files/spi.c: 125:     while(blockSize--)
  6659  03BC  2BCB               	goto	l1741
  6660  03BD                     l1737:
  6661                           
  6662                           ;mcc_generated_files/spi.c: 126:     {;mcc_generated_files/spi.c: 127:         *data++ =
      +                           SPI_ExchangeByte(0);
  6663  03BD  3000               	movlw	0
  6664  03BE  3182  22FF  3183   	fcall	_SPI_ExchangeByte
  6665  03C1  00F3               	movwf	??_SPI_ReadBlock
  6666  03C2  0875               	movf	SPI_ReadBlock@data,w
  6667  03C3  0086               	movwf	6
  6668  03C4  0187               	clrf	7
  6669  03C5  0873               	movf	??_SPI_ReadBlock,w
  6670  03C6  0081               	movwf	1
  6671  03C7                     l1739:
  6672  03C7  3001               	movlw	1
  6673  03C8  00F3               	movwf	??_SPI_ReadBlock
  6674  03C9  0873               	movf	??_SPI_ReadBlock,w
  6675  03CA  07F5               	addwf	SPI_ReadBlock@data,f
  6676  03CB                     l1741:
  6677                           
  6678                           ;mcc_generated_files/spi.c: 125:     while(blockSize--)
  6679  03CB  3001               	movlw	1
  6680  03CC  02F1               	subwf	SPI_ReadBlock@blockSize,f
  6681  03CD  3000               	movlw	0
  6682  03CE  3BF2               	subwfb	SPI_ReadBlock@blockSize+1,f
  6683  03CF  0A71               	incf	SPI_ReadBlock@blockSize,w
  6684  03D0  1D03               	skipz
  6685  03D1  2BD6               	goto	u371
  6686  03D2  0A72               	incf	SPI_ReadBlock@blockSize+1,w
  6687  03D3  1D03               	btfss	3,2
  6688  03D4  2BD6               	goto	u371
  6689  03D5  2BD7               	goto	u370
  6690  03D6                     u371:
  6691  03D6  2BBD               	goto	l1737
  6692  03D7                     u370:
  6693  03D7                     l55:
  6694  03D7  0008               	return
  6695  03D8                     __end_of_SPI_ReadBlock:
  6696                           
  6697                           	psect	text25
  6698  02FF                     __ptext25:	
  6699 ;; *************** function _SPI_ExchangeByte *****************
  6700 ;; Defined at:
  6701 ;;		line 92 in file "mcc_generated_files/spi.c"
  6702 ;; Parameters:    Size  Location     Type
  6703 ;;  data            1    wreg     unsigned char 
  6704 ;; Auto vars:     Size  Location     Type
  6705 ;;  data            1    0[COMMON] unsigned char 
  6706 ;; Return value:  Size  Location     Type
  6707 ;;                  1    wreg      unsigned char 
  6708 ;; Registers used:
  6709 ;;		wreg
  6710 ;; Tracked objects:
  6711 ;;		On entry : 0/0
  6712 ;;		On exit  : 0/0
  6713 ;;		Unchanged: 0/0
  6714 ;; Data sizes:     COMMON   BANK0   BANK1   BANK2   BANK3   BANK4   BANK5   BANK6   BANK7   BANK8   BANK9  BANK10  BANK1
      +1  BANK12  BANK13  BANK14  BANK15  BANK16  BANK17  BANK18  BANK19  BANK20  BANK21  BANK22  BANK23  BANK24  BANK25
  6715 ;;      Params:         0       0       0       0       0       0       0       0       0       0       0       0       
      +0       0       0       0       0       0       0       0       0       0       0       0       0       0       0
  6716 ;;      Locals:         1       0       0       0       0       0       0       0       0       0       0       0       
      +0       0       0       0       0       0       0       0       0       0       0       0       0       0       0
  6717 ;;      Temps:          0       0       0       0       0       0       0       0       0       0       0       0       
      +0       0       0       0       0       0       0       0       0       0       0       0       0       0       0
  6718 ;;      Totals:         1       0       0       0       0       0       0       0       0       0       0       0       
      +0       0       0       0       0       0       0       0       0       0       0       0       0       0       0
  6719 ;;Total ram usage:        1 bytes
  6720 ;; Hardware stack levels used:    1
  6721 ;; This function calls:
  6722 ;;		Nothing
  6723 ;; This function is called by:
  6724 ;;		_SPI_WriteBlock
  6725 ;;		_SPI_ReadBlock
  6726 ;; This function uses a non-reentrant model
  6727 ;;
  6728                           
  6729                           
  6730                           ;psect for function _SPI_ExchangeByte
  6731  02FF                     _SPI_ExchangeByte:
  6732                           
  6733                           ;incstack = 0
  6734                           ; Regs used in _SPI_ExchangeByte: [wreg]
  6735                           ;SPI_ExchangeByte@data stored from wreg
  6736  02FF  00F0               	movwf	SPI_ExchangeByte@data
  6737  0300                     l1685:
  6738                           
  6739                           ;mcc_generated_files/spi.c: 92: uint8_t SPI_ExchangeByte(uint8_t data);mcc_generated_fil
      +                          es/spi.c: 93: {;mcc_generated_files/spi.c: 94:     SSP1BUF = data;
  6740  0300  0870               	movf	SPI_ExchangeByte@data,w
  6741  0301  0024               	movlb	4	; select bank4
  6742  0302  0091               	movwf	17	;volatile
  6743  0303                     l31:	
  6744                           ;mcc_generated_files/spi.c: 95:     while(!PIR1bits.SSP1IF);
  6745                           
  6746  0303  0020               	movlb	0	; select bank0
  6747  0304  1D91               	btfss	17,3	;volatile
  6748  0305  2B07               	goto	u341
  6749  0306  2B08               	goto	u340
  6750  0307                     u341:
  6751  0307  2B03               	goto	l31
  6752  0308                     u340:
  6753  0308                     l33:
  6754                           
  6755                           ;mcc_generated_files/spi.c: 96:     PIR1bits.SSP1IF = 0;
  6756  0308  1191               	bcf	17,3	;volatile
  6757  0309                     l1687:
  6758                           
  6759                           ;mcc_generated_files/spi.c: 97:     return SSP1BUF;
  6760  0309  0024               	movlb	4	; select bank4
  6761  030A  0811               	movf	17,w	;volatile
  6762  030B                     l34:
  6763  030B  0008               	return
  6764  030C                     __end_of_SPI_ExchangeByte:
  6765                           
  6766                           	psect	text26
  6767  0490                     __ptext26:	
  6768 ;; *************** function _SPI_Open *****************
  6769 ;; Defined at:
  6770 ;;		line 72 in file "mcc_generated_files/spi.c"
  6771 ;; Parameters:    Size  Location     Type
  6772 ;;  spiUniqueCon    1    wreg     enum E353
  6773 ;; Auto vars:     Size  Location     Type
  6774 ;;  spiUniqueCon    1    3[COMMON] enum E353
  6775 ;; Return value:  Size  Location     Type
  6776 ;;                  1    wreg      _Bool 
  6777 ;; Registers used:
  6778 ;;		wreg, fsr0l, fsr0h, status,2, status,0, pclath
  6779 ;; Tracked objects:
  6780 ;;		On entry : 0/0
  6781 ;;		On exit  : 0/0
  6782 ;;		Unchanged: 0/0
  6783 ;; Data sizes:     COMMON   BANK0   BANK1   BANK2   BANK3   BANK4   BANK5   BANK6   BANK7   BANK8   BANK9  BANK10  BANK1
      +1  BANK12  BANK13  BANK14  BANK15  BANK16  BANK17  BANK18  BANK19  BANK20  BANK21  BANK22  BANK23  BANK24  BANK25
  6784 ;;      Params:         0       0       0       0       0       0       0       0       0       0       0       0       
      +0       0       0       0       0       0       0       0       0       0       0       0       0       0       0
  6785 ;;      Locals:         1       0       0       0       0       0       0       0       0       0       0       0       
      +0       0       0       0       0       0       0       0       0       0       0       0       0       0       0
  6786 ;;      Temps:          3       0       0       0       0       0       0       0       0       0       0       0       
      +0       0       0       0       0       0       0       0       0       0       0       0       0       0       0
  6787 ;;      Totals:         4       0       0       0       0       0       0       0       0       0       0       0       
      +0       0       0       0       0       0       0       0       0       0       0       0       0       0       0
  6788 ;;Total ram usage:        4 bytes
  6789 ;; Hardware stack levels used:    1
  6790 ;; This function calls:
  6791 ;;		Nothing
  6792 ;; This function is called by:
  6793 ;;		_ReadFromSerialEEPROM
  6794 ;;		_WriteToSerialEEPROM
  6795 ;; This function uses a non-reentrant model
  6796 ;;
  6797                           
  6798                           
  6799                           ;psect for function _SPI_Open
  6800  0490                     _SPI_Open:
  6801                           
  6802                           ;incstack = 0
  6803                           ; Regs used in _SPI_Open: [wreg-fsr0h+status,2+status,0+pclath]
  6804                           ;SPI_Open@spiUniqueConfiguration stored from wreg
  6805  0490  00F3               	movwf	SPI_Open@spiUniqueConfiguration
  6806  0491                     l1711:
  6807                           
  6808                           ;mcc_generated_files/spi.c: 72: _Bool SPI_Open(spi_modes_t spiUniqueConfiguration);mcc_g
      +                          enerated_files/spi.c: 73: {;mcc_generated_files/spi.c: 74:     if(!SSP1CON1bits.SSPEN)
  6809  0491  0024               	movlb	4	; select bank4
  6810  0492  1A95               	btfsc	21,5	;volatile
  6811  0493  2C95               	goto	u351
  6812  0494  2C96               	goto	u350
  6813  0495                     u351:
  6814  0495  2CDE               	goto	l25
  6815  0496                     u350:
  6816  0496                     l1713:
  6817                           
  6818                           ;mcc_generated_files/spi.c: 75:     {;mcc_generated_files/spi.c: 76:         SSP1STAT = 
      +                          spi_configuration[spiUniqueConfiguration].stat;
  6819  0496  0873               	movf	SPI_Open@spiUniqueConfiguration,w
  6820  0497  00F0               	movwf	??_SPI_Open
  6821  0498  01F1               	clrf	??_SPI_Open+1
  6822  0499  35F0               	lslf	??_SPI_Open,f
  6823  049A  0DF1               	rlf	??_SPI_Open+1,f
  6824  049B  35F0               	lslf	??_SPI_Open,f
  6825  049C  0DF1               	rlf	??_SPI_Open+1,f
  6826  049D  3001               	movlw	low ((_spi_configuration+1)| (0+32768))
  6827  049E  0770               	addwf	??_SPI_Open,w
  6828  049F  0084               	movwf	4
  6829  04A0  3088               	movlw	high ((_spi_configuration+1)| (0+32768))
  6830  04A1  3D71               	addwfc	??_SPI_Open+1,w
  6831  04A2  0085               	movwf	5
  6832  04A3  0800               	movf	0,w	;code access
  6833  04A4  0094               	movwf	20	;volatile
  6834                           
  6835                           ;mcc_generated_files/spi.c: 77:         SSP1CON1 = spi_configuration[spiUniqueConfigurat
      +                          ion].con1;
  6836  04A5  0873               	movf	SPI_Open@spiUniqueConfiguration,w
  6837  04A6  00F0               	movwf	??_SPI_Open
  6838  04A7  01F1               	clrf	??_SPI_Open+1
  6839  04A8  35F0               	lslf	??_SPI_Open,f
  6840  04A9  0DF1               	rlf	??_SPI_Open+1,f
  6841  04AA  35F0               	lslf	??_SPI_Open,f
  6842  04AB  0DF1               	rlf	??_SPI_Open+1,f
  6843  04AC  3000               	movlw	low (_spi_configuration| (0+32768))
  6844  04AD  0770               	addwf	??_SPI_Open,w
  6845  04AE  0084               	movwf	4
  6846  04AF  3088               	movlw	high (_spi_configuration| (0+32768))
  6847  04B0  3D71               	addwfc	??_SPI_Open+1,w
  6848  04B1  0085               	movwf	5
  6849  04B2  0800               	movf	0,w	;code access
  6850  04B3  0095               	movwf	21	;volatile
  6851  04B4                     l1715:
  6852                           
  6853                           ;mcc_generated_files/spi.c: 78:         SSP1CON2 = 0x00;
  6854  04B4  0196               	clrf	22	;volatile
  6855  04B5                     l1717:
  6856                           
  6857                           ;mcc_generated_files/spi.c: 79:         SSP1ADD = spi_configuration[spiUniqueConfigurati
      +                          on].add;
  6858  04B5  0873               	movf	SPI_Open@spiUniqueConfiguration,w
  6859  04B6  00F0               	movwf	??_SPI_Open
  6860  04B7  01F1               	clrf	??_SPI_Open+1
  6861  04B8  35F0               	lslf	??_SPI_Open,f
  6862  04B9  0DF1               	rlf	??_SPI_Open+1,f
  6863  04BA  35F0               	lslf	??_SPI_Open,f
  6864  04BB  0DF1               	rlf	??_SPI_Open+1,f
  6865  04BC  3002               	movlw	low ((_spi_configuration+2)| (0+32768))
  6866  04BD  0770               	addwf	??_SPI_Open,w
  6867  04BE  0084               	movwf	4
  6868  04BF  3088               	movlw	high ((_spi_configuration+2)| (0+32768))
  6869  04C0  3D71               	addwfc	??_SPI_Open+1,w
  6870  04C1  0085               	movwf	5
  6871  04C2  0800               	movf	0,w	;code access
  6872  04C3  0092               	movwf	18	;volatile
  6873  04C4                     l1719:
  6874                           
  6875                           ;mcc_generated_files/spi.c: 80:         TRISCbits.TRISC3 = spi_configuration[spiUniqueCo
      +                          nfiguration].operation;
  6876  04C4  0873               	movf	SPI_Open@spiUniqueConfiguration,w
  6877  04C5  00F0               	movwf	??_SPI_Open
  6878  04C6  01F1               	clrf	??_SPI_Open+1
  6879  04C7  35F0               	lslf	??_SPI_Open,f
  6880  04C8  0DF1               	rlf	??_SPI_Open+1,f
  6881  04C9  35F0               	lslf	??_SPI_Open,f
  6882  04CA  0DF1               	rlf	??_SPI_Open+1,f
  6883  04CB  3003               	movlw	low ((_spi_configuration+3)| (0+32768))
  6884  04CC  0770               	addwf	??_SPI_Open,w
  6885  04CD  0084               	movwf	4
  6886  04CE  3088               	movlw	high ((_spi_configuration+3)| (0+32768))
  6887  04CF  3D71               	addwfc	??_SPI_Open+1,w
  6888  04D0  0085               	movwf	5
  6889  04D1  0800               	movf	0,w	;code access
  6890  04D2  00F2               	movwf	??_SPI_Open+2
  6891  04D3  0DF2               	rlf	??_SPI_Open+2,f
  6892  04D4  0DF2               	rlf	??_SPI_Open+2,f
  6893  04D5  0DF2               	rlf	??_SPI_Open+2,f
  6894  04D6  0021               	movlb	1	; select bank1
  6895  04D7  080E               	movf	14,w	;volatile
  6896  04D8  0672               	xorwf	??_SPI_Open+2,w
  6897  04D9  39F7               	andlw	-9
  6898  04DA  0672               	xorwf	??_SPI_Open+2,w
  6899  04DB  008E               	movwf	14	;volatile
  6900  04DC                     l1721:
  6901                           
  6902                           ;mcc_generated_files/spi.c: 81:         SSP1CON1bits.SSPEN = 1;
  6903  04DC  0024               	movlb	4	; select bank4
  6904  04DD  1695               	bsf	21,5	;volatile
  6905  04DE                     l25:
  6906  04DE  0008               	return
  6907  04DF                     __end_of_SPI_Open:
  6908                           
  6909                           	psect	text27
  6910  02B2                     __ptext27:	
  6911 ;; *************** function _SPI_Close *****************
  6912 ;; Defined at:
  6913 ;;		line 87 in file "mcc_generated_files/spi.c"
  6914 ;; Parameters:    Size  Location     Type
  6915 ;;		None
  6916 ;; Auto vars:     Size  Location     Type
  6917 ;;		None
  6918 ;; Return value:  Size  Location     Type
  6919 ;;                  1    wreg      void 
  6920 ;; Registers used:
  6921 ;;		None
  6922 ;; Tracked objects:
  6923 ;;		On entry : 0/0
  6924 ;;		On exit  : 0/0
  6925 ;;		Unchanged: 0/0
  6926 ;; Data sizes:     COMMON   BANK0   BANK1   BANK2   BANK3   BANK4   BANK5   BANK6   BANK7   BANK8   BANK9  BANK10  BANK1
      +1  BANK12  BANK13  BANK14  BANK15  BANK16  BANK17  BANK18  BANK19  BANK20  BANK21  BANK22  BANK23  BANK24  BANK25
  6927 ;;      Params:         0       0       0       0       0       0       0       0       0       0       0       0       
      +0       0       0       0       0       0       0       0       0       0       0       0       0       0       0
  6928 ;;      Locals:         0       0       0       0       0       0       0       0       0       0       0       0       
      +0       0       0       0       0       0       0       0       0       0       0       0       0       0       0
  6929 ;;      Temps:          0       0       0       0       0       0       0       0       0       0       0       0       
      +0       0       0       0       0       0       0       0       0       0       0       0       0       0       0
  6930 ;;      Totals:         0       0       0       0       0       0       0       0       0       0       0       0       
      +0       0       0       0       0       0       0       0       0       0       0       0       0       0       0
  6931 ;;Total ram usage:        0 bytes
  6932 ;; Hardware stack levels used:    1
  6933 ;; This function calls:
  6934 ;;		Nothing
  6935 ;; This function is called by:
  6936 ;;		_ReadFromSerialEEPROM
  6937 ;;		_WriteToSerialEEPROM
  6938 ;; This function uses a non-reentrant model
  6939 ;;
  6940                           
  6941                           
  6942                           ;psect for function _SPI_Close
  6943  02B2                     _SPI_Close:
  6944  02B2                     l1725:	
  6945                           ;incstack = 0
  6946                           ; Regs used in _SPI_Close: []
  6947                           
  6948                           
  6949                           ;mcc_generated_files/spi.c: 89:     SSP1CON1bits.SSPEN = 0;
  6950  02B2  0024               	movlb	4	; select bank4
  6951  02B3  1295               	bcf	21,5	;volatile
  6952  02B4                     l28:
  6953  02B4  0008               	return
  6954  02B5                     __end_of_SPI_Close:
  6955                           
  6956                           	psect	text28
  6957  053A                     __ptext28:	
  6958 ;; *************** function _ReadFromMem *****************
  6959 ;; Defined at:
  6960 ;;		line 37 in file "apps/src/bootloader.c"
  6961 ;; Parameters:    Size  Location     Type
  6962 ;;  recv_frame      1    wreg     PTR unsigned char 
  6963 ;;		 -> main@recv_frame(68), 
  6964 ;;  send_frame      1    5[COMMON] PTR unsigned char 
  6965 ;;		 -> main@send_frame(66), 
  6966 ;; Auto vars:     Size  Location     Type
  6967 ;;  recv_frame      1    2[BANK0 ] PTR unsigned char 
  6968 ;;		 -> main@recv_frame(68), 
  6969 ;;  dbyte           2    3[BANK0 ] unsigned short 
  6970 ;;  def_addr        2    0[BANK0 ] unsigned short 
  6971 ;;  i               1    5[BANK0 ] unsigned char 
  6972 ;; Return value:  Size  Location     Type
  6973 ;;                  1    wreg      _Bool 
  6974 ;; Registers used:
  6975 ;;		wreg, fsr1l, fsr1h, status,2, status,0, pclath, cstack
  6976 ;; Tracked objects:
  6977 ;;		On entry : 0/0
  6978 ;;		On exit  : 0/0
  6979 ;;		Unchanged: 0/0
  6980 ;; Data sizes:     COMMON   BANK0   BANK1   BANK2   BANK3   BANK4   BANK5   BANK6   BANK7   BANK8   BANK9  BANK10  BANK1
      +1  BANK12  BANK13  BANK14  BANK15  BANK16  BANK17  BANK18  BANK19  BANK20  BANK21  BANK22  BANK23  BANK24  BANK25
  6981 ;;      Params:         1       0       0       0       0       0       0       0       0       0       0       0       
      +0       0       0       0       0       0       0       0       0       0       0       0       0       0       0
  6982 ;;      Locals:         0       6       0       0       0       0       0       0       0       0       0       0       
      +0       0       0       0       0       0       0       0       0       0       0       0       0       0       0
  6983 ;;      Temps:          7       0       0       0       0       0       0       0       0       0       0       0       
      +0       0       0       0       0       0       0       0       0       0       0       0       0       0       0
  6984 ;;      Totals:         8       6       0       0       0       0       0       0       0       0       0       0       
      +0       0       0       0       0       0       0       0       0       0       0       0       0       0       0
  6985 ;;Total ram usage:       14 bytes
  6986 ;; Hardware stack levels used:    1
  6987 ;; Hardware stack levels required when called:    1
  6988 ;; This function calls:
  6989 ;;		_FLASH_Read
  6990 ;; This function is called by:
  6991 ;;		_main
  6992 ;; This function uses a non-reentrant model
  6993 ;;
  6994                           
  6995                           
  6996                           ;psect for function _ReadFromMem
  6997  053A                     _ReadFromMem:
  6998                           
  6999                           ;incstack = 0
  7000                           ; Regs used in _ReadFromMem: [wreg+fsr1l+fsr1h+status,2+status,0+pclath+cstack]
  7001                           ;ReadFromMem@recv_frame stored from wreg
  7002  053A  0020               	movlb	0	; select bank0
  7003  053B  00A2               	movwf	ReadFromMem@recv_frame
  7004  053C                     l1983:
  7005                           
  7006                           ;apps/src/bootloader.c: 38:  uint8_t i = 0;
  7007  053C  01A5               	clrf	ReadFromMem@i
  7008                           
  7009                           ;apps/src/bootloader.c: 40:  uint16_t def_addr = 0;
  7010  053D  01A0               	clrf	ReadFromMem@def_addr
  7011  053E  01A1               	clrf	ReadFromMem@def_addr+1
  7012  053F                     l1985:
  7013                           
  7014                           ;apps/src/bootloader.c: 42:  def_addr = (uint16_t)(((recv_frame[2] << 8) & 0xFF00) | (re
      +                          cv_frame[3] & 0x00FF));
  7015  053F  0822               	movf	ReadFromMem@recv_frame,w
  7016  0540  3E03               	addlw	3
  7017  0541  0086               	movwf	6
  7018  0542  3001               	movlw	1	; select bank2/3
  7019  0543  0087               	movwf	7
  7020  0544  0801               	movf	1,w
  7021  0545  00F6               	movwf	??_ReadFromMem
  7022  0546  01F7               	clrf	??_ReadFromMem+1
  7023  0547  0822               	movf	ReadFromMem@recv_frame,w
  7024  0548  3E02               	addlw	2
  7025  0549  0086               	movwf	6
  7026  054A  3001               	movlw	1	; select bank2/3
  7027  054B  0087               	movwf	7
  7028  054C  0801               	movf	1,w
  7029  054D  00F8               	movwf	??_ReadFromMem+2
  7030  054E  01F9               	clrf	??_ReadFromMem+3
  7031  054F  0878               	movf	??_ReadFromMem+2,w
  7032  0550  00F9               	movwf	??_ReadFromMem+3
  7033  0551  01F8               	clrf	??_ReadFromMem+2
  7034  0552  3000               	movlw	0
  7035  0553  0578               	andwf	??_ReadFromMem+2,w
  7036  0554  00FB               	movwf	??_ReadFromMem+5
  7037  0555  30FF               	movlw	255
  7038  0556  0579               	andwf	??_ReadFromMem+3,w
  7039  0557  00FC               	movwf	??_ReadFromMem+6
  7040  0558  0876               	movf	??_ReadFromMem,w
  7041  0559  047B               	iorwf	??_ReadFromMem+5,w
  7042  055A  00A0               	movwf	ReadFromMem@def_addr
  7043  055B  0877               	movf	??_ReadFromMem+1,w
  7044  055C  047C               	iorwf	??_ReadFromMem+6,w
  7045  055D  00A1               	movwf	ReadFromMem@def_addr+1
  7046  055E                     l1987:
  7047                           
  7048                           ;apps/src/bootloader.c: 44:  if (recv_frame[2] == 0x80){
  7049  055E  0822               	movf	ReadFromMem@recv_frame,w
  7050  055F  3E02               	addlw	2
  7051  0560  0086               	movwf	6
  7052  0561  3001               	movlw	1	; select bank2/3
  7053  0562  0087               	movwf	7
  7054  0563  3080               	movlw	128
  7055  0564  0601               	xorwf	1,w
  7056  0565  1D03               	btfss	3,2
  7057  0566  2D68               	goto	u511
  7058  0567  2D69               	goto	u510
  7059  0568                     u511:
  7060  0568  2D8E               	goto	l1999
  7061  0569                     u510:
  7062  0569                     l1989:
  7063                           
  7064                           ;apps/src/bootloader.c: 45:   dbyte = FLASH_Read(def_addr);
  7065  0569  0821               	movf	ReadFromMem@def_addr+1,w
  7066  056A  00F1               	movwf	FLASH_Read@addr+1
  7067  056B  0820               	movf	ReadFromMem@def_addr,w
  7068  056C  00F0               	movwf	FLASH_Read@addr
  7069  056D  3183  23FB  3185   	fcall	_FLASH_Read
  7070  0570  0871               	movf	?_FLASH_Read+1,w
  7071  0571  0020               	movlb	0	; select bank0
  7072  0572  00A4               	movwf	ReadFromMem@dbyte+1
  7073  0573  0870               	movf	?_FLASH_Read,w
  7074  0574  00A3               	movwf	ReadFromMem@dbyte
  7075  0575                     l1991:
  7076                           
  7077                           ;apps/src/bootloader.c: 46:   send_frame[2] = (uint8_t)((dbyte & 0xFF00) >> 8);
  7078  0575  0824               	movf	ReadFromMem@dbyte+1,w
  7079  0576  00F6               	movwf	??_ReadFromMem
  7080  0577  0875               	movf	ReadFromMem@send_frame,w
  7081  0578  3E02               	addlw	2
  7082  0579  0086               	movwf	6
  7083  057A  0187               	clrf	7
  7084  057B  0876               	movf	??_ReadFromMem,w
  7085  057C  0081               	movwf	1
  7086  057D                     l1993:
  7087                           
  7088                           ;apps/src/bootloader.c: 47:   send_frame[3] = (uint8_t)(dbyte & 0x00FF);
  7089  057D  0823               	movf	ReadFromMem@dbyte,w
  7090  057E  00F6               	movwf	??_ReadFromMem
  7091  057F  0875               	movf	ReadFromMem@send_frame,w
  7092  0580  3E03               	addlw	3
  7093  0581  0086               	movwf	6
  7094  0582  0187               	clrf	7
  7095  0583  0876               	movf	??_ReadFromMem,w
  7096  0584  0081               	movwf	1
  7097  0585                     l1995:
  7098                           
  7099                           ;apps/src/bootloader.c: 48:   i++; i++;
  7100  0585  3001               	movlw	1
  7101  0586  00F6               	movwf	??_ReadFromMem
  7102  0587  0876               	movf	??_ReadFromMem,w
  7103  0588  07A5               	addwf	ReadFromMem@i,f
  7104  0589                     l1997:
  7105  0589  3001               	movlw	1
  7106  058A  00F6               	movwf	??_ReadFromMem
  7107  058B  0876               	movf	??_ReadFromMem,w
  7108  058C  07A5               	addwf	ReadFromMem@i,f
  7109                           
  7110                           ;apps/src/bootloader.c: 50:  } else {
  7111  058D  2DBF               	goto	l2017
  7112  058E                     l1999:
  7113                           
  7114                           ;apps/src/bootloader.c: 52:   for (i = 0; i != 0x0020 + 0x0020; i += 2){
  7115  058E  01A5               	clrf	ReadFromMem@i
  7116  058F                     l2005:
  7117                           
  7118                           ;apps/src/bootloader.c: 53:    dbyte = FLASH_Read(def_addr);
  7119  058F  0821               	movf	ReadFromMem@def_addr+1,w
  7120  0590  00F1               	movwf	FLASH_Read@addr+1
  7121  0591  0820               	movf	ReadFromMem@def_addr,w
  7122  0592  00F0               	movwf	FLASH_Read@addr
  7123  0593  3183  23FB  3185   	fcall	_FLASH_Read
  7124  0596  0871               	movf	?_FLASH_Read+1,w
  7125  0597  0020               	movlb	0	; select bank0
  7126  0598  00A4               	movwf	ReadFromMem@dbyte+1
  7127  0599  0870               	movf	?_FLASH_Read,w
  7128  059A  00A3               	movwf	ReadFromMem@dbyte
  7129  059B                     l2007:
  7130                           
  7131                           ;apps/src/bootloader.c: 54:    send_frame[i+2] = (uint8_t)((dbyte & 0xFF00) >> 8);
  7132  059B  0824               	movf	ReadFromMem@dbyte+1,w
  7133  059C  00F6               	movwf	??_ReadFromMem
  7134  059D  0825               	movf	ReadFromMem@i,w
  7135  059E  0775               	addwf	ReadFromMem@send_frame,w
  7136  059F  00F7               	movwf	??_ReadFromMem+1
  7137  05A0  0877               	movf	??_ReadFromMem+1,w
  7138  05A1  3E02               	addlw	2
  7139  05A2  0086               	movwf	6
  7140  05A3  0187               	clrf	7
  7141  05A4  0876               	movf	??_ReadFromMem,w
  7142  05A5  0081               	movwf	1
  7143  05A6                     l2009:
  7144                           
  7145                           ;apps/src/bootloader.c: 55:    send_frame[i+3] = (uint8_t)(dbyte & 0x00FF);
  7146  05A6  0823               	movf	ReadFromMem@dbyte,w
  7147  05A7  00F6               	movwf	??_ReadFromMem
  7148  05A8  0825               	movf	ReadFromMem@i,w
  7149  05A9  0775               	addwf	ReadFromMem@send_frame,w
  7150  05AA  00F7               	movwf	??_ReadFromMem+1
  7151  05AB  0877               	movf	??_ReadFromMem+1,w
  7152  05AC  3E03               	addlw	3
  7153  05AD  0086               	movwf	6
  7154  05AE  0187               	clrf	7
  7155  05AF  0876               	movf	??_ReadFromMem,w
  7156  05B0  0081               	movwf	1
  7157  05B1                     l2011:
  7158                           
  7159                           ;apps/src/bootloader.c: 56:    def_addr++;
  7160  05B1  3001               	movlw	1
  7161  05B2  07A0               	addwf	ReadFromMem@def_addr,f
  7162  05B3  3000               	movlw	0
  7163  05B4  3DA1               	addwfc	ReadFromMem@def_addr+1,f
  7164  05B5                     l2013:
  7165                           
  7166                           ;apps/src/bootloader.c: 57:   }
  7167  05B5  3002               	movlw	2
  7168  05B6  00F6               	movwf	??_ReadFromMem
  7169  05B7  0876               	movf	??_ReadFromMem,w
  7170  05B8  07A5               	addwf	ReadFromMem@i,f
  7171  05B9                     l2015:
  7172  05B9  3040               	movlw	64
  7173  05BA  0625               	xorwf	ReadFromMem@i,w
  7174  05BB  1D03               	btfss	3,2
  7175  05BC  2DBE               	goto	u521
  7176  05BD  2DBF               	goto	u520
  7177  05BE                     u521:
  7178  05BE  2D8F               	goto	l2005
  7179  05BF                     u520:
  7180  05BF                     l2017:
  7181                           
  7182                           ;apps/src/bootloader.c: 60:  send_frame[0] = i + 2;
  7183  05BF  0825               	movf	ReadFromMem@i,w
  7184  05C0  3E02               	addlw	2
  7185  05C1  00F6               	movwf	??_ReadFromMem
  7186  05C2  0875               	movf	ReadFromMem@send_frame,w
  7187  05C3  0086               	movwf	6
  7188  05C4  0187               	clrf	7
  7189  05C5  0876               	movf	??_ReadFromMem,w
  7190  05C6  0081               	movwf	1
  7191  05C7                     l2019:
  7192                           
  7193                           ;apps/src/bootloader.c: 61:  send_frame[1] = 0x02;
  7194  05C7  3002               	movlw	2
  7195  05C8  00F6               	movwf	??_ReadFromMem
  7196  05C9  0A75               	incf	ReadFromMem@send_frame,w
  7197  05CA  0086               	movwf	6
  7198  05CB  0187               	clrf	7
  7199  05CC  0876               	movf	??_ReadFromMem,w
  7200  05CD  0081               	movwf	1
  7201  05CE                     l2021:
  7202                           
  7203                           ;apps/src/bootloader.c: 62:  return 1;
  7204  05CE  3001               	movlw	1
  7205  05CF                     l341:
  7206  05CF  0008               	return
  7207  05D0                     __end_of_ReadFromMem:
  7208                           
  7209                           	psect	text29
  7210  03FB                     __ptext29:	
  7211 ;; *************** function _FLASH_Read *****************
  7212 ;; Defined at:
  7213 ;;		line 49 in file "apps/src/memory.c"
  7214 ;; Parameters:    Size  Location     Type
  7215 ;;  addr            2    0[COMMON] unsigned short 
  7216 ;; Auto vars:     Size  Location     Type
  7217 ;;  INR_state       1    4[COMMON] unsigned char 
  7218 ;; Return value:  Size  Location     Type
  7219 ;;                  2    0[COMMON] unsigned short 
  7220 ;; Registers used:
  7221 ;;		wreg, status,2, status,0
  7222 ;; Tracked objects:
  7223 ;;		On entry : 0/0
  7224 ;;		On exit  : 0/0
  7225 ;;		Unchanged: 0/0
  7226 ;; Data sizes:     COMMON   BANK0   BANK1   BANK2   BANK3   BANK4   BANK5   BANK6   BANK7   BANK8   BANK9  BANK10  BANK1
      +1  BANK12  BANK13  BANK14  BANK15  BANK16  BANK17  BANK18  BANK19  BANK20  BANK21  BANK22  BANK23  BANK24  BANK25
  7227 ;;      Params:         2       0       0       0       0       0       0       0       0       0       0       0       
      +0       0       0       0       0       0       0       0       0       0       0       0       0       0       0
  7228 ;;      Locals:         1       0       0       0       0       0       0       0       0       0       0       0       
      +0       0       0       0       0       0       0       0       0       0       0       0       0       0       0
  7229 ;;      Temps:          2       0       0       0       0       0       0       0       0       0       0       0       
      +0       0       0       0       0       0       0       0       0       0       0       0       0       0       0
  7230 ;;      Totals:         5       0       0       0       0       0       0       0       0       0       0       0       
      +0       0       0       0       0       0       0       0       0       0       0       0       0       0       0
  7231 ;;Total ram usage:        5 bytes
  7232 ;; Hardware stack levels used:    1
  7233 ;; This function calls:
  7234 ;;		Nothing
  7235 ;; This function is called by:
  7236 ;;		_ReadFromMem
  7237 ;; This function uses a non-reentrant model
  7238 ;;
  7239                           
  7240                           
  7241                           ;psect for function _FLASH_Read
  7242  03FB                     _FLASH_Read:
  7243  03FB                     l1859:	
  7244                           ;incstack = 0
  7245                           ; Regs used in _FLASH_Read: [wreg+status,2+status,0]
  7246                           
  7247                           
  7248                           ;apps/src/memory.c: 50:     uint8_t INR_state = INTCONbits.GIE;
  7249  03FB  3000               	movlw	0
  7250  03FC  1B8B               	btfsc	11,7	;volatile
  7251  03FD  3001               	movlw	1
  7252  03FE  00F4               	movwf	FLASH_Read@INR_state
  7253  03FF                     l1861:
  7254                           
  7255                           ;apps/src/memory.c: 51:     INTCONbits.GIE = 0;
  7256  03FF  138B               	bcf	11,7	;volatile
  7257                           
  7258                           ;apps/src/memory.c: 53:         EEADRH = (uint8_t)((addr & 0xFF00)>>8);
  7259  0400  0871               	movf	FLASH_Read@addr+1,w
  7260  0401  0023               	movlb	3	; select bank3
  7261  0402  0092               	movwf	18	;volatile
  7262  0403                     l1863:
  7263                           
  7264                           ;apps/src/memory.c: 54:         EEADRL = (uint8_t)(addr & 0x00FF);
  7265  0403  0870               	movf	FLASH_Read@addr,w
  7266  0404  0091               	movwf	17	;volatile
  7267  0405                     l1865:
  7268                           
  7269                           ;apps/src/memory.c: 56:     if ((uint8_t)((addr & 0xFF00) >> 8) == 0x80){
  7270  0405  0871               	movf	FLASH_Read@addr+1,w
  7271  0406  00F3               	movwf	??_FLASH_Read+1
  7272  0407  0870               	movf	FLASH_Read@addr,w
  7273  0408  00F2               	movwf	??_FLASH_Read
  7274  0409  0873               	movf	??_FLASH_Read+1,w
  7275  040A  00F2               	movwf	??_FLASH_Read
  7276  040B  01F3               	clrf	??_FLASH_Read+1
  7277  040C  3080               	movlw	128
  7278  040D  0672               	xorwf	??_FLASH_Read,w
  7279  040E  1D03               	btfss	3,2
  7280  040F  2C11               	goto	u431
  7281  0410  2C12               	goto	u430
  7282  0411                     u431:
  7283  0411  2C14               	goto	l397
  7284  0412                     u430:
  7285  0412                     l1867:
  7286                           
  7287                           ;apps/src/memory.c: 57:         EECON1bits.CFGS = 1;
  7288  0412  1715               	bsf	21,6	;volsfr
  7289                           
  7290                           ;apps/src/memory.c: 58:     } else {
  7291  0413  2C15               	goto	l398
  7292  0414                     l397:
  7293                           
  7294                           ;apps/src/memory.c: 59:         EECON1bits.CFGS = 0;
  7295  0414  1315               	bcf	21,6	;volsfr
  7296  0415                     l398:	
  7297                           ;apps/src/memory.c: 60:     }
  7298                           
  7299                           
  7300                           ;apps/src/memory.c: 62:     EECON1bits.EEPGD = 1;
  7301  0415  1795               	bsf	21,7	;volsfr
  7302                           
  7303                           ;apps/src/memory.c: 64:     EECON1bits.RD = 1;
  7304  0416  1415               	bsf	21,0	;volsfr
  7305                           
  7306                           ;apps/src/memory.c: 65:     __nop();
  7307  0417  0000               	nop
  7308                           
  7309                           ;apps/src/memory.c: 66:     __nop();
  7310  0418  0000               	nop
  7311  0419                     l1869:
  7312                           
  7313                           ;apps/src/memory.c: 68:     INTCONbits.GIE = INR_state;
  7314  0419  0C74               	rrf	FLASH_Read@INR_state,w
  7315  041A  1C03               	skipc
  7316  041B  138B               	bcf	11,7	;volatile
  7317  041C  1803               	skipnc
  7318  041D  178B               	bsf	11,7	;volatile
  7319  041E                     l1871:
  7320                           
  7321                           ;apps/src/memory.c: 69:     return ((uint16_t)((EEDATH << 8) | EEDATL));
  7322  041E  0023               	movlb	3	; select bank3
  7323  041F  0814               	movf	20,w	;volatile
  7324  0420  00F1               	movwf	?_FLASH_Read+1
  7325  0421  0813               	movf	19,w	;volatile
  7326  0422  00F0               	movwf	?_FLASH_Read
  7327  0423                     l399:
  7328  0423  0008               	return
  7329  0424                     __end_of_FLASH_Read:
  7330                           
  7331                           	psect	text30
  7332  033A                     __ptext30:	
  7333 ;; *************** function _DefineError *****************
  7334 ;; Defined at:
  7335 ;;		line 8 in file "apps/src/bootloader.c"
  7336 ;; Parameters:    Size  Location     Type
  7337 ;;  send_frame      1    wreg     PTR unsigned char 
  7338 ;;		 -> main@send_frame(66), 
  7339 ;; Auto vars:     Size  Location     Type
  7340 ;;  send_frame      1    1[COMMON] PTR unsigned char 
  7341 ;;		 -> main@send_frame(66), 
  7342 ;; Return value:  Size  Location     Type
  7343 ;;                  1    wreg      _Bool 
  7344 ;; Registers used:
  7345 ;;		wreg, fsr1l, fsr1h
  7346 ;; Tracked objects:
  7347 ;;		On entry : 0/0
  7348 ;;		On exit  : 0/0
  7349 ;;		Unchanged: 0/0
  7350 ;; Data sizes:     COMMON   BANK0   BANK1   BANK2   BANK3   BANK4   BANK5   BANK6   BANK7   BANK8   BANK9  BANK10  BANK1
      +1  BANK12  BANK13  BANK14  BANK15  BANK16  BANK17  BANK18  BANK19  BANK20  BANK21  BANK22  BANK23  BANK24  BANK25
  7351 ;;      Params:         0       0       0       0       0       0       0       0       0       0       0       0       
      +0       0       0       0       0       0       0       0       0       0       0       0       0       0       0
  7352 ;;      Locals:         1       0       0       0       0       0       0       0       0       0       0       0       
      +0       0       0       0       0       0       0       0       0       0       0       0       0       0       0
  7353 ;;      Temps:          1       0       0       0       0       0       0       0       0       0       0       0       
      +0       0       0       0       0       0       0       0       0       0       0       0       0       0       0
  7354 ;;      Totals:         2       0       0       0       0       0       0       0       0       0       0       0       
      +0       0       0       0       0       0       0       0       0       0       0       0       0       0       0
  7355 ;;Total ram usage:        2 bytes
  7356 ;; Hardware stack levels used:    1
  7357 ;; This function calls:
  7358 ;;		Nothing
  7359 ;; This function is called by:
  7360 ;;		_main
  7361 ;; This function uses a non-reentrant model
  7362 ;;
  7363                           
  7364                           
  7365                           ;psect for function _DefineError
  7366  033A                     _DefineError:
  7367                           
  7368                           ;incstack = 0
  7369                           ; Regs used in _DefineError: [wregfsr1]
  7370                           ;DefineError@send_frame stored from wreg
  7371  033A  00F1               	movwf	DefineError@send_frame
  7372  033B                     l2147:
  7373                           
  7374                           ;apps/src/bootloader.c: 9:  send_frame[0] = 0x02;
  7375  033B  3002               	movlw	2
  7376  033C  00F0               	movwf	??_DefineError
  7377  033D  0871               	movf	DefineError@send_frame,w
  7378  033E  0086               	movwf	6
  7379  033F  0187               	clrf	7
  7380  0340  0870               	movf	??_DefineError,w
  7381  0341  0081               	movwf	1
  7382                           
  7383                           ;apps/src/bootloader.c: 10:  send_frame[1] = 0xFF;
  7384  0342  30FF               	movlw	255
  7385  0343  00F0               	movwf	??_DefineError
  7386  0344  0A71               	incf	DefineError@send_frame,w
  7387  0345  0086               	movwf	6
  7388  0346  0187               	clrf	7
  7389  0347  0870               	movf	??_DefineError,w
  7390  0348  0081               	movwf	1
  7391  0349                     l2149:
  7392                           
  7393                           ;apps/src/bootloader.c: 11:  return 1;
  7394  0349  3001               	movlw	1
  7395  034A                     l334:
  7396  034A  0008               	return
  7397  034B                     __end_of_DefineError:
  7398                           
  7399                           	psect	text31
  7400  034B                     __ptext31:	
  7401 ;; *************** function _ClearArray *****************
  7402 ;; Defined at:
  7403 ;;		line 3 in file "apps/src/bootloader.c"
  7404 ;; Parameters:    Size  Location     Type
  7405 ;;  array           2    0[COMMON] PTR unsigned char 
  7406 ;;		 -> main@send_frame(66), main@recv_frame(68), 
  7407 ;; Auto vars:     Size  Location     Type
  7408 ;;  i               1    4[COMMON] unsigned char 
  7409 ;; Return value:  Size  Location     Type
  7410 ;;                  1    wreg      void 
  7411 ;; Registers used:
  7412 ;;		wreg, fsr1l, fsr1h, status,2, status,0
  7413 ;; Tracked objects:
  7414 ;;		On entry : 0/0
  7415 ;;		On exit  : 0/0
  7416 ;;		Unchanged: 0/0
  7417 ;; Data sizes:     COMMON   BANK0   BANK1   BANK2   BANK3   BANK4   BANK5   BANK6   BANK7   BANK8   BANK9  BANK10  BANK1
      +1  BANK12  BANK13  BANK14  BANK15  BANK16  BANK17  BANK18  BANK19  BANK20  BANK21  BANK22  BANK23  BANK24  BANK25
  7418 ;;      Params:         2       0       0       0       0       0       0       0       0       0       0       0       
      +0       0       0       0       0       0       0       0       0       0       0       0       0       0       0
  7419 ;;      Locals:         1       0       0       0       0       0       0       0       0       0       0       0       
      +0       0       0       0       0       0       0       0       0       0       0       0       0       0       0
  7420 ;;      Temps:          2       0       0       0       0       0       0       0       0       0       0       0       
      +0       0       0       0       0       0       0       0       0       0       0       0       0       0       0
  7421 ;;      Totals:         5       0       0       0       0       0       0       0       0       0       0       0       
      +0       0       0       0       0       0       0       0       0       0       0       0       0       0       0
  7422 ;;Total ram usage:        5 bytes
  7423 ;; Hardware stack levels used:    1
  7424 ;; This function calls:
  7425 ;;		Nothing
  7426 ;; This function is called by:
  7427 ;;		_main
  7428 ;; This function uses a non-reentrant model
  7429 ;;
  7430                           
  7431                           
  7432                           ;psect for function _ClearArray
  7433  034B                     _ClearArray:
  7434  034B                     l1951:	
  7435                           ;incstack = 0
  7436                           ; Regs used in _ClearArray: [wreg+fsr1l+fsr1h+status,2+status,0]
  7437                           
  7438                           
  7439                           ;apps/src/bootloader.c: 4:  uint8_t i = 0;
  7440  034B  01F4               	clrf	ClearArray@i
  7441                           
  7442                           ;apps/src/bootloader.c: 5:     for (i = 0; i != 66; i++){array[i]=0x00;}
  7443  034C  01F4               	clrf	ClearArray@i
  7444  034D                     l1957:
  7445  034D  0874               	movf	ClearArray@i,w
  7446  034E  00F2               	movwf	??_ClearArray
  7447  034F  01F3               	clrf	??_ClearArray+1
  7448  0350  0872               	movf	??_ClearArray,w
  7449  0351  0770               	addwf	ClearArray@array,w
  7450  0352  0086               	movwf	6
  7451  0353  0873               	movf	??_ClearArray+1,w
  7452  0354  3D71               	addwfc	ClearArray@array+1,w
  7453  0355  0087               	movwf	7
  7454  0356  0181               	clrf	1
  7455  0357                     l1959:
  7456  0357  3001               	movlw	1
  7457  0358  00F2               	movwf	??_ClearArray
  7458  0359  0872               	movf	??_ClearArray,w
  7459  035A  07F4               	addwf	ClearArray@i,f
  7460  035B                     l1961:
  7461  035B  3042               	movlw	66
  7462  035C  0674               	xorwf	ClearArray@i,w
  7463  035D  1D03               	btfss	3,2
  7464  035E  2B60               	goto	u481
  7465  035F  2B61               	goto	u480
  7466  0360                     u481:
  7467  0360  2B4D               	goto	l1957
  7468  0361                     u480:
  7469  0361                     l331:
  7470  0361  0008               	return
  7471  0362                     __end_of_ClearArray:
  7472  007E                     btemp	set	126	;btemp
  7473  007E                     wtemp0	set	126
  7474                           
  7475                           	psect	config
  7476                           
  7477                           ;Config register CONFIG1 @ 0x8007
  7478                           ;	Oscillator Selection
  7479                           ;	FOSC = INTOSC, INTOSC oscillator: I/O function on CLKIN pin
  7480                           ;	Watchdog Timer Enable
  7481                           ;	WDTE = OFF, WDT disabled
  7482                           ;	Power-up Timer Enable
  7483                           ;	PWRTE = ON, PWRT enabled
  7484                           ;	MCLR Pin Function Select
  7485                           ;	MCLRE = OFF, MCLR/VPP pin function is digital input
  7486                           ;	Flash Program Memory Code Protection
  7487                           ;	CP = OFF, Program memory code protection is disabled
  7488                           ;	Data Memory Code Protection
  7489                           ;	CPD = OFF, Data memory code protection is disabled
  7490                           ;	Brown-out Reset Enable
  7491                           ;	BOREN = OFF, Brown-out Reset disabled
  7492                           ;	Clock Out Enable
  7493                           ;	CLKOUTEN = OFF, CLKOUT function is disabled. I/O or oscillator function on the CLKOUT 
      +                          pin
  7494                           ;	Internal/External Switchover
  7495                           ;	IESO = ON, Internal/External Switchover mode is enabled
  7496                           ;	Fail-Safe Clock Monitor Enable
  7497                           ;	FCMEN = ON, Fail-Safe Clock Monitor is enabled
  7498  8007                     	org	32775
  7499  8007  3984               	dw	14724
  7500                           
  7501                           ;Config register CONFIG2 @ 0x8008
  7502                           ;	Flash Memory Self-Write Protection
  7503                           ;	WRT = OFF, Write protection off
  7504                           ;	Voltage Regulator Capacitor Enable bit
  7505                           ;	VCAPEN = OFF, Vcap functionality is disabled on RA6.
  7506                           ;	PLL Enable
  7507                           ;	PLLEN = ON, 4x PLL enabled
  7508                           ;	Stack Overflow/Underflow Reset Enable
  7509                           ;	STVREN = ON, Stack Overflow or Underflow will cause a Reset
  7510                           ;	Brown-out Reset Voltage Selection
  7511                           ;	BORV = LO, Brown-out Reset Voltage (Vbor), low trip point selected.
  7512                           ;	Low Power Brown-Out Reset Enable Bit
  7513                           ;	LPBOR = OFF, Low power brown-out is disabled
  7514                           ;	Low-Voltage Programming Enable
  7515                           ;	LVP = ON, Low-voltage programming enabled
  7516  8008                     	org	32776
  7517  8008  3FFF               	dw	16383

Data Sizes:
    Strings     0
    Constant    4
    Data        0
    BSS         1
    Persistent  38
    Stack       0

Auto Spaces:
    Space          Size  Autos    Used
    COMMON           14     14      14
    BANK0            80     75      80
    BANK1            80     66      68
    BANK2            80     68      68
    BANK3            80      0       0
    BANK4            80      0       0
    BANK5            80      0       0
    BANK6            80      0       0
    BANK7            80      0       0
    BANK8            80      0       0
    BANK9            80      0       0
    BANK10           80      0       0
    BANK11           80      0       0
    BANK12           80      0       0
    BANK13           80      0       0
    BANK14           80      0       0
    BANK15           80      0       0
    BANK16           80      0       0
    BANK17           80      0       0
    BANK18           80      0       0
    BANK19           80      0       0
    BANK20           80      0       0
    BANK21           80      0       0
    BANK22           80      0       0
    BANK23           80      0       0
    BANK24           80      0       0
    BANK25           32      0       0

Pointer List with Targets:

    WriteToSerialEEPROM@send_frame	PTR unsigned char  size(1) Largest target is 66
		 -> main@send_frame(BANK1[66]), 

    WriteToSerialEEPROM@recv_frame	PTR unsigned char  size(1) Largest target is 68
		 -> main@recv_frame(BANK2[68]), 

    ReadFromSerialEEPROM@send_frame	PTR unsigned char  size(1) Largest target is 66
		 -> main@send_frame(BANK1[66]), 

    ReadFromSerialEEPROM@recv_frame	PTR unsigned char  size(1) Largest target is 68
		 -> main@recv_frame(BANK2[68]), 

    FLASH_Write@buffer	PTR unsigned char  size(1) Largest target is 68
		 -> main@recv_frame(BANK2[68]), 

    UART_dataWrite@data_ptr	PTR unsigned char  size(1) Largest target is 66
		 -> main@send_frame(BANK1[66]), 

    WriteToMem@send_frame	PTR unsigned char  size(1) Largest target is 66
		 -> main@send_frame(BANK1[66]), 

    WriteToMem@recv_frame	PTR unsigned char  size(1) Largest target is 68
		 -> main@recv_frame(BANK2[68]), 

    ReadFromMem@send_frame	PTR unsigned char  size(1) Largest target is 66
		 -> main@send_frame(BANK1[66]), 

    ReadFromMem@recv_frame	PTR unsigned char  size(1) Largest target is 68
		 -> main@recv_frame(BANK2[68]), 

    DefineError@send_frame	PTR unsigned char  size(1) Largest target is 66
		 -> main@send_frame(BANK1[66]), 

    ClearArray@array	PTR unsigned char  size(2) Largest target is 68
		 -> main@send_frame(BANK1[66]), main@recv_frame(BANK2[68]), 

    EUSART_SetErrorHandler@interruptHandler	PTR FTN()void  size(2) Largest target is 1
		 -> EUSART_DefaultErrorHandler(), 

    EUSART_ErrorHandler	PTR FTN()void  size(2) Largest target is 1
		 -> Absolute function(), EUSART_DefaultErrorHandler(), 

    EUSART_SetOverrunErrorHandler@interruptHandler	PTR FTN()void  size(2) Largest target is 1
		 -> EUSART_DefaultOverrunErrorHandler(), 

    EUSART_OverrunErrorHandler	PTR FTN()void  size(2) Largest target is 1
		 -> Absolute function(), EUSART_DefaultOverrunErrorHandler(), 

    EUSART_SetFramingErrorHandler@interruptHandler	PTR FTN()void  size(2) Largest target is 1
		 -> EUSART_DefaultFramingErrorHandler(), 

    EUSART_FramingErrorHandler	PTR FTN()void  size(2) Largest target is 1
		 -> Absolute function(), EUSART_DefaultFramingErrorHandler(), 

    SPI_ReadBlock@block	PTR void  size(1) Largest target is 64
		 -> ReadFromSerialEEPROM@buffer(BANK0[64]), 

    SPI_ReadBlock@data	PTR unsigned char  size(1) Largest target is 64
		 -> ReadFromSerialEEPROM@buffer(BANK0[64]), 

    SPI_WriteBlock@block	PTR void  size(1) Largest target is 67
		 -> WriteToSerialEEPROM@buffer(BANK0[67]), ReadFromSerialEEPROM@buffer(BANK0[64]), 

    SPI_WriteBlock@data	PTR unsigned char  size(1) Largest target is 67
		 -> WriteToSerialEEPROM@buffer(BANK0[67]), ReadFromSerialEEPROM@buffer(BANK0[64]), 


Critical Paths under _main in COMMON

    _main->_WriteToMem
    _WriteToSerialEEPROM->_SPI_WriteBlock
    _WriteToMem->_FLASH_Write
    _UART_dataWrite->_EUSART_Write
    _UART_dataWrite->_EUSART_is_tx_ready
    _EUSART_Initialize->_EUSART_SetErrorHandler
    _EUSART_Initialize->_EUSART_SetFramingErrorHandler
    _EUSART_Initialize->_EUSART_SetOverrunErrorHandler
    _ReadFromSerialEEPROM->_SPI_ReadBlock
    _ReadFromSerialEEPROM->_SPI_WriteBlock
    _SPI_WriteBlock->_SPI_ExchangeByte
    _SPI_ReadBlock->_SPI_ExchangeByte
    _ReadFromMem->_FLASH_Read

Critical Paths under _main in BANK0

    _main->_WriteToSerialEEPROM

Critical Paths under _main in BANK1

    None.

Critical Paths under _main in BANK2

    None.

Critical Paths under _main in BANK3

    None.

Critical Paths under _main in BANK4

    None.

Critical Paths under _main in BANK5

    None.

Critical Paths under _main in BANK6

    None.

Critical Paths under _main in BANK7

    None.

Critical Paths under _main in BANK8

    None.

Critical Paths under _main in BANK9

    None.

Critical Paths under _main in BANK10

    None.

Critical Paths under _main in BANK11

    None.

Critical Paths under _main in BANK12

    None.

Critical Paths under _main in BANK13

    None.

Critical Paths under _main in BANK14

    None.

Critical Paths under _main in BANK15

    None.

Critical Paths under _main in BANK16

    None.

Critical Paths under _main in BANK17

    None.

Critical Paths under _main in BANK18

    None.

Critical Paths under _main in BANK19

    None.

Critical Paths under _main in BANK20

    None.

Critical Paths under _main in BANK21

    None.

Critical Paths under _main in BANK22

    None.

Critical Paths under _main in BANK23

    None.

Critical Paths under _main in BANK24

    None.

Critical Paths under _main in BANK25

    None.

Call Graph Tables:

 ---------------------------------------------------------------------------------
 (Depth) Function   	        Calls       Base Space   Used Autos Params    Refs
 ---------------------------------------------------------------------------------
 (0) _main                                               139   139      0    5656
                                             70 BANK0      5     5      0
                                              0 BANK1     66    66      0
                                              0 BANK2     68    68      0
                         _ClearArray
                        _DefineError
                        _ReadFromMem
               _ReadFromSerialEEPROM
                  _SYSTEM_Initialize
                      _UART_byteRead
                     _UART_dataWrite
                    _UART_preamFound
                         _WriteToMem
                _WriteToSerialEEPROM
 ---------------------------------------------------------------------------------
 (1) _WriteToSerialEEPROM                                 73    72      1    1312
                                              6 COMMON     3     2      1
                                              0 BANK0     70    70      0
                          _SPI_Close
                           _SPI_Open
                     _SPI_WriteBlock
 ---------------------------------------------------------------------------------
 (1) _WriteToMem                                           4     3      1     610
                                             12 COMMON     2     1      1
                                              0 BANK0      2     2      0
                        _FLASH_Write
 ---------------------------------------------------------------------------------
 (2) _FLASH_Write                                         12    12      0     390
                                              0 COMMON    12    12      0
                   _UnlockFlashWrite
 ---------------------------------------------------------------------------------
 (3) _UnlockFlashWrite                                     0     0      0       0
 ---------------------------------------------------------------------------------
 (1) _UART_preamFound                                      2     2      0      24
                                              0 COMMON     2     2      0
                        _EUSART_Read
                 _EUSART_is_rx_ready
 ---------------------------------------------------------------------------------
 (2) _EUSART_is_rx_ready                                   0     0      0       0
 ---------------------------------------------------------------------------------
 (1) _UART_dataWrite                                       4     3      1     252
                                              1 COMMON     4     3      1
                       _EUSART_Write
                  _EUSART_is_tx_done
                 _EUSART_is_tx_ready
 ---------------------------------------------------------------------------------
 (2) _EUSART_is_tx_ready                                   1     1      0      24
                                              0 COMMON     1     1      0
 ---------------------------------------------------------------------------------
 (2) _EUSART_is_tx_done                                    0     0      0       0
 ---------------------------------------------------------------------------------
 (2) _EUSART_Write                                         1     1      0      22
                                              0 COMMON     1     1      0
 ---------------------------------------------------------------------------------
 (1) _UART_byteRead                                        0     0      0       0
                        _EUSART_Read
 ---------------------------------------------------------------------------------
 (2) _EUSART_Read                                          0     0      0       0
 ---------------------------------------------------------------------------------
 (1) _SYSTEM_Initialize                                    0     0      0     294
                  _EUSART_Initialize
              _OSCILLATOR_Initialize
             _PIN_MANAGER_Initialize
                     _SPI_Initialize
                     _WDT_Initialize
 ---------------------------------------------------------------------------------
 (2) _WDT_Initialize                                       0     0      0       0
 ---------------------------------------------------------------------------------
 (2) _SPI_Initialize                                       0     0      0       0
 ---------------------------------------------------------------------------------
 (2) _PIN_MANAGER_Initialize                               0     0      0       0
 ---------------------------------------------------------------------------------
 (2) _OSCILLATOR_Initialize                                0     0      0       0
 ---------------------------------------------------------------------------------
 (2) _EUSART_Initialize                                    0     0      0     294
             _EUSART_SetErrorHandler
      _EUSART_SetFramingErrorHandler
      _EUSART_SetOverrunErrorHandler
 ---------------------------------------------------------------------------------
 (3) _EUSART_SetOverrunErrorHandler                        2     0      2      98
                                              0 COMMON     2     0      2
 ---------------------------------------------------------------------------------
 (3) _EUSART_SetFramingErrorHandler                        2     0      2      98
                                              0 COMMON     2     0      2
 ---------------------------------------------------------------------------------
 (3) _EUSART_SetErrorHandler                               2     0      2      98
                                              0 COMMON     2     0      2
 ---------------------------------------------------------------------------------
 (1) _ReadFromSerialEEPROM                                70    69      1    1373
                                              6 COMMON     3     2      1
                                              0 BANK0     67    67      0
                          _SPI_Close
                           _SPI_Open
                      _SPI_ReadBlock
                     _SPI_WriteBlock
 ---------------------------------------------------------------------------------
 (2) _SPI_WriteBlock                                       5     3      2     635
                                              1 COMMON     5     3      2
                   _SPI_ExchangeByte
 ---------------------------------------------------------------------------------
 (2) _SPI_ReadBlock                                        5     3      2     199
                                              1 COMMON     5     3      2
                   _SPI_ExchangeByte
 ---------------------------------------------------------------------------------
 (3) _SPI_ExchangeByte                                     1     1      0      22
                                              0 COMMON     1     1      0
 ---------------------------------------------------------------------------------
 (2) _SPI_Open                                             4     4      0      88
                                              0 COMMON     4     4      0
 ---------------------------------------------------------------------------------
 (2) _SPI_Close                                            0     0      0       0
 ---------------------------------------------------------------------------------
 (1) _ReadFromMem                                         14    13      1     801
                                              5 COMMON     8     7      1
                                              0 BANK0      6     6      0
                         _FLASH_Read
 ---------------------------------------------------------------------------------
 (2) _FLASH_Read                                           5     3      2     241
                                              0 COMMON     5     3      2
 ---------------------------------------------------------------------------------
 (1) _DefineError                                          2     2      0     110
                                              0 COMMON     2     2      0
 ---------------------------------------------------------------------------------
 (1) _ClearArray                                           5     3      2     239
                                              0 COMMON     5     3      2
 ---------------------------------------------------------------------------------
 Estimated maximum stack depth 3
 ---------------------------------------------------------------------------------

 Call Graph Graphs:

 _main (ROOT)
   _ClearArray
   _DefineError
   _ReadFromMem
     _FLASH_Read
   _ReadFromSerialEEPROM
     _SPI_Close
     _SPI_Open
     _SPI_ReadBlock
       _SPI_ExchangeByte
     _SPI_WriteBlock
       _SPI_ExchangeByte
   _SYSTEM_Initialize
     _EUSART_Initialize
       _EUSART_SetErrorHandler
       _EUSART_SetFramingErrorHandler
       _EUSART_SetOverrunErrorHandler
     _OSCILLATOR_Initialize
     _PIN_MANAGER_Initialize
     _SPI_Initialize
     _WDT_Initialize
   _UART_byteRead
     _EUSART_Read
   _UART_dataWrite
     _EUSART_Write
     _EUSART_is_tx_done
     _EUSART_is_tx_ready
   _UART_preamFound
     _EUSART_Read
     _EUSART_is_rx_ready
   _WriteToMem
     _FLASH_Write
       _UnlockFlashWrite
   _WriteToSerialEEPROM
     _SPI_Close
     _SPI_Open
     _SPI_WriteBlock
       _SPI_ExchangeByte

 Address spaces:
Name               Size   Autos  Total    Cost      Usage
BIGRAM             7F0      0       0       0        0.0%
EEDATA             100      0       0       0        0.0%
NULL                 0      0       0       0        0.0%
CODE                 0      0       0       0        0.0%
BITCOMMON            E      0       0       1        0.0%
BITSFR0              0      0       0       1        0.0%
SFR0                 0      0       0       1        0.0%
COMMON               E      E       E       2      100.0%
BITSFR1              0      0       0       2        0.0%
SFR1                 0      0       0       2        0.0%
BITSFR2              0      0       0       3        0.0%
SFR2                 0      0       0       3        0.0%
STACK                0      0       0       3        0.0%
BITBANK0            50      0       0       4        0.0%
BITSFR3              0      0       0       4        0.0%
SFR3                 0      0       0       4        0.0%
BANK0               50     4B      50       5      100.0%
BITSFR4              0      0       0       5        0.0%
SFR4                 0      0       0       5        0.0%
BITBANK1            50      0       0       6        0.0%
BITSFR5              0      0       0       6        0.0%
SFR5                 0      0       0       6        0.0%
BANK1               50     42      44       7       85.0%
BITSFR6              0      0       0       7        0.0%
SFR6                 0      0       0       7        0.0%
BITBANK2            50      0       0       8        0.0%
BITSFR7              0      0       0       8        0.0%
SFR7                 0      0       0       8        0.0%
BANK2               50     44      44       9       85.0%
BITSFR8              0      0       0       9        0.0%
SFR8                 0      0       0       9        0.0%
BITBANK3            50      0       0      10        0.0%
BITSFR9              0      0       0      10        0.0%
SFR9                 0      0       0      10        0.0%
BANK3               50      0       0      11        0.0%
BITSFR10             0      0       0      11        0.0%
SFR10                0      0       0      11        0.0%
BITBANK4            50      0       0      12        0.0%
BITSFR11             0      0       0      12        0.0%
SFR11                0      0       0      12        0.0%
BANK4               50      0       0      13        0.0%
BITSFR12             0      0       0      13        0.0%
SFR12                0      0       0      13        0.0%
BITSFR13             0      0       0      14        0.0%
SFR13                0      0       0      14        0.0%
ABS                  0      0      E6      14        0.0%
BITBANK5            50      0       0      15        0.0%
BITSFR14             0      0       0      15        0.0%
SFR14                0      0       0      15        0.0%
BANK5               50      0       0      16        0.0%
BITSFR15             0      0       0      16        0.0%
SFR15                0      0       0      16        0.0%
BITBANK6            50      0       0      17        0.0%
BITSFR16             0      0       0      17        0.0%
SFR16                0      0       0      17        0.0%
BANK6               50      0       0      18        0.0%
BITSFR17             0      0       0      18        0.0%
SFR17                0      0       0      18        0.0%
BITBANK7            50      0       0      19        0.0%
BITSFR18             0      0       0      19        0.0%
SFR18                0      0       0      19        0.0%
BANK7               50      0       0      20        0.0%
BITSFR19             0      0       0      20        0.0%
SFR19                0      0       0      20        0.0%
BITBANK8            50      0       0      21        0.0%
BITSFR20             0      0       0      21        0.0%
SFR20                0      0       0      21        0.0%
BANK8               50      0       0      22        0.0%
BITSFR21             0      0       0      22        0.0%
SFR21                0      0       0      22        0.0%
BITBANK9            50      0       0      23        0.0%
BITSFR22             0      0       0      23        0.0%
SFR22                0      0       0      23        0.0%
BANK9               50      0       0      24        0.0%
BITSFR23             0      0       0      24        0.0%
SFR23                0      0       0      24        0.0%
BITBANK10           50      0       0      25        0.0%
BITSFR24             0      0       0      25        0.0%
SFR24                0      0       0      25        0.0%
BANK10              50      0       0      26        0.0%
BITSFR25             0      0       0      26        0.0%
SFR25                0      0       0      26        0.0%
BITBANK11           50      0       0      27        0.0%
BITSFR26             0      0       0      27        0.0%
SFR26                0      0       0      27        0.0%
BITSFR27             0      0       0      28        0.0%
SFR27                0      0       0      28        0.0%
DATA                 0      0      E6      28        0.0%
BANK11              50      0       0      29        0.0%
BITSFR28             0      0       0      29        0.0%
SFR28                0      0       0      29        0.0%
BITBANK12           50      0       0      30        0.0%
BITSFR29             0      0       0      30        0.0%
SFR29                0      0       0      30        0.0%
BANK12              50      0       0      31        0.0%
BITSFR30             0      0       0      31        0.0%
SFR30                0      0       0      31        0.0%
BITBANK13           50      0       0      32        0.0%
BITSFR31             0      0       0      32        0.0%
SFR31                0      0       0      32        0.0%
BANK13              50      0       0      33        0.0%
BITBANK14           50      0       0      34        0.0%
BANK14              50      0       0      35        0.0%
BITBANK15           50      0       0      36        0.0%
BANK15              50      0       0      37        0.0%
BITBANK16           50      0       0      38        0.0%
BANK16              50      0       0      39        0.0%
BITBANK17           50      0       0      40        0.0%
BANK17              50      0       0      41        0.0%
BITBANK18           50      0       0      42        0.0%
BANK18              50      0       0      43        0.0%
BITBANK19           50      0       0      44        0.0%
BANK19              50      0       0      45        0.0%
BITBANK20           50      0       0      46        0.0%
BANK20              50      0       0      47        0.0%
BITBANK21           50      0       0      48        0.0%
BANK21              50      0       0      49        0.0%
BITBANK22           50      0       0      50        0.0%
BANK22              50      0       0      51        0.0%
BITBANK23           50      0       0      52        0.0%
BANK23              50      0       0      53        0.0%
BITBANK24           50      0       0      54        0.0%
BANK24              50      0       0      55        0.0%
BITBANK25           20      0       0      56        0.0%
BANK25              20      0       0      57        0.0%


Microchip Technology PIC Macro Assembler V2.20 build 20200408173844 
Symbol Table                                                                                   Sun Sep  6 16:29:10 2020

                       SPI_ReadBlock@blockSize 0071                                 _SPI_Initialize 02F3  
                                           l21 02FE                                             l31 0303  
                                           l25 04DE                                             l33 0308  
                                           l34 030B                                             l28 02B4  
                                           l55 03D7                                             l49 0397  
                          ReadFromMem@def_addr 0020                                            l104 03FA  
                                          l112 02C5                                            l121 030C  
                                          l131 02F2                                            l115 02C0  
                                          l300 0747                                            l125 031A  
                                          l109 0329                                            l301 075D  
                                          l143 02D1                                            l128 02EA  
                                          l146 02D7                                            l402 0618  
                                          l331 0361                                            l315 07DE  
                                          l172 0339                                            l404 062B  
                                          l341 05CF                                            l149 02CB  
                                          l405 0670                                            l334 034A  
                                          l175 02DF                                            l407 0657  
                                          l257 048F                                            l345 03B6  
                                          l434 0539                                            l178 02B8  
                                          l365 0453                                            l373 0379  
                                          l471 0722                                            l368 02BC  
                                          l464 06FD                                            l297 073C  
                                          l394 02E8                                            l299 0745  
                                          l397 0414                                            l398 0415  
                                          l399 0423                                            u400 0311  
                                          u401 0310                                            u410 0317  
                                          u411 0316                                            u340 0308  
                                          u420 02EF                                            u500 0376  
                                          u341 0307                                            u421 02EE  
                                          u501 0375                                            u430 0412  
                                          u510 0569                                            u350 0496  
                                          u431 0411                                            u511 0568  
                                          u351 0495                                            u520 05BF  
                                          u360 0397                                            u440 0608  
                                          u600 0756                                            u521 05BE  
                                          u361 0396                                            u441 0607  
                                          u601 0755                                            u370 03D7  
                                          u450 0629                                            u530 03A7  
                                          u610 075B                                            u371 03D6  
                                          u451 0628                                            u531 03A6  
                                          u611 075A                                            u540 0538  
                                          u380 0321                                            u460 0657  
                                          u620 0779                                            u541 0537  
                                          u381 0320                                            u461 0656  
                                          u621 0778                                            u390 0326  
                                          u470 066E                                            u550 06FD  
                                          u630 07D4                                            u391 0325  
                                          u471 066D                                            u551 06FC  
                                          u631 07D3                                            u480 0361  
                                          u560 042D                                            u640 07DA  
                                          u481 0360                                            u561 042C  
                                          u641 07D9                                            u570 0439  
                                          u490 036A                                            u571 0438  
                                          u491 0369                                            u707 065F  
                                          u580 0453                                            u581 0452  
                                          u717 042E                                            u590 0745  
                                          u591 0744                                            u657 068B  
                                          u667 06B1                                            u677 06C9  
                                          u687 070C                                            u697 0620  
               ?_EUSART_SetFramingErrorHandler 0070                 ReadFromSerialEEPROM@recv_frame 0061  
                                          wreg 0009                                   ?_EUSART_Read 0070  
               ReadFromSerialEEPROM@send_frame 0076                                           l2011 05B1  
                                         l2021 05CE                                           l2013 05B5  
                                         l2005 058F                                           l2101 06AE  
                                         l2015 05B9                                           l2007 059B  
                                         l2031 03B5                                           l2111 06C6  
                                         l2103 06B5                                           l2009 05A6  
                                         l2017 05BF                                           l2041 04EA  
                                         l2025 039A                                           l2113 06CD  
                                         l2105 06BA                                           l2201 075B  
                                         l2019 05C7                                           l2051 050A  
                                         l2043 04F1                                           l2035 04E1  
                                         l2027 03A2                                           l2131 06FF  
                                         l2115 06D2                                           l2107 06BC  
                                         l2211 0787                                           l2203 0761  
                                         l2053 050C                                           l2045 04F8  
                                         l2037 04E1                                           l2029 03A7  
                                         l2141 071A                                           l2133 0707  
                                         l2125 06E4                                           l2117 06D9  
                                         l2109 06C4                                           l2213 0794  
                                         l2221 07CF                                           l2205 076D  
                                         l2071 0538                                           l2055 050F  
                                         l2047 04FA                                           l2039 04E5  
                                         l2143 0721                                           l2135 0709  
                                         l2127 06F3                                           l2119 06E0  
                                         l2231 07EF                                           l2223 07D4  
                                         l2215 07A1                                           l2207 0771  
                                         l2065 051F                                           l2057 0516  
                                         l2049 0502                                           l2161 0439  
                                         l2153 0425                                           l2137 0710  
                                         l2129 06F7                                           l2081 067C  
                                         l2233 07F6                                           l2225 07DA  
                                         l2217 07AE                                           l2209 077A  
                                         l2147 033B                                           l2067 052E  
                                         l2059 051D                                           l2163 043D  
                                         l2155 0425                                           l2139 0713  
                                         l2091 0694                                           l2083 067E  
                                         l2075 0673                                           l2227 07E8  
                                         l2219 07B7                                           l2171 0723  
                                         l2149 0349                                           l2069 0532  
                                         l2165 043F                                           l2157 042D  
                                         l1701 02E6                                           l2093 069B  
                                         l2085 0686                                           l2077 0673  
                                         l2229 07E8                                           l2181 072D  
                                         l2173 0726                                           l1711 0491  
                                         l2167 0449                                           l2159 0431  
                                         l1703 02E7                                           l2095 06A2  
                                         l2087 0688                                           l2079 0677  
                                         l2191 073B                                           l2183 0734  
                                         l2175 0726                                           l1721 04DC  
                                         l1713 0496                                           l1801 0465  
                                         l1705 02F3                                           l2169 044D  
                                         l2097 06A4                                           l2089 068F  
                                         l2193 073D                                           l2185 0736  
                                         l2177 0726                                           l1715 04B4  
                                         l1731 0387                                           l1811 0471  
                                         l1803 0468                                           l1707 02FA  
                                         l2099 06AC                                           l2259 07C1  
                                         l2195 0748                                           l2187 0737  
                                         l2179 0726                                           l1725 02B2  
                                         l1717 04B5                                           l1741 03CB  
                                         l1733 038B                                           l1821 0477  
                                         l1813 0472                                           l1805 046A  
                                         l1709 02FC                                           l1901 0624  
                                         l2197 0750                                           l2189 0739  
                                         l1719 04C4                                           l1735 03B8  
                                         l1727 037B                                           l1751 03F8  
                                         l1743 03D8                                           l1831 047D  
                                         l1823 0479                                           l1815 0473  
                                         l1807 046D                                           l1903 0629  
                                         l2199 0756                                           l1737 03BD  
                                         l1729 0380                                           l1745 03E3  
                                         l1841 0483                                           l1833 047F  
                                         l1825 047A                                           l1817 0474  
                                         l1809 046F                                           l1761 0328  
                                         l1753 031B                                           l1921 0646  
                                         l1913 062D                                           l1739 03C7  
                                         l1691 02CC                                           l1747 03EA  
                                         l1851 02DB                                           l1843 0485  
                                         l1835 0480                                           l1827 047B  
                                         l1819 0475                                           l1755 031C  
                                         l1931 065C                                           l1923 0649  
                                         l1915 0630                                           l1907 062C  
                                         l1861 03FF                                           l1685 0300  
                                         l1693 02D2                                           l1749 03F1  
                                         l1853 02DC                                           l1845 048C  
                                         l1837 0481                                           l1829 047C  
                                         l1781 0319                                           l1773 030C  
                                         l1757 0321                                           l1765 02C1  
                                         l1933 0663                                           l1925 064D  
                                         l1917 0632                                           l1951 034B  
                                         l1871 041E                                           l1863 0403  
                                         l1687 0309                                           l1695 02C6  
                                         l1855 02DD                                           l1847 048E  
                                         l1839 0482                                           l1791 045A  
                                         l1775 0311                                           l1759 0326  
                                         l1935 0665                                           l1927 0651  
                                         l1919 063C                                           l1961 035B  
                                         l1865 0405                                           l1849 02D8  
                                         l1793 045D                                           l1857 02B5  
                                         l1777 0312                                           l1785 02EA  
                                         l1769 02BD                                           l1697 02E0  
                                         l1945 066F                                           l1937 066A  
                                         l1929 0659                                           l1881 05F5  
                                         l1867 0412                                           l1859 03FB  
                                         l1795 045F                                           l1779 0317  
                                         l1787 02EF                                           l1971 0376  
                                         l1963 0362                                           l1699 02E5  
                                         l1891 05FD                                           l1883 05F8  
                                         l1875 05D1                                           l1957 034D  
                                         l1869 0419                                           l1797 0461  
                                         l1789 0454                                           l1949 032A  
                                         l1965 0362                                           l1893 0608  
                                         l1885 05FA                                           l1877 05D5  
                                         l1959 0357                                           l1991 0575  
                                         l1983 053C                                           l1799 0463  
                                         l1967 036A                                           l1975 0378  
                                         l1895 0609                                           l1887 05FB  
                                         l1879 05D6                                           l1993 057D  
                                         l1985 053F                                           l1969 0370  
                                         l1897 061A                                           l1889 05FC  
                                         l1995 0585                                           l1987 055E  
                                         l1979 02B9                                           l1899 061D  
                                         l1997 0589                                           l1989 0569  
                                         l1999 058E                                           _LATA 010C  
                                         _LATB 010D                                           _LATC 010E  
                                         _LATD 010F                                           _LATE 0110  
                            ?_UnlockFlashWrite 0070                                           _WPUA 020C  
                                         _WPUB 020D                                           _WPUC 020E  
                                         _WPUD 020F                                           _WPUE 0210  
                                         _main 0723                                           fsr0h 0005  
                                         fsr1h 0007                                           indf0 0000  
                                         fsr0l 0004                                           indf1 0001  
                                         fsr1l 0006                             ??_UnlockFlashWrite 0070  
                                         btemp 007E                                     _ClearArray 034B  
                               ?_SPI_ReadBlock 0071                                           start 0002  
                       __end_of_SPI_Initialize 02FF                                  ??_ReadFromMem 0076  
                          __size_of_FLASH_Read 0029                                UART_dataWrite@i 0074  
                                ?_EUSART_Write 0070                 __size_of_OSCILLATOR_Initialize 0008  
                __end_of_OSCILLATOR_Initialize 02E0                                          ?_main 0070  
                                        _TRISA 008C                                          _TRISB 008D  
                                        _TRISC 008E                                          _TRISD 008F  
                                        _TRISE 0090                                    _DefineError 033A  
                               _WDT_Initialize 02B5                                          main@i 0069  
                             __end_of_SPI_Open 04DF                             __size_of_SPI_Close 0003  
                                        status 0003                                          wtemp0 007E  
                         _ReadFromSerialEEPROM 04DF                                 _SPI_WriteBlock 037A  
                              ?_SPI_Initialize 0070                                __initialization 07FB  
                                 __end_of_main 07FB                                _UART_preamFound 0362  
                               ??_EUSART_Write 0070                           __size_of_FLASH_Write 00A1  
                                       ??_main 0066                            __end_of_ReadFromMem 05D0  
                            SPI_ReadBlock@data 0075                         __end_of_WDT_Initialize 02B9  
                     __end_of_SPI_ExchangeByte 030C              _EUSART_DefaultFramingErrorHandler 0000  
                   _EUSART_OverrunErrorHandler 006B                                         _EEADRH 0192  
                                       _EEADRL 0191                                         _EEDATH 0194  
                                       _EEDATL 0193                                         _EECON2 0196  
                                       _ANSELA 018C                                         _ANSELB 018D  
                                       _ANSELC 018E                                         _ANSELD 018F  
                                       _ANSELE 0190                     __end_of_EUSART_is_rx_ready 02C6  
                                       _BORCON 0116                                         _RC1REG 0199  
                                       _RC1STA 019D                                         _ODCONA 028C  
                                       _ODCONB 028D                                         _ODCONC 028E  
                                       _ODCOND 028F                                         _ODCONE 0290  
                                       _INLVLA 038C                                         _INLVLB 038D  
                                       _INLVLC 038E                                         _INLVLD 038F  
                                       _INLVLE 0390                     __end_of_EUSART_is_tx_ready 032A  
                                       _OSCCON 0099                                ??_SPI_ReadBlock 0073  
                                       _TX1REG 019A                          ?_ReadFromSerialEEPROM 0076  
                                       _WDTCON 0097                                         _TX1STA 019E  
                       __end_of_SPI_WriteBlock 0398                                    ?_ClearArray 0070  
                        ReadFromMem@recv_frame 0022                     ReadFromSerialEEPROM@buffer 0020  
                             WriteToMem@result 0021                          ReadFromMem@send_frame 0075  
                                 ReadFromMem@i 0025                              __end_of_SPI_Close 02B5  
                              ?_WDT_Initialize 0070                                   ??_FLASH_Read 0072  
                               FLASH_Read@addr 0070                           __size_of_EUSART_Read 000F  
                            _SYSTEM_Initialize 032A                        __end_of__initialization 07FD  
                              ?_SPI_WriteBlock 0071                             ?_SYSTEM_Initialize 0070  
                      __end_of_UART_preamFound 037A                                 __pcstackCOMMON 0070  
                                  _ReadFromMem 053A                            ??_SYSTEM_Initialize 0072  
                                   _WriteToMem 0398                             __end_of_FLASH_Read 0424  
                         WriteToMem@recv_frame 0020                                      ?_SPI_Open 0070  
                         FLASH_Write@writeAddr 0078                      WriteToSerialEEPROM@buffer 0020  
                          __size_of_ClearArray 0017                                 _OPTION_REGbits 0095  
                         WriteToMem@send_frame 007C                          __end_of_UART_byteRead 02BD  
                      __size_of_UART_dataWrite 0030                   __size_of_WriteToSerialEEPROM 00B2  
              ??_EUSART_SetOverrunErrorHandler 0072                      __end_of_SYSTEM_Initialize 033A  
                                   __pbssBANK0 006F                             SPI_ReadBlock@block 0074  
                       ??_ReadFromSerialEEPROM 0077                           __end_of_EUSART_Write 02F3  
                                   __pmaintext 0723                      __size_of_UnlockFlashWrite 0009  
                                      _APFCON1 011D                                        _APFCON2 011C  
                                   ??_SPI_Open 0070                                   ?_DefineError 0070  
                                      _SP1BRGH 019C                                        _SP1BRGL 019B  
                WriteToSerialEEPROM@recv_frame 0065                                        _OSCSTAT 009A  
                                      _OSCTUNE 0098                                        _SSP1ADD 0212  
                                      _SLRCONA 030C                                        _SLRCONB 030D  
                                      _SLRCONC 030E                                        _SLRCOND 030F  
                                      _SLRCONE 0310                                        _SSP1BUF 0211  
                     ??_EUSART_SetErrorHandler 0072                  WriteToSerialEEPROM@send_frame 0076  
                             ??_SPI_Initialize 0070                               ?_UART_preamFound 0070  
                               main@recv_frame 0120                                    ?_WriteToMem 007C  
                                      __ptext1 0671                                        __ptext2 0398  
                                      __ptext3 05D0                                        __ptext4 02E0  
                                      __ptext5 0362                                        __ptext6 02C1  
                                      __ptext7 0424                                        __ptext8 031B  
                                      __ptext9 02BD                         UART_dataWrite@data_ptr 0073  
                               main@send_frame 00A0                          _OSCILLATOR_Initialize 02D8  
                     ??_PIN_MANAGER_Initialize 0070                     __size_of_SYSTEM_Initialize 0010  
                            ?_SPI_ExchangeByte 0070                           end_of_initialization 07FD  
                           ??_SPI_ExchangeByte 0070          __end_of_EUSART_SetOverrunErrorHandler 02D8  
       __size_of_EUSART_SetOverrunErrorHandler 0006                  _EUSART_SetOverrunErrorHandler 02D2  
                                 ??_ClearArray 0072                              _EUSART_Initialize 03D8  
                      SPI_WriteBlock@blockSize 0071                             ?_EUSART_Initialize 0070  
                           _EUSART_is_rx_ready 02C1                                  ??_FLASH_Write 0070  
                           _EUSART_is_tx_ready 031B                            ??_EUSART_Initialize 0072  
                             ??_WDT_Initialize 0070                            ?_EUSART_is_rx_ready 0070  
                            _spi_configuration 0800                            ?_EUSART_is_tx_ready 0070  
                           __end_of_ClearArray 0362                                      _SPI_Close 02B2  
                               _UART_dataWrite 0424                                      _TRISCbits 008E  
                        __size_of_EUSART_Write 000A                               ReadFromMem@dbyte 0023  
                             ??_SPI_WriteBlock 0073                __size_of_EUSART_SetErrorHandler 0006  
                          __size_of_WriteToMem 001F                      __end_of_EUSART_Initialize 03FB  
                         ??_EUSART_is_rx_ready 0070                           ??_EUSART_is_tx_ready 0070  
                        __end_of_SPI_ReadBlock 03D8                              FLASH_Write@buffer 007B  
                          SPI_WriteBlock@block 0075                            _WriteToSerialEEPROM 0671  
                                 ?_ReadFromMem 0075                           SPI_ExchangeByte@data 0070  
                             _UnlockFlashWrite 02E0                      __end_of_spi_configuration 0804  
                   _EUSART_DefaultErrorHandler 0000                                   _EUSART_Write 02E9  
                       ?_OSCILLATOR_Initialize 0070                            __end_of_FLASH_Write 0671  
                       __end_of_UART_dataWrite 0454                              __size_of_SPI_Open 004F  
                          start_initialization 07FB                                     ?_SPI_Close 0070  
                         ?_WriteToSerialEEPROM 0076                          main@processing_status 006A  
              __size_of_PIN_MANAGER_Initialize 003C                           __size_of_DefineError 0011  
                                ??_EUSART_Read 0070                         _EUSART_is_tx_ready$283 0070  
                           UART_dataWrite@size 0071                 ?_EUSART_SetOverrunErrorHandler 0070  
               SPI_Open@spiUniqueConfiguration 0073                     _EUSART_FramingErrorHandler 006D  
                       _EUSART_SetErrorHandler 02C6                                ClearArray@array 0070  
                              ?_UART_dataWrite 0071                          ReadFromSerialEEPROM@i 0062  
                                    ___latbits 0003                          ??_WriteToSerialEEPROM 0077  
                                __pcstackBANK0 0020                                  __pcstackBANK1 00A0  
                                __pcstackBANK2 0120                            FLASH_Read@INR_state 0074  
                   __size_of_EUSART_Initialize 0023                  __size_of_ReadFromSerialEEPROM 005B  
                          __end_of_EUSART_Read 031B                                      __pnvBANK0 006B  
                                    __pnvBANK1 00E2                         _PIN_MANAGER_Initialize 0454  
                      WriteToSerialEEPROM@SPI1 0063                         __size_of_UART_byteRead 0004  
                                 ??_WriteToMem 007D                                    _FLASH_Write 05D0  
                                     _BAUD1CON 019F                                    ??_SPI_Close 0070  
                         WriteToSerialEEPROM@i 0064                             __end_of_WriteToMem 03B7  
                                     _LATAbits 010C         EUSART_SetErrorHandler@interruptHandler 0070  
                                     _LATEbits 0110                              _eusartRxLastError 006F  
                                     _PIR1bits 0011                ??_EUSART_SetFramingErrorHandler 0072  
                            _EUSART_is_tx_done 02BD                      __size_of_SPI_ExchangeByte 000D  
                                     _SSP1CON1 0215                                       _SSP1CON2 0216  
            _EUSART_DefaultOverrunErrorHandler 0000                                       _SSP1STAT 0214  
                           ?_EUSART_is_tx_done 0070                       __size_of_UART_preamFound 0018  
                         __size_of_ReadFromMem 0096                                       _SPI_Open 0490  
                          ??_EUSART_is_tx_done 0070                            UART_preamFound@byte 0071  
                           SPI_WriteBlock@data 0074                                  _UART_byteRead 02B9  
                                  _EUSART_Read 030C                       __end_of_UnlockFlashWrite 02E9  
                                  ClearArray@i 0074                                     _EECON1bits 0195  
                    __end_of_EUSART_is_tx_done 02C1                        __size_of_SPI_Initialize 000C  
                      ??_OSCILLATOR_Initialize 0070                            _EUSART_ErrorHandler 00E2  
                                 FLASH_Write@i 007A                                 ?_UART_byteRead 0070  
                                   _FLASH_Read 03FB                                       __ptext10 02E9  
                                     __ptext11 02B9                                       __ptext20 02CC  
                                     __ptext12 030C                                       __ptext21 02C6  
                                     __ptext13 032A                                       __ptext30 033A  
                                     __ptext22 04DF                                       __ptext14 02B5  
                                     __ptext31 034B                                       __ptext23 037A  
                                     __ptext15 02F3                                       __ptext24 03B7  
                                     __ptext16 0454                                       __ptext25 02FF  
                                     __ptext17 02D8                                       __ptext26 0490  
                                     __ptext18 03D8                                       __ptext27 02B2  
                                     __ptext19 02D2                                       __ptext28 053A  
                                     __ptext29 03FB                                   _SSP1CON1bits 0215  
                  __size_of_EUSART_is_rx_ready 0005                                  __size_of_main 00D8  
                  __size_of_EUSART_is_tx_ready 000F                        ?_EUSART_SetErrorHandler 0070  
                                   _RC1STAbits 019D  EUSART_SetOverrunErrorHandler@interruptHandler 0070  
                             ??_UART_dataWrite 0072          __end_of_EUSART_SetFramingErrorHandler 02D2  
       __size_of_EUSART_SetFramingErrorHandler 0006                  _EUSART_SetFramingErrorHandler 02CC  
                                ??_DefineError 0070                                     _INTCONbits 000B  
                            ??_UART_preamFound 0070                         __size_of_SPI_ReadBlock 0021  
                      __size_of_WDT_Initialize 0004                          DefineError@send_frame 0071  
                      ?_PIN_MANAGER_Initialize 0070                 __end_of_EUSART_SetErrorHandler 02CC  
                   __size_of_EUSART_is_tx_done 0004                        __size_of_SPI_WriteBlock 001E  
                             _SPI_ExchangeByte 02FF                                   ?_FLASH_Write 0070  
EUSART_SetFramingErrorHandler@interruptHandler 0070                    __end_of_WriteToSerialEEPROM 0723  
                 __end_of_ReadFromSerialEEPROM 053A                                  __pstringtext1 0800  
                              ??_UART_byteRead 0070                                    ?_FLASH_Read 0070  
                                   _TX1STAbits 019E                            __end_of_DefineError 034B  
                           EUSART_Write@txData 0070                 __end_of_PIN_MANAGER_Initialize 0490  
                         FLASH_Write@INR_state 0077                                  _SPI_ReadBlock 03B7  
                     ReadFromSerialEEPROM@SPI1 0060  
